	.file	"cfun.c"
	.code16gcc
	.text
.Ltext0:
	.cfi_sections	.debug_frame
	.globl	int17_function
	.type	int17_function, @function
int17_function:
.LFB0:
	.file 1 "cfun.c"
	.loc 1 47 1
	.cfi_startproc
	push	%bp
	.cfi_def_cfa_offset 8
	.cfi_offset 5, -8
	mov	%sp, %bp
	.cfi_def_cfa_register 5
	.loc 1 48 3
/APP
/  48 "cfun.c" 1
	int3
/  0 "" 2
	.loc 1 49 1
/NO_APP
	nop
	pop	%bp
	.cfi_restore 5
	.cfi_def_cfa 4, 4
	ret
	.cfi_endproc
.LFE0:
	.size	int17_function, .-int17_function
	.globl	int19_function
	.type	int19_function, @function
int19_function:
.LFB1:
	.loc 1 55 1
	.cfi_startproc
	push	%bp
	.cfi_def_cfa_offset 4
	.cfi_offset 5, -4
	mov	%sp, %bp
	.cfi_def_cfa_register 5
	sub	$2, %sp
	movw	2(%bp), %ax
	movw	%ax, -2(%bp)
	.loc 1 56 1
	nop
	leave
	.cfi_restore 5
	.cfi_def_cfa 4, 4
	ret
	.cfi_endproc
.LFE1:
	.size	int19_function, .-int19_function
.Letext0: