
hello.elf:     ファイル形式 elf32-littlearm
hello.elf
アーキテクチャ: armv4t, フラグ 0x00000112:
EXEC_P, HAS_SYMS, D_PAGED
開始アドレス 0x000081ec

プログラムヘッダ:
0x70000001 off    0x0000bf38 vaddr 0x0000bf38 paddr 0x0000bf38 align 2**2
         filesz 0x00000008 memsz 0x00000008 flags r--
    LOAD off    0x00000000 vaddr 0x00000000 paddr 0x00000000 align 2**16
         filesz 0x0000bf44 memsz 0x0000bf44 flags r-x
    LOAD off    0x0000bf44 vaddr 0x0001bf44 paddr 0x0001bf44 align 2**16
         filesz 0x00000970 memsz 0x00000a78 flags rw-
private flags = 0x0: [APCS-32] [FPA 浮動小数形式]

セクション:
Idx Name          Size      VMA       LMA       File off  Algn
  0 .init         00000020  00008000  00008000  00008000  2**2
                  CONTENTS, ALLOC, LOAD, READONLY, CODE
  1 .text         00003ee4  00008020  00008020  00008020  2**2
                  CONTENTS, ALLOC, LOAD, READONLY, CODE
  2 .fini         0000001c  0000bf04  0000bf04  0000bf04  2**2
                  CONTENTS, ALLOC, LOAD, READONLY, CODE
  3 .rodata       00000018  0000bf20  0000bf20  0000bf20  2**2
                  CONTENTS, ALLOC, LOAD, READONLY, DATA
  4 .ARM.exidx    00000008  0000bf38  0000bf38  0000bf38  2**2
                  CONTENTS, ALLOC, LOAD, READONLY, DATA
  5 .eh_frame     00000004  0000bf40  0000bf40  0000bf40  2**2
                  CONTENTS, ALLOC, LOAD, READONLY, DATA
  6 .ctors        00000008  0001bf44  0001bf44  0000bf44  2**2
                  CONTENTS, ALLOC, LOAD, DATA
  7 .dtors        00000008  0001bf4c  0001bf4c  0000bf4c  2**2
                  CONTENTS, ALLOC, LOAD, DATA
  8 .data         00000960  0001bf54  0001bf54  0000bf54  2**2
                  CONTENTS, ALLOC, LOAD, DATA
  9 .persistent   00000000  0001c8b4  0001c8b4  0000c8b4  2**0
                  CONTENTS, ALLOC, LOAD, DATA
 10 .bss          00000108  0001c8b4  0001c8b4  0000c8b4  2**2
                  ALLOC
 11 .noinit       00000000  0001c9bc  0001c9bc  00000000  2**0
                  ALLOC
 12 .comment      00000012  00000000  00000000  0000c8b4  2**0
                  CONTENTS, READONLY
 13 .debug_aranges 000004d8  00000000  00000000  0000c8c8  2**3
                  CONTENTS, READONLY, DEBUGGING, OCTETS
 14 .debug_info   00015207  00000000  00000000  0000cda0  2**0
                  CONTENTS, READONLY, DEBUGGING, OCTETS
 15 .debug_abbrev 00004aff  00000000  00000000  00021fa7  2**0
                  CONTENTS, READONLY, DEBUGGING, OCTETS
 16 .debug_line   00007a2d  00000000  00000000  00026aa6  2**0
                  CONTENTS, READONLY, DEBUGGING, OCTETS
 17 .debug_frame  00000d24  00000000  00000000  0002e4d4  2**2
                  CONTENTS, READONLY, DEBUGGING, OCTETS
 18 .debug_str    000018af  00000000  00000000  0002f1f8  2**0
                  CONTENTS, READONLY, DEBUGGING, OCTETS
 19 .debug_loc    0000723a  00000000  00000000  00030aa7  2**0
                  CONTENTS, READONLY, DEBUGGING, OCTETS
 20 .debug_ranges 00000e78  00000000  00000000  00037ce1  2**0
                  CONTENTS, READONLY, DEBUGGING, OCTETS
 21 .ARM.attributes 0000001a  00000000  00000000  00038b59  2**0
                  CONTENTS, READONLY
SYMBOL TABLE:
00008000 l    d  .init	00000000 .init
00008020 l    d  .text	00000000 .text
0000bf04 l    d  .fini	00000000 .fini
0000bf20 l    d  .rodata	00000000 .rodata
0000bf38 l    d  .ARM.exidx	00000000 .ARM.exidx
0000bf40 l    d  .eh_frame	00000000 .eh_frame
0001bf44 l    d  .ctors	00000000 .ctors
0001bf4c l    d  .dtors	00000000 .dtors
0001bf54 l    d  .data	00000000 .data
0001c8b4 l    d  .persistent	00000000 .persistent
0001c8b4 l    d  .bss	00000000 .bss
0001c9bc l    d  .noinit	00000000 .noinit
00000000 l    d  .comment	00000000 .comment
00000000 l    d  .debug_aranges	00000000 .debug_aranges
00000000 l    d  .debug_info	00000000 .debug_info
00000000 l    d  .debug_abbrev	00000000 .debug_abbrev
00000000 l    d  .debug_line	00000000 .debug_line
00000000 l    d  .debug_frame	00000000 .debug_frame
00000000 l    d  .debug_str	00000000 .debug_str
00000000 l    d  .debug_loc	00000000 .debug_loc
00000000 l    d  .debug_ranges	00000000 .debug_ranges
00000000 l    d  .ARM.attributes	00000000 .ARM.attributes
00000000 l    df *ABS*	00000000 crti.o
00000000 l    df *ABS*	00000000 crtstuff.c
0001bf54 l     O .data	00000000 force_to_data
0001bf44 l     O .ctors	00000000 __CTOR_LIST__
0001bf4c l     O .dtors	00000000 __DTOR_LIST__
0000bf40 l     O .eh_frame	00000000 
00008020 l     F .text	00000000 deregister_tm_clones
0000804c l     F .text	00000000 register_tm_clones
00008084 l     F .text	00000000 __do_global_dtors_aux
0001c8b4 l       .bss	00000001 completed.2
0001c8b8 l       .bss	00000004 dtor_idx.1
00008118 l     F .text	00000000 call___do_global_dtors_aux
00008120 l     F .text	00000000 frame_dummy
0001c8bc l       .bss	00000018 object.0
00008154 l     F .text	00000000 call_frame_dummy
00000000 l    df *ABS*	00000000 crtstuff.c
0001c8b0 l     O .data	00000000 force_to_data
0001bf48 l     O .ctors	00000000 __CTOR_END__
0000bf40 l     O .eh_frame	00000000 __FRAME_END__
0000bec8 l     F .text	00000000 __do_global_ctors_aux
0000befc l     F .text	00000000 call___do_global_ctors_aux
00000000 l    df *ABS*	00000000 crtn.o
00000000 l    df *ABS*	00000000 crt0.o
0001bf5c l       .data	00000000 HeapBase
0001c06c l       .data	00000000 AngelSWIArgs
0001bf60 l       .data	00000000 HeapLimit
0001bf68 l       .data	00000000 StackLimit
0001bf6c l       .data	00000000 CommandLine
00000000 l    df *ABS*	00000000 hello.c
00000000 l    df *ABS*	00000000 atexit.c
00000000 l    df *ABS*	00000000 exit.c
00000000 l    df *ABS*	00000000 fini.c
00000000 l    df *ABS*	00000000 impure.c
0001c078 l     O .data	00000424 impure_data
00000000 l    df *ABS*	00000000 init.c
00000000 l    df *ABS*	00000000 memset.c
00000000 l    df *ABS*	00000000 puts.c
00000000 l    df *ABS*	00000000 strlen-stub.c
00000000 l    df *ABS*	00000000 syscalls.c
000086a0 l     F .text	00000078 remap_handle
0001c8d4 l     O .bss	00000004 monitor_stdin
0001c8d8 l     O .bss	00000004 monitor_stdout
0001c8dc l     O .bss	00000004 monitor_stderr
0001c8e0 l     O .bss	000000a0 openfiles
0001c980 l     O .bss	00000004 heap_end.0
00000000 l    df *ABS*	00000000 __atexit.c
00000000 l    df *ABS*	00000000 __call_atexit.c
00000000 l    df *ABS*	00000000 errno.c
00000000 l    df *ABS*	00000000 findfp.c
00009488 l     F .text	00000008 __fp_lock
0000949c l     F .text	00000008 __fp_unlock
000094a4 l     F .text	00000144 __sinit.part.0
00000000 l    df *ABS*	00000000 fvwrite.c
00000000 l    df *ABS*	00000000 fwalk.c
00000000 l    df *ABS*	00000000 mallocr.c
00000000 l    df *ABS*	00000000 memchr-stub.c
00000000 l    df *ABS*	00000000 memcpy-stub.c
00000000 l    df *ABS*	00000000 memmove.c
00000000 l    df *ABS*	00000000 mlock.c
00000000 l    df *ABS*	00000000 mallocr.c
00000000 l    df *ABS*	00000000 sbrkr.c
00000000 l    df *ABS*	00000000 stdio.c
00000000 l    df *ABS*	00000000 writer.c
00000000 l    df *ABS*	00000000 wsetup.c
00000000 l    df *ABS*	00000000 closer.c
00000000 l    df *ABS*	00000000 fclose.c
0000b108 l     F .text	000000ac _fclose_r.part.0
00000000 l    df *ABS*	00000000 fflush.c
00000000 l    df *ABS*	00000000 mallocr.c
00000000 l    df *ABS*	00000000 lseekr.c
00000000 l    df *ABS*	00000000 makebuf.c
00000000 l    df *ABS*	00000000 readr.c
00000000 l    df *ABS*	00000000 reent.c
00000000 l    df *ABS*	00000000 fstatr.c
00000000 l    df *ABS*	00000000 isattyr.c
00000000 l    df *ABS*	00000000 _divsi3.o
0000bd84 l       .text	00000000 .divsi3_skip_div0_test
00000000 l    df *ABS*	00000000 _dvmd_tls.o
00000000 l    df *ABS*	00000000 
0001bf44 l       .ctors	00000000 __fini_array_end
0001bf44 l       .ctors	00000000 __fini_array_start
0001bf44 l       .ctors	00000000 __init_array_end
0001bf44 l       .ctors	00000000 __preinit_array_end
0001bf44 l       .ctors	00000000 __init_array_start
0001bf44 l       .ctors	00000000 __preinit_array_start
0000bd44 g     F .text	00000038 _isatty_r
0000bb98 g     F .text	00000070 cleanup_glue
00008e7c g     F .text	00000008 _getpid
00008584 g     F .text	000000a8 _puts_r
0000b940 g     F .text	00000044 _lseek_r
0000aef8 g     F .text	0000002c __sseek
0000975c g     F .text	00000010 __sinit
000095e8 g     F .text	0000004c __sfmoreglue
0000a894 g     F .text	00000004 __malloc_unlock
00008718 g     F .text	000000ac initialise_monitor_handles
0000a73c g     F .text	00000154 memmove
00009744 g     F .text	00000018 _cleanup
00009478 g     F .text	00000010 __errno
0001c9bc g       .bss	00000000 _bss_end__
0000bd08 g     F .text	0000003c _fstat_r
0001c9b8 g     O .bss	00000004 errno
0000ae98 g     F .text	00000008 __seofread
0001c49c g     O .data	00000004 __heap_limit
0000a620 g     F .text	0000011c memcpy
0001c8b4 g     O .data	00000000 .hidden __TMC_END__
00009490 g     F .text	0000000c _cleanup_r
0001bf50 g     O .dtors	00000000 .hidden __DTOR_END__
0000862c g     F .text	00000014 puts
00008f00  w    F .text	00000030 _fstat
0001c984 g     O .bss	00000004 __malloc_top_pad
0001c8b4 g       .bss	00000000 __bss_start__
0001bf58 g     O .data	00000000 .hidden __dso_handle
000097ac g     F .text	000004e4 __sfvwrite_r
0000ae30 g     F .text	00000038 _sbrk_r
0000bb54 g     F .text	00000044 _read_r
0000b1b4 g     F .text	0000005c _fclose_r
0000b4ec g     F .text	00000070 fflush
0001c9b0 g     O .bss	00000004 __malloc_max_sbrked_mem
000090dc g     F .text	000000d8 _isatty
0000bf2c g     O .rodata	00000004 _global_impure_ptr
0000a898 g     F .text	00000598 _realloc_r
000083e8 g     F .text	00000084 __libc_init_array
000081ec g       .text	00000000 _mainCRTStartup
00008d08 g     F .text	00000060 _open
00008e84  w    F .text	0000007c _sbrk
0000977c g     F .text	00000018 __fp_lock_all
00008000 g     F .init	00000000 _init
00009054 g     F .text	00000004 _raise
000083a8 g     F .text	00000040 __libc_fini_array
000090a4 g     F .text	00000038 _times
0000bc08 g     F .text	00000100 _reclaim_reent
00008f30  w    F .text	0000008c _stat
0000bd7c g     F .text	00000000 .hidden __aeabi_idiv
0001c9bc g       .bss	00000000 end
0001bf64 g       .data	00000000 __stack_base__
0000976c g     F .text	00000004 __sfp_lock_acquire
0000a540 g     F .text	000000e0 memchr
0001c9bc g       .bss	00000000 __bss_end__
0000b654 g     F .text	000002ec _free_r
00009370 g     F .text	00000108 __call_exitprocs
0001c8a8 g     O .data	00000004 __malloc_sbrk_base
000081ec g       .text	00000000 _start
00008a48 g     F .text	00000048 _lseek
000092ec g     F .text	00000084 __register_exitproc
0000815c  w      .text	00000000 _stack_init
0001c988 g     O .bss	00000028 __malloc_current_mallinfo
0000b0d0 g     F .text	00000038 _close_r
0000af70 g     F .text	00000160 __swsetup_r
00009634 g     F .text	00000110 __sfp
0001c4a0 g     O .data	00000408 __malloc_av_
00009778 g     F .text	00000004 __sinit_lock_release
0000ae68 g     F .text	00000030 __sread
0000a890 g     F .text	00000004 __malloc_lock
0000b4ac g     F .text	00000040 _fflush_r
0001c8b4 g       .bss	00000000 __bss_start
0000846c g     F .text	00000118 memset
00008340 g     F .text	00000020 main
00008fbc  w    F .text	0000001c _link
0001c9b4 g     O .bss	00000004 __malloc_max_total_mem
0000bec4 g     F .text	00000004 .hidden __div0
0000af24 g     F .text	00000008 __sclose
0000b210 g     F .text	00000068 fclose
00009d70 g     F .text	000007d0 _malloc_r
00009c90 g     F .text	0000006c _fwalk
0001c9bc g       .bss	00000000 __end__
00008a90 g     F .text	000000ac _swiwrite
0000925c g     F .text	00000090 _rename
0000bd7c g     F .text	00000128 .hidden __divsi3
0000b55c g     F .text	000000f8 _malloc_trim_r
0000bf04 g     F .fini	00000000 _fini
00008944 g     F .text	00000104 _swilseek
00008360 g     F .text	00000014 atexit
0000af2c g     F .text	00000044 _write_r
0001c074 g     O .data	00000004 _impure_ptr
00008d68 g     F .text	0000006c _swiclose
0000b278 g     F .text	00000234 __sflush_r
00008c14 g     F .text	000000f4 _swiopen
00009794 g     F .text	00000018 __fp_unlock_all
00008fd8 g     F .text	0000007c _unlink
0000bac0 g     F .text	00000094 __swhatbuf_r
00008b3c  w    F .text	000000d8 _write
0001c8b4 g       .data	00000000 _edata
0001c9bc g       .bss	00000000 _end
0000aea0 g     F .text	00000058 __swrite
0001c8ac g     O .data	00000004 __malloc_trim_threshold
00008374 g     F .text	00000034 exit
00009cfc g     F .text	00000074 _fwalk_reent
00008e1c g     F .text	00000040 _kill
00009770 g     F .text	00000004 __sfp_lock_release
00009058 g     F .text	0000004c _gettimeofday
00008870  w    F .text	000000d4 _read
00008e5c g     F .text	00000020 _exit
0000b984 g     F .text	0000013c __smakebuf_r
00008640 g     F .text	00000060 strlen
00080000 g       .noinit	00000000 _stack
0001bf54 g       .data	00000000 __data_start
0000bea4 g     F .text	00000020 .hidden __aeabi_idivmod
000091b4 g     F .text	000000a8 _system
000087c4 g     F .text	000000ac _swiread
00008dd4 g     F .text	00000048 _close
00009774 g     F .text	00000004 __sinit_lock_acquire



セクション .init の逆アセンブル:

00008000 <_init>:
    8000:	e1a0c00d 	mov	ip, sp
    8004:	e92ddff8 	push	{r3, r4, r5, r6, r7, r8, r9, sl, fp, ip, lr, pc}
    8008:	e24cb004 	sub	fp, ip, #4
    800c:	eb000043 	bl	8120 <frame_dummy>
    8010:	eb000fac 	bl	bec8 <__do_global_ctors_aux>
    8014:	e24bd028 	sub	sp, fp, #40	; 0x28
    8018:	e89d6ff0 	ldm	sp, {r4, r5, r6, r7, r8, r9, sl, fp, sp, lr}
    801c:	e1a0f00e 	mov	pc, lr

セクション .text の逆アセンブル:

00008020 <deregister_tm_clones>:
    8020:	e59f0018 	ldr	r0, [pc, #24]	; 8040 <deregister_tm_clones+0x20>
    8024:	e59f3018 	ldr	r3, [pc, #24]	; 8044 <deregister_tm_clones+0x24>
    8028:	e1530000 	cmp	r3, r0
    802c:	012fff1e 	bxeq	lr
    8030:	e59f3010 	ldr	r3, [pc, #16]	; 8048 <deregister_tm_clones+0x28>
    8034:	e3530000 	cmp	r3, #0
    8038:	012fff1e 	bxeq	lr
    803c:	e12fff13 	bx	r3
    8040:	0001c8b4 	.word	0x0001c8b4
    8044:	0001c8b4 	.word	0x0001c8b4
    8048:	00000000 	.word	0x00000000

0000804c <register_tm_clones>:
    804c:	e59f0024 	ldr	r0, [pc, #36]	; 8078 <register_tm_clones+0x2c>
    8050:	e59f1024 	ldr	r1, [pc, #36]	; 807c <register_tm_clones+0x30>
    8054:	e0413000 	sub	r3, r1, r0
    8058:	e1a01fa3 	lsr	r1, r3, #31
    805c:	e0811143 	add	r1, r1, r3, asr #2
    8060:	e1b010c1 	asrs	r1, r1, #1
    8064:	012fff1e 	bxeq	lr
    8068:	e59f3010 	ldr	r3, [pc, #16]	; 8080 <register_tm_clones+0x34>
    806c:	e3530000 	cmp	r3, #0
    8070:	012fff1e 	bxeq	lr
    8074:	e12fff13 	bx	r3
    8078:	0001c8b4 	.word	0x0001c8b4
    807c:	0001c8b4 	.word	0x0001c8b4
    8080:	00000000 	.word	0x00000000

00008084 <__do_global_dtors_aux>:
    8084:	e92d40f0 	push	{r4, r5, r6, r7, lr}
    8088:	e59f6070 	ldr	r6, [pc, #112]	; 8100 <__do_global_dtors_aux+0x7c>
    808c:	e5d63000 	ldrb	r3, [r6]
    8090:	e3530000 	cmp	r3, #0
    8094:	18bd80f0 	popne	{r4, r5, r6, r7, pc}
    8098:	e59f3064 	ldr	r3, [pc, #100]	; 8104 <__do_global_dtors_aux+0x80>
    809c:	e59f5064 	ldr	r5, [pc, #100]	; 8108 <__do_global_dtors_aux+0x84>
    80a0:	e59f4064 	ldr	r4, [pc, #100]	; 810c <__do_global_dtors_aux+0x88>
    80a4:	e0455003 	sub	r5, r5, r3
    80a8:	e1a05145 	asr	r5, r5, #2
    80ac:	e5943000 	ldr	r3, [r4]
    80b0:	e2455001 	sub	r5, r5, #1
    80b4:	e1530005 	cmp	r3, r5
    80b8:	e59f7044 	ldr	r7, [pc, #68]	; 8104 <__do_global_dtors_aux+0x80>
    80bc:	2a000007 	bcs	80e0 <__do_global_dtors_aux+0x5c>
    80c0:	e2833001 	add	r3, r3, #1
    80c4:	e7972103 	ldr	r2, [r7, r3, lsl #2]
    80c8:	e5843000 	str	r3, [r4]
    80cc:	e1a0e00f 	mov	lr, pc
    80d0:	e12fff12 	bx	r2
    80d4:	e5943000 	ldr	r3, [r4]
    80d8:	e1530005 	cmp	r3, r5
    80dc:	3afffff7 	bcc	80c0 <__do_global_dtors_aux+0x3c>
    80e0:	ebffffce 	bl	8020 <deregister_tm_clones>
    80e4:	e59f3024 	ldr	r3, [pc, #36]	; 8110 <__do_global_dtors_aux+0x8c>
    80e8:	e3530000 	cmp	r3, #0
    80ec:	159f0020 	ldrne	r0, [pc, #32]	; 8114 <__do_global_dtors_aux+0x90>
    80f0:	11a00000 	movne	r0, r0
    80f4:	e3a03001 	mov	r3, #1
    80f8:	e5c63000 	strb	r3, [r6]
    80fc:	e8bd80f0 	pop	{r4, r5, r6, r7, pc}
    8100:	0001c8b4 	.word	0x0001c8b4
    8104:	0001bf4c 	.word	0x0001bf4c
    8108:	0001bf50 	.word	0x0001bf50
    810c:	0001c8b8 	.word	0x0001c8b8
    8110:	00000000 	.word	0x00000000
    8114:	0000bf40 	.word	0x0000bf40

00008118 <call___do_global_dtors_aux>:
    8118:	e52de004 	push	{lr}		; (str lr, [sp, #-4]!)
    811c:	e49df004 	pop	{pc}		; (ldr pc, [sp], #4)

00008120 <frame_dummy>:
    8120:	e59f3020 	ldr	r3, [pc, #32]	; 8148 <frame_dummy+0x28>
    8124:	e3530000 	cmp	r3, #0
    8128:	0a000005 	beq	8144 <frame_dummy+0x24>
    812c:	e52de004 	push	{lr}		; (str lr, [sp, #-4]!)
    8130:	e59f1014 	ldr	r1, [pc, #20]	; 814c <frame_dummy+0x2c>
    8134:	e59f0014 	ldr	r0, [pc, #20]	; 8150 <frame_dummy+0x30>
    8138:	e1a00000 	nop			; (mov r0, r0)
    813c:	e49de004 	pop	{lr}		; (ldr lr, [sp], #4)
    8140:	eaffffc1 	b	804c <register_tm_clones>
    8144:	eaffffc0 	b	804c <register_tm_clones>
    8148:	00000000 	.word	0x00000000
    814c:	0001c8bc 	.word	0x0001c8bc
    8150:	0000bf40 	.word	0x0000bf40

00008154 <call_frame_dummy>:
    8154:	e52de004 	push	{lr}		; (str lr, [sp, #-4]!)
    8158:	e49df004 	pop	{pc}		; (ldr pc, [sp], #4)

0000815c <_stack_init>:
    815c:	e10f4000 	mrs	r4, CPSR
    8160:	e314000f 	tst	r4, #15
    8164:	0a00001c 	beq	81dc <_stack_init+0x80>
    8168:	e1a0300d 	mov	r3, sp
    816c:	e3a010d1 	mov	r1, #209	; 0xd1
    8170:	e121f001 	msr	CPSR_c, r1
    8174:	e1a0d003 	mov	sp, r3
    8178:	e24daa01 	sub	sl, sp, #4096	; 0x1000
    817c:	e1a0300a 	mov	r3, sl
    8180:	e3a010d7 	mov	r1, #215	; 0xd7
    8184:	e121f001 	msr	CPSR_c, r1
    8188:	e1a0d003 	mov	sp, r3
    818c:	e2433a01 	sub	r3, r3, #4096	; 0x1000
    8190:	e3a010db 	mov	r1, #219	; 0xdb
    8194:	e121f001 	msr	CPSR_c, r1
    8198:	e1a0d003 	mov	sp, r3
    819c:	e2433a01 	sub	r3, r3, #4096	; 0x1000
    81a0:	e3a010d2 	mov	r1, #210	; 0xd2
    81a4:	e121f001 	msr	CPSR_c, r1
    81a8:	e1a0d003 	mov	sp, r3
    81ac:	e2433a02 	sub	r3, r3, #8192	; 0x2000
    81b0:	e3a010d3 	mov	r1, #211	; 0xd3
    81b4:	e121f001 	msr	CPSR_c, r1
    81b8:	e1a0d003 	mov	sp, r3
    81bc:	e2433902 	sub	r3, r3, #32768	; 0x8000
    81c0:	e3c330ff 	bic	r3, r3, #255	; 0xff
    81c4:	e3c33cff 	bic	r3, r3, #65280	; 0xff00
    81c8:	e3a010df 	mov	r1, #223	; 0xdf
    81cc:	e121f001 	msr	CPSR_c, r1
    81d0:	e1a0d003 	mov	sp, r3
    81d4:	e38440c0 	orr	r4, r4, #192	; 0xc0
    81d8:	e121f004 	msr	CPSR_c, r4
    81dc:	e3520000 	cmp	r2, #0
    81e0:	0a000000 	beq	81e8 <_stack_init+0x8c>
    81e4:	e282ac01 	add	sl, r2, #256	; 0x100
    81e8:	e12fff1e 	bx	lr

000081ec <_mainCRTStartup>:
    81ec:	e3b00016 	movs	r0, #22
    81f0:	e28f1f4a 	add	r1, pc, #296	; 0x128
    81f4:	ef123456 	svc	0x00123456
    81f8:	e59f0120 	ldr	r0, [pc, #288]	; 8320 <_mainCRTStartup+0x134>
    81fc:	e5901004 	ldr	r1, [r0, #4]
    8200:	e3510000 	cmp	r1, #0
    8204:	0a000001 	beq	8210 <_mainCRTStartup+0x24>
    8208:	e59f212c 	ldr	r2, [pc, #300]	; 833c <_mainCRTStartup+0x150>
    820c:	e5821000 	str	r1, [r2]
    8210:	e5901000 	ldr	r1, [r0]
    8214:	e3510000 	cmp	r1, #0
    8218:	1a000001 	bne	8224 <_mainCRTStartup+0x38>
    821c:	e59f1114 	ldr	r1, [pc, #276]	; 8338 <_mainCRTStartup+0x14c>
    8220:	e5801000 	str	r1, [r0]
    8224:	e5901008 	ldr	r1, [r0, #8]
    8228:	e590200c 	ldr	r2, [r0, #12]
    822c:	e59f30f0 	ldr	r3, [pc, #240]	; 8324 <_mainCRTStartup+0x138>
    8230:	e3510000 	cmp	r1, #0
    8234:	0a000000 	beq	823c <_mainCRTStartup+0x50>
    8238:	e1a03001 	mov	r3, r1
    823c:	e1a0d003 	mov	sp, r3
    8240:	ebffffc5 	bl	815c <_stack_init>
    8244:	e3b01000 	movs	r1, #0
    8248:	e1a0b001 	mov	fp, r1
    824c:	e1a07001 	mov	r7, r1
    8250:	e59f00d0 	ldr	r0, [pc, #208]	; 8328 <_mainCRTStartup+0x13c>
    8254:	e59f20d0 	ldr	r2, [pc, #208]	; 832c <_mainCRTStartup+0x140>
    8258:	e0522000 	subs	r2, r2, r0
    825c:	eb000082 	bl	846c <memset>
    8260:	eb00012c 	bl	8718 <initialise_monitor_handles>
    8264:	e3b00015 	movs	r0, #21
    8268:	e59f10c4 	ldr	r1, [pc, #196]	; 8334 <_mainCRTStartup+0x148>
    826c:	ef123456 	svc	0x00123456
    8270:	e59f10bc 	ldr	r1, [pc, #188]	; 8334 <_mainCRTStartup+0x148>
    8274:	e5911000 	ldr	r1, [r1]
    8278:	e3b00000 	movs	r0, #0
    827c:	e92d0001 	stmfd	sp!, {r0}
    8280:	e4d13001 	ldrb	r3, [r1], #1
    8284:	e3530000 	cmp	r3, #0
    8288:	0a000011 	beq	82d4 <_mainCRTStartup+0xe8>
    828c:	e3530020 	cmp	r3, #32
    8290:	0afffffa 	beq	8280 <_mainCRTStartup+0x94>
    8294:	e3530022 	cmp	r3, #34	; 0x22
    8298:	13530027 	cmpne	r3, #39	; 0x27
    829c:	01a02003 	moveq	r2, r3
    82a0:	13a02020 	movne	r2, #32
    82a4:	12411001 	subne	r1, r1, #1
    82a8:	e92d0002 	stmfd	sp!, {r1}
    82ac:	e2900001 	adds	r0, r0, #1
    82b0:	e4d13001 	ldrb	r3, [r1], #1
    82b4:	e3530000 	cmp	r3, #0
    82b8:	0a000005 	beq	82d4 <_mainCRTStartup+0xe8>
    82bc:	e1520003 	cmp	r2, r3
    82c0:	1afffffa 	bne	82b0 <_mainCRTStartup+0xc4>
    82c4:	e3b02000 	movs	r2, #0
    82c8:	e2513001 	subs	r3, r1, #1
    82cc:	e5c32000 	strb	r2, [r3]
    82d0:	eaffffea 	b	8280 <_mainCRTStartup+0x94>
    82d4:	e1a0100d 	mov	r1, sp
    82d8:	e08d2100 	add	r2, sp, r0, lsl #2
    82dc:	e1a0300d 	mov	r3, sp
    82e0:	e1520003 	cmp	r2, r3
    82e4:	85124004 	ldrhi	r4, [r2, #-4]
    82e8:	85935000 	ldrhi	r5, [r3]
    82ec:	85225004 	strhi	r5, [r2, #-4]!
    82f0:	84834004 	strhi	r4, [r3], #4
    82f4:	8afffff9 	bhi	82e0 <_mainCRTStartup+0xf4>
    82f8:	e3cdd007 	bic	sp, sp, #7
    82fc:	e1b04000 	movs	r4, r0
    8300:	e1b05001 	movs	r5, r1
    8304:	e59f0024 	ldr	r0, [pc, #36]	; 8330 <_mainCRTStartup+0x144>
    8308:	eb000014 	bl	8360 <atexit>
    830c:	eb000035 	bl	83e8 <__libc_init_array>
    8310:	e1b00004 	movs	r0, r4
    8314:	e1b01005 	movs	r1, r5
    8318:	eb000008 	bl	8340 <main>
    831c:	eb000014 	bl	8374 <exit>
    8320:	0001bf5c 	.word	0x0001bf5c
    8324:	00000000 	.word	0x00000000
    8328:	0001c8b4 	.word	0x0001c8b4
    832c:	0001c9bc 	.word	0x0001c9bc
    8330:	000083a8 	.word	0x000083a8
    8334:	0001c06c 	.word	0x0001c06c
    8338:	0001c9bc 	.word	0x0001c9bc
    833c:	0001c49c 	.word	0x0001c49c

00008340 <main>:
    8340:	e92d4800 	push	{fp, lr}
    8344:	e28db004 	add	fp, sp, #4
    8348:	e59f000c 	ldr	r0, [pc, #12]	; 835c <main+0x1c>
    834c:	eb0000b6 	bl	862c <puts>
    8350:	e3a03000 	mov	r3, #0
    8354:	e1a00003 	mov	r0, r3
    8358:	e8bd8800 	pop	{fp, pc}
    835c:	0000bf20 	.word	0x0000bf20

00008360 <atexit>:
    8360:	e3a03000 	mov	r3, #0
    8364:	e1a01000 	mov	r1, r0
    8368:	e1a02003 	mov	r2, r3
    836c:	e1a00003 	mov	r0, r3
    8370:	ea0003dd 	b	92ec <__register_exitproc>

00008374 <exit>:
    8374:	e3a01000 	mov	r1, #0
    8378:	e52de004 	push	{lr}		; (str lr, [sp, #-4]!)
    837c:	e1a04000 	mov	r4, r0
    8380:	eb0003fa 	bl	9370 <__call_exitprocs>
    8384:	e59f3018 	ldr	r3, [pc, #24]	; 83a4 <exit+0x30>
    8388:	e5930000 	ldr	r0, [r3]
    838c:	e590303c 	ldr	r3, [r0, #60]	; 0x3c
    8390:	e3530000 	cmp	r3, #0
    8394:	11a0e00f 	movne	lr, pc
    8398:	112fff13 	bxne	r3
    839c:	e1a00004 	mov	r0, r4
    83a0:	eb0002ad 	bl	8e5c <_exit>
    83a4:	0000bf2c 	.word	0x0000bf2c

000083a8 <__libc_fini_array>:
    83a8:	e92d4030 	push	{r4, r5, lr}
    83ac:	e59f502c 	ldr	r5, [pc, #44]	; 83e0 <__libc_fini_array+0x38>
    83b0:	e59f402c 	ldr	r4, [pc, #44]	; 83e4 <__libc_fini_array+0x3c>
    83b4:	e0454004 	sub	r4, r5, r4
    83b8:	e1b04144 	asrs	r4, r4, #2
    83bc:	0a000005 	beq	83d8 <__libc_fini_array+0x30>
    83c0:	e5353004 	ldr	r3, [r5, #-4]!
    83c4:	e2444001 	sub	r4, r4, #1
    83c8:	e1a0e00f 	mov	lr, pc
    83cc:	e12fff13 	bx	r3
    83d0:	e3540000 	cmp	r4, #0
    83d4:	1afffff9 	bne	83c0 <__libc_fini_array+0x18>
    83d8:	e8bd4030 	pop	{r4, r5, lr}
    83dc:	ea000ec8 	b	bf04 <_fini>
    83e0:	0001bf44 	.word	0x0001bf44
    83e4:	0001bf44 	.word	0x0001bf44

000083e8 <__libc_init_array>:
    83e8:	e92d4070 	push	{r4, r5, r6, lr}
    83ec:	e59f6068 	ldr	r6, [pc, #104]	; 845c <__libc_init_array+0x74>
    83f0:	e59f5068 	ldr	r5, [pc, #104]	; 8460 <__libc_init_array+0x78>
    83f4:	e0466005 	sub	r6, r6, r5
    83f8:	e1b06146 	asrs	r6, r6, #2
    83fc:	0a000007 	beq	8420 <__libc_init_array+0x38>
    8400:	e3a04000 	mov	r4, #0
    8404:	e2455004 	sub	r5, r5, #4
    8408:	e5b53004 	ldr	r3, [r5, #4]!
    840c:	e2844001 	add	r4, r4, #1
    8410:	e1a0e00f 	mov	lr, pc
    8414:	e12fff13 	bx	r3
    8418:	e1560004 	cmp	r6, r4
    841c:	1afffff9 	bne	8408 <__libc_init_array+0x20>
    8420:	e59f603c 	ldr	r6, [pc, #60]	; 8464 <__libc_init_array+0x7c>
    8424:	e59f503c 	ldr	r5, [pc, #60]	; 8468 <__libc_init_array+0x80>
    8428:	e0466005 	sub	r6, r6, r5
    842c:	ebfffef3 	bl	8000 <_init>
    8430:	e1b06146 	asrs	r6, r6, #2
    8434:	08bd8070 	popeq	{r4, r5, r6, pc}
    8438:	e3a04000 	mov	r4, #0
    843c:	e2455004 	sub	r5, r5, #4
    8440:	e5b53004 	ldr	r3, [r5, #4]!
    8444:	e2844001 	add	r4, r4, #1
    8448:	e1a0e00f 	mov	lr, pc
    844c:	e12fff13 	bx	r3
    8450:	e1560004 	cmp	r6, r4
    8454:	1afffff9 	bne	8440 <__libc_init_array+0x58>
    8458:	e8bd8070 	pop	{r4, r5, r6, pc}
    845c:	0001bf44 	.word	0x0001bf44
    8460:	0001bf44 	.word	0x0001bf44
    8464:	0001bf44 	.word	0x0001bf44
    8468:	0001bf44 	.word	0x0001bf44

0000846c <memset>:
    846c:	e3100003 	tst	r0, #3
    8470:	0a00003f 	beq	8574 <memset+0x108>
    8474:	e3520000 	cmp	r2, #0
    8478:	e2422001 	sub	r2, r2, #1
    847c:	012fff1e 	bxeq	lr
    8480:	e1a03000 	mov	r3, r0
    8484:	e201c0ff 	and	ip, r1, #255	; 0xff
    8488:	ea000002 	b	8498 <memset+0x2c>
    848c:	e2422001 	sub	r2, r2, #1
    8490:	e3720001 	cmn	r2, #1
    8494:	012fff1e 	bxeq	lr
    8498:	e4c3c001 	strb	ip, [r3], #1
    849c:	e3130003 	tst	r3, #3
    84a0:	1afffff9 	bne	848c <memset+0x20>
    84a4:	e3520003 	cmp	r2, #3
    84a8:	9a000027 	bls	854c <memset+0xe0>
    84ac:	e92d4030 	push	{r4, r5, lr}
    84b0:	e201e0ff 	and	lr, r1, #255	; 0xff
    84b4:	e18ee40e 	orr	lr, lr, lr, lsl #8
    84b8:	e352000f 	cmp	r2, #15
    84bc:	e18ee80e 	orr	lr, lr, lr, lsl #16
    84c0:	9a00002d 	bls	857c <memset+0x110>
    84c4:	e242c010 	sub	ip, r2, #16
    84c8:	e3cc400f 	bic	r4, ip, #15
    84cc:	e2835020 	add	r5, r3, #32
    84d0:	e0855004 	add	r5, r5, r4
    84d4:	e1a0422c 	lsr	r4, ip, #4
    84d8:	e283c010 	add	ip, r3, #16
    84dc:	e50ce010 	str	lr, [ip, #-16]
    84e0:	e50ce00c 	str	lr, [ip, #-12]
    84e4:	e50ce008 	str	lr, [ip, #-8]
    84e8:	e50ce004 	str	lr, [ip, #-4]
    84ec:	e28cc010 	add	ip, ip, #16
    84f0:	e15c0005 	cmp	ip, r5
    84f4:	1afffff8 	bne	84dc <memset+0x70>
    84f8:	e284c001 	add	ip, r4, #1
    84fc:	e312000c 	tst	r2, #12
    8500:	e083c20c 	add	ip, r3, ip, lsl #4
    8504:	e202200f 	and	r2, r2, #15
    8508:	0a000017 	beq	856c <memset+0x100>
    850c:	e2423004 	sub	r3, r2, #4
    8510:	e3c33003 	bic	r3, r3, #3
    8514:	e2833004 	add	r3, r3, #4
    8518:	e08c3003 	add	r3, ip, r3
    851c:	e48ce004 	str	lr, [ip], #4
    8520:	e153000c 	cmp	r3, ip
    8524:	1afffffc 	bne	851c <memset+0xb0>
    8528:	e2022003 	and	r2, r2, #3
    852c:	e3520000 	cmp	r2, #0
    8530:	08bd8030 	popeq	{r4, r5, pc}
    8534:	e20110ff 	and	r1, r1, #255	; 0xff
    8538:	e0832002 	add	r2, r3, r2
    853c:	e4c31001 	strb	r1, [r3], #1
    8540:	e1520003 	cmp	r2, r3
    8544:	1afffffc 	bne	853c <memset+0xd0>
    8548:	e8bd8030 	pop	{r4, r5, pc}
    854c:	e3520000 	cmp	r2, #0
    8550:	012fff1e 	bxeq	lr
    8554:	e20110ff 	and	r1, r1, #255	; 0xff
    8558:	e0832002 	add	r2, r3, r2
    855c:	e4c31001 	strb	r1, [r3], #1
    8560:	e1520003 	cmp	r2, r3
    8564:	1afffffc 	bne	855c <memset+0xf0>
    8568:	e12fff1e 	bx	lr
    856c:	e1a0300c 	mov	r3, ip
    8570:	eaffffed 	b	852c <memset+0xc0>
    8574:	e1a03000 	mov	r3, r0
    8578:	eaffffc9 	b	84a4 <memset+0x38>
    857c:	e1a0c003 	mov	ip, r3
    8580:	eaffffe1 	b	850c <memset+0xa0>

00008584 <_puts_r>:
    8584:	e92d4030 	push	{r4, r5, lr}
    8588:	e1a04000 	mov	r4, r0
    858c:	e24dd01c 	sub	sp, sp, #28
    8590:	e1a00001 	mov	r0, r1
    8594:	e1a05001 	mov	r5, r1
    8598:	eb000028 	bl	8640 <strlen>
    859c:	e3a02001 	mov	r2, #1
    85a0:	e3a03002 	mov	r3, #2
    85a4:	e59f107c 	ldr	r1, [pc, #124]	; 8628 <_puts_r+0xa4>
    85a8:	e58d1014 	str	r1, [sp, #20]
    85ac:	e5941038 	ldr	r1, [r4, #56]	; 0x38
    85b0:	e58d3004 	str	r3, [sp, #4]
    85b4:	e3510000 	cmp	r1, #0
    85b8:	e0803002 	add	r3, r0, r2
    85bc:	e28d100c 	add	r1, sp, #12
    85c0:	e58d500c 	str	r5, [sp, #12]
    85c4:	e58d1000 	str	r1, [sp]
    85c8:	e5945008 	ldr	r5, [r4, #8]
    85cc:	e58d2018 	str	r2, [sp, #24]
    85d0:	e58d0010 	str	r0, [sp, #16]
    85d4:	e58d3008 	str	r3, [sp, #8]
    85d8:	0a00000f 	beq	861c <_puts_r+0x98>
    85dc:	e1d530fc 	ldrsh	r3, [r5, #12]
    85e0:	e3130a02 	tst	r3, #8192	; 0x2000
    85e4:	05952064 	ldreq	r2, [r5, #100]	; 0x64
    85e8:	03833a02 	orreq	r3, r3, #8192	; 0x2000
    85ec:	03c22a02 	biceq	r2, r2, #8192	; 0x2000
    85f0:	05852064 	streq	r2, [r5, #100]	; 0x64
    85f4:	01c530bc 	strheq	r3, [r5, #12]
    85f8:	e1a01005 	mov	r1, r5
    85fc:	e1a00004 	mov	r0, r4
    8600:	e1a0200d 	mov	r2, sp
    8604:	eb000468 	bl	97ac <__sfvwrite_r>
    8608:	e3500000 	cmp	r0, #0
    860c:	13e00000 	mvnne	r0, #0
    8610:	03a0000a 	moveq	r0, #10
    8614:	e28dd01c 	add	sp, sp, #28
    8618:	e8bd8030 	pop	{r4, r5, pc}
    861c:	e1a00004 	mov	r0, r4
    8620:	eb00044d 	bl	975c <__sinit>
    8624:	eaffffec 	b	85dc <_puts_r+0x58>
    8628:	0000bf30 	.word	0x0000bf30

0000862c <puts>:
    862c:	e59f3008 	ldr	r3, [pc, #8]	; 863c <puts+0x10>
    8630:	e1a01000 	mov	r1, r0
    8634:	e5930000 	ldr	r0, [r3]
    8638:	eaffffd1 	b	8584 <_puts_r>
    863c:	0001c074 	.word	0x0001c074

00008640 <strlen>:
    8640:	e3c01003 	bic	r1, r0, #3
    8644:	e2100003 	ands	r0, r0, #3
    8648:	e2600000 	rsb	r0, r0, #0
    864c:	e4913004 	ldr	r3, [r1], #4
    8650:	e280c004 	add	ip, r0, #4
    8654:	e1a0c18c 	lsl	ip, ip, #3
    8658:	e3e02000 	mvn	r2, #0
    865c:	11833c32 	orrne	r3, r3, r2, lsr ip
    8660:	e3a0c001 	mov	ip, #1
    8664:	e18cc40c 	orr	ip, ip, ip, lsl #8
    8668:	e18cc80c 	orr	ip, ip, ip, lsl #16
    866c:	e043200c 	sub	r2, r3, ip
    8670:	e1c22003 	bic	r2, r2, r3
    8674:	e012238c 	ands	r2, r2, ip, lsl #7
    8678:	04913004 	ldreq	r3, [r1], #4
    867c:	02800004 	addeq	r0, r0, #4
    8680:	0afffff9 	beq	866c <strlen+0x2c>
    8684:	e31300ff 	tst	r3, #255	; 0xff
    8688:	12800001 	addne	r0, r0, #1
    868c:	13130cff 	tstne	r3, #65280	; 0xff00
    8690:	12800001 	addne	r0, r0, #1
    8694:	131308ff 	tstne	r3, #16711680	; 0xff0000
    8698:	12800001 	addne	r0, r0, #1
    869c:	e12fff1e 	bx	lr

000086a0 <remap_handle>:
    86a0:	e59f3068 	ldr	r3, [pc, #104]	; 8710 <remap_handle+0x70>
    86a4:	e5933000 	ldr	r3, [r3]
    86a8:	e3530000 	cmp	r3, #0
    86ac:	e92d4010 	push	{r4, lr}
    86b0:	e1a04000 	mov	r4, r0
    86b4:	0a000002 	beq	86c4 <remap_handle+0x24>
    86b8:	e5932038 	ldr	r2, [r3, #56]	; 0x38
    86bc:	e3520000 	cmp	r2, #0
    86c0:	0a000008 	beq	86e8 <remap_handle+0x48>
    86c4:	e3540000 	cmp	r4, #0
    86c8:	0a00000a 	beq	86f8 <remap_handle+0x58>
    86cc:	e3540001 	cmp	r4, #1
    86d0:	0a00000b 	beq	8704 <remap_handle+0x64>
    86d4:	e3540002 	cmp	r4, #2
    86d8:	059f3034 	ldreq	r3, [pc, #52]	; 8714 <remap_handle+0x74>
    86dc:	05930008 	ldreq	r0, [r3, #8]
    86e0:	12440020 	subne	r0, r4, #32
    86e4:	e8bd8010 	pop	{r4, pc}
    86e8:	e1a00003 	mov	r0, r3
    86ec:	eb00041a 	bl	975c <__sinit>
    86f0:	e3540000 	cmp	r4, #0
    86f4:	1afffff4 	bne	86cc <remap_handle+0x2c>
    86f8:	e59f3014 	ldr	r3, [pc, #20]	; 8714 <remap_handle+0x74>
    86fc:	e5930000 	ldr	r0, [r3]
    8700:	e8bd8010 	pop	{r4, pc}
    8704:	e59f3008 	ldr	r3, [pc, #8]	; 8714 <remap_handle+0x74>
    8708:	e5930004 	ldr	r0, [r3, #4]
    870c:	e8bd8010 	pop	{r4, pc}
    8710:	0001c074 	.word	0x0001c074
    8714:	0001c8d4 	.word	0x0001c8d4

00008718 <initialise_monitor_handles>:
    8718:	e92d43f0 	push	{r4, r5, r6, r7, r8, r9, lr}
    871c:	e3a05003 	mov	r5, #3
    8720:	e3a04000 	mov	r4, #0
    8724:	e59f8090 	ldr	r8, [pc, #144]	; 87bc <initialise_monitor_handles+0xa4>
    8728:	e24dd00c 	sub	sp, sp, #12
    872c:	e58d8000 	str	r8, [sp]
    8730:	e3a06001 	mov	r6, #1
    8734:	e58d5008 	str	r5, [sp, #8]
    8738:	e1a0700d 	mov	r7, sp
    873c:	e58d4004 	str	r4, [sp, #4]
    8740:	e1a00006 	mov	r0, r6
    8744:	e1a01007 	mov	r1, r7
    8748:	ef123456 	svc	0x00123456
    874c:	e1a09000 	mov	r9, r0
    8750:	e3a03004 	mov	r3, #4
    8754:	e58d8000 	str	r8, [sp]
    8758:	e58d5008 	str	r5, [sp, #8]
    875c:	e59f505c 	ldr	r5, [pc, #92]	; 87c0 <initialise_monitor_handles+0xa8>
    8760:	e58d3004 	str	r3, [sp, #4]
    8764:	e5859000 	str	r9, [r5]
    8768:	e1a00006 	mov	r0, r6
    876c:	e1a01007 	mov	r1, r7
    8770:	ef123456 	svc	0x00123456
    8774:	e1a06000 	mov	r6, r0
    8778:	e3e01000 	mvn	r1, #0
    877c:	e1a03004 	mov	r3, r4
    8780:	e5856008 	str	r6, [r5, #8]
    8784:	e5856004 	str	r6, [r5, #4]
    8788:	e285200c 	add	r2, r5, #12
    878c:	e7821183 	str	r1, [r2, r3, lsl #3]
    8790:	e2833001 	add	r3, r3, #1
    8794:	e3530014 	cmp	r3, #20
    8798:	1afffffb 	bne	878c <initialise_monitor_handles+0x74>
    879c:	e3a03000 	mov	r3, #0
    87a0:	e5952000 	ldr	r2, [r5]
    87a4:	e5856014 	str	r6, [r5, #20]
    87a8:	e585200c 	str	r2, [r5, #12]
    87ac:	e5853010 	str	r3, [r5, #16]
    87b0:	e5853018 	str	r3, [r5, #24]
    87b4:	e28dd00c 	add	sp, sp, #12
    87b8:	e8bd83f0 	pop	{r4, r5, r6, r7, r8, r9, pc}
    87bc:	0000bf34 	.word	0x0000bf34
    87c0:	0001c8d4 	.word	0x0001c8d4

000087c4 <_swiread>:
    87c4:	e92d4070 	push	{r4, r5, r6, lr}
    87c8:	e59f3098 	ldr	r3, [pc, #152]	; 8868 <_swiread+0xa4>
    87cc:	e5933000 	ldr	r3, [r3]
    87d0:	e3530000 	cmp	r3, #0
    87d4:	e1a04000 	mov	r4, r0
    87d8:	e1a06001 	mov	r6, r1
    87dc:	e1a05002 	mov	r5, r2
    87e0:	e24dd00c 	sub	sp, sp, #12
    87e4:	0a000002 	beq	87f4 <_swiread+0x30>
    87e8:	e5932038 	ldr	r2, [r3, #56]	; 0x38
    87ec:	e3520000 	cmp	r2, #0
    87f0:	0a000012 	beq	8840 <_swiread+0x7c>
    87f4:	e3540000 	cmp	r4, #0
    87f8:	0a000014 	beq	8850 <_swiread+0x8c>
    87fc:	e3540001 	cmp	r4, #1
    8800:	0a000015 	beq	885c <_swiread+0x98>
    8804:	e3540002 	cmp	r4, #2
    8808:	059f305c 	ldreq	r3, [pc, #92]	; 886c <_swiread+0xa8>
    880c:	05934008 	ldreq	r4, [r3, #8]
    8810:	12444020 	subne	r4, r4, #32
    8814:	e88d0050 	stm	sp, {r4, r6}
    8818:	e58d5008 	str	r5, [sp, #8]
    881c:	e3a04006 	mov	r4, #6
    8820:	e1a0500d 	mov	r5, sp
    8824:	e1a00004 	mov	r0, r4
    8828:	e1a01005 	mov	r1, r5
    882c:	ef123456 	svc	0x00123456
    8830:	e1a04000 	mov	r4, r0
    8834:	e1a00004 	mov	r0, r4
    8838:	e28dd00c 	add	sp, sp, #12
    883c:	e8bd8070 	pop	{r4, r5, r6, pc}
    8840:	e1a00003 	mov	r0, r3
    8844:	eb0003c4 	bl	975c <__sinit>
    8848:	e3540000 	cmp	r4, #0
    884c:	1affffea 	bne	87fc <_swiread+0x38>
    8850:	e59f3014 	ldr	r3, [pc, #20]	; 886c <_swiread+0xa8>
    8854:	e5934000 	ldr	r4, [r3]
    8858:	eaffffed 	b	8814 <_swiread+0x50>
    885c:	e59f3008 	ldr	r3, [pc, #8]	; 886c <_swiread+0xa8>
    8860:	e5934004 	ldr	r4, [r3, #4]
    8864:	eaffffea 	b	8814 <_swiread+0x50>
    8868:	0001c074 	.word	0x0001c074
    886c:	0001c8d4 	.word	0x0001c8d4

00008870 <_read>:
    8870:	e92d40f0 	push	{r4, r5, r6, r7, lr}
    8874:	e24dd00c 	sub	sp, sp, #12
    8878:	e1a06000 	mov	r6, r0
    887c:	e1a07001 	mov	r7, r1
    8880:	e1a05002 	mov	r5, r2
    8884:	e3a04000 	mov	r4, #0
    8888:	ebffff84 	bl	86a0 <remap_handle>
    888c:	e59fc0a8 	ldr	ip, [pc, #168]	; 893c <_read+0xcc>
    8890:	ea000002 	b	88a0 <_read+0x30>
    8894:	e2844001 	add	r4, r4, #1
    8898:	e3540014 	cmp	r4, #20
    889c:	0a000002 	beq	88ac <_read+0x3c>
    88a0:	e79c3184 	ldr	r3, [ip, r4, lsl #3]
    88a4:	e1500003 	cmp	r0, r3
    88a8:	1afffff9 	bne	8894 <_read+0x24>
    88ac:	e1a00006 	mov	r0, r6
    88b0:	ebffff7a 	bl	86a0 <remap_handle>
    88b4:	e3a06006 	mov	r6, #6
    88b8:	e58d7004 	str	r7, [sp, #4]
    88bc:	e58d5008 	str	r5, [sp, #8]
    88c0:	e1a0700d 	mov	r7, sp
    88c4:	e58d0000 	str	r0, [sp]
    88c8:	e1a00006 	mov	r0, r6
    88cc:	e1a01007 	mov	r1, r7
    88d0:	ef123456 	svc	0x00123456
    88d4:	e1a06000 	mov	r6, r0
    88d8:	e3560000 	cmp	r6, #0
    88dc:	ba00000a 	blt	890c <_read+0x9c>
    88e0:	e3540014 	cmp	r4, #20
    88e4:	0a000005 	beq	8900 <_read+0x90>
    88e8:	e59f3050 	ldr	r3, [pc, #80]	; 8940 <_read+0xd0>
    88ec:	e0834184 	add	r4, r3, r4, lsl #3
    88f0:	e5943010 	ldr	r3, [r4, #16]
    88f4:	e0433006 	sub	r3, r3, r6
    88f8:	e0833005 	add	r3, r3, r5
    88fc:	e5843010 	str	r3, [r4, #16]
    8900:	e0450006 	sub	r0, r5, r6
    8904:	e28dd00c 	add	sp, sp, #12
    8908:	e8bd80f0 	pop	{r4, r5, r6, r7, pc}
    890c:	eb0002d9 	bl	9478 <__errno>
    8910:	e3a05013 	mov	r5, #19
    8914:	e3a06000 	mov	r6, #0
    8918:	e1a04000 	mov	r4, r0
    891c:	e1a00005 	mov	r0, r5
    8920:	e1a01006 	mov	r1, r6
    8924:	ef123456 	svc	0x00123456
    8928:	e1a05000 	mov	r5, r0
    892c:	e3e00000 	mvn	r0, #0
    8930:	e5845000 	str	r5, [r4]
    8934:	e28dd00c 	add	sp, sp, #12
    8938:	e8bd80f0 	pop	{r4, r5, r6, r7, pc}
    893c:	0001c8e0 	.word	0x0001c8e0
    8940:	0001c8d4 	.word	0x0001c8d4

00008944 <_swilseek>:
    8944:	e92d47f0 	push	{r4, r5, r6, r7, r8, r9, sl, lr}
    8948:	e59f70f4 	ldr	r7, [pc, #244]	; 8a44 <_swilseek+0x100>
    894c:	e24dd008 	sub	sp, sp, #8
    8950:	e1a06000 	mov	r6, r0
    8954:	e1a05001 	mov	r5, r1
    8958:	e1a08002 	mov	r8, r2
    895c:	e3a04000 	mov	r4, #0
    8960:	ebffff4e 	bl	86a0 <remap_handle>
    8964:	e287c00c 	add	ip, r7, #12
    8968:	ea000002 	b	8978 <_swilseek+0x34>
    896c:	e2844001 	add	r4, r4, #1
    8970:	e3540014 	cmp	r4, #20
    8974:	0a000020 	beq	89fc <_swilseek+0xb8>
    8978:	e79c3184 	ldr	r3, [ip, r4, lsl #3]
    897c:	e1500003 	cmp	r0, r3
    8980:	1afffff9 	bne	896c <_swilseek+0x28>
    8984:	e3580001 	cmp	r8, #1
    8988:	13a0a001 	movne	sl, #1
    898c:	1a00001d 	bne	8a08 <_swilseek+0xc4>
    8990:	e0873184 	add	r3, r7, r4, lsl #3
    8994:	e3550000 	cmp	r5, #0
    8998:	e5939010 	ldr	r9, [r3, #16]
    899c:	0a000013 	beq	89f0 <_swilseek+0xac>
    89a0:	e1a0a008 	mov	sl, r8
    89a4:	e1a0800d 	mov	r8, sp
    89a8:	e0899005 	add	r9, r9, r5
    89ac:	e1a00006 	mov	r0, r6
    89b0:	ebffff3a 	bl	86a0 <remap_handle>
    89b4:	e3a0500a 	mov	r5, #10
    89b8:	e88d0201 	stm	sp, {r0, r9}
    89bc:	e1a00005 	mov	r0, r5
    89c0:	e1a01008 	mov	r1, r8
    89c4:	ef123456 	svc	0x00123456
    89c8:	e1a05000 	mov	r5, r0
    89cc:	e3550000 	cmp	r5, #0
    89d0:	13a0a000 	movne	sl, #0
    89d4:	020aa001 	andeq	sl, sl, #1
    89d8:	e35a0000 	cmp	sl, #0
    89dc:	10874184 	addne	r4, r7, r4, lsl #3
    89e0:	15849010 	strne	r9, [r4, #16]
    89e4:	1a000001 	bne	89f0 <_swilseek+0xac>
    89e8:	e3550000 	cmp	r5, #0
    89ec:	1a000012 	bne	8a3c <_swilseek+0xf8>
    89f0:	e1a00009 	mov	r0, r9
    89f4:	e28dd008 	add	sp, sp, #8
    89f8:	e8bd87f0 	pop	{r4, r5, r6, r7, r8, r9, sl, pc}
    89fc:	e3580001 	cmp	r8, #1
    8a00:	0a00000d 	beq	8a3c <_swilseek+0xf8>
    8a04:	e3a0a000 	mov	sl, #0
    8a08:	e3580002 	cmp	r8, #2
    8a0c:	11a09005 	movne	r9, r5
    8a10:	11a0800d 	movne	r8, sp
    8a14:	1affffe4 	bne	89ac <_swilseek+0x68>
    8a18:	e3a0900c 	mov	r9, #12
    8a1c:	e1a0800d 	mov	r8, sp
    8a20:	e58d0000 	str	r0, [sp]
    8a24:	e1a00009 	mov	r0, r9
    8a28:	e1a01008 	mov	r1, r8
    8a2c:	ef123456 	svc	0x00123456
    8a30:	e1a09000 	mov	r9, r0
    8a34:	e0859009 	add	r9, r5, r9
    8a38:	eaffffdb 	b	89ac <_swilseek+0x68>
    8a3c:	e3e09000 	mvn	r9, #0
    8a40:	eaffffea 	b	89f0 <_swilseek+0xac>
    8a44:	0001c8d4 	.word	0x0001c8d4

00008a48 <_lseek>:
    8a48:	e92d40f0 	push	{r4, r5, r6, r7, lr}
    8a4c:	ebffffbc 	bl	8944 <_swilseek>
    8a50:	e3700001 	cmn	r0, #1
    8a54:	e1a04000 	mov	r4, r0
    8a58:	0a000001 	beq	8a64 <_lseek+0x1c>
    8a5c:	e1a00004 	mov	r0, r4
    8a60:	e8bd80f0 	pop	{r4, r5, r6, r7, pc}
    8a64:	eb000283 	bl	9478 <__errno>
    8a68:	e3a06013 	mov	r6, #19
    8a6c:	e3a07000 	mov	r7, #0
    8a70:	e1a05000 	mov	r5, r0
    8a74:	e1a00006 	mov	r0, r6
    8a78:	e1a01007 	mov	r1, r7
    8a7c:	ef123456 	svc	0x00123456
    8a80:	e1a06000 	mov	r6, r0
    8a84:	e1a00004 	mov	r0, r4
    8a88:	e5856000 	str	r6, [r5]
    8a8c:	e8bd80f0 	pop	{r4, r5, r6, r7, pc}

00008a90 <_swiwrite>:
    8a90:	e92d4070 	push	{r4, r5, r6, lr}
    8a94:	e59f3098 	ldr	r3, [pc, #152]	; 8b34 <_swiwrite+0xa4>
    8a98:	e5933000 	ldr	r3, [r3]
    8a9c:	e3530000 	cmp	r3, #0
    8aa0:	e1a04000 	mov	r4, r0
    8aa4:	e1a06001 	mov	r6, r1
    8aa8:	e1a05002 	mov	r5, r2
    8aac:	e24dd00c 	sub	sp, sp, #12
    8ab0:	0a000002 	beq	8ac0 <_swiwrite+0x30>
    8ab4:	e5932038 	ldr	r2, [r3, #56]	; 0x38
    8ab8:	e3520000 	cmp	r2, #0
    8abc:	0a000012 	beq	8b0c <_swiwrite+0x7c>
    8ac0:	e3540000 	cmp	r4, #0
    8ac4:	0a000014 	beq	8b1c <_swiwrite+0x8c>
    8ac8:	e3540001 	cmp	r4, #1
    8acc:	0a000015 	beq	8b28 <_swiwrite+0x98>
    8ad0:	e3540002 	cmp	r4, #2
    8ad4:	059f305c 	ldreq	r3, [pc, #92]	; 8b38 <_swiwrite+0xa8>
    8ad8:	05934008 	ldreq	r4, [r3, #8]
    8adc:	12444020 	subne	r4, r4, #32
    8ae0:	e88d0050 	stm	sp, {r4, r6}
    8ae4:	e58d5008 	str	r5, [sp, #8]
    8ae8:	e3a04005 	mov	r4, #5
    8aec:	e1a0500d 	mov	r5, sp
    8af0:	e1a00004 	mov	r0, r4
    8af4:	e1a01005 	mov	r1, r5
    8af8:	ef123456 	svc	0x00123456
    8afc:	e1a04000 	mov	r4, r0
    8b00:	e1a00004 	mov	r0, r4
    8b04:	e28dd00c 	add	sp, sp, #12
    8b08:	e8bd8070 	pop	{r4, r5, r6, pc}
    8b0c:	e1a00003 	mov	r0, r3
    8b10:	eb000311 	bl	975c <__sinit>
    8b14:	e3540000 	cmp	r4, #0
    8b18:	1affffea 	bne	8ac8 <_swiwrite+0x38>
    8b1c:	e59f3014 	ldr	r3, [pc, #20]	; 8b38 <_swiwrite+0xa8>
    8b20:	e5934000 	ldr	r4, [r3]
    8b24:	eaffffed 	b	8ae0 <_swiwrite+0x50>
    8b28:	e59f3008 	ldr	r3, [pc, #8]	; 8b38 <_swiwrite+0xa8>
    8b2c:	e5934004 	ldr	r4, [r3, #4]
    8b30:	eaffffea 	b	8ae0 <_swiwrite+0x50>
    8b34:	0001c074 	.word	0x0001c074
    8b38:	0001c8d4 	.word	0x0001c8d4

00008b3c <_write>:
    8b3c:	e92d40f0 	push	{r4, r5, r6, r7, lr}
    8b40:	e24dd00c 	sub	sp, sp, #12
    8b44:	e1a06000 	mov	r6, r0
    8b48:	e1a07001 	mov	r7, r1
    8b4c:	e1a05002 	mov	r5, r2
    8b50:	e3a04000 	mov	r4, #0
    8b54:	ebfffed1 	bl	86a0 <remap_handle>
    8b58:	e59fc0ac 	ldr	ip, [pc, #172]	; 8c0c <_write+0xd0>
    8b5c:	ea000002 	b	8b6c <_write+0x30>
    8b60:	e2844001 	add	r4, r4, #1
    8b64:	e3540014 	cmp	r4, #20
    8b68:	0a000002 	beq	8b78 <_write+0x3c>
    8b6c:	e79c3184 	ldr	r3, [ip, r4, lsl #3]
    8b70:	e1500003 	cmp	r0, r3
    8b74:	1afffff9 	bne	8b60 <_write+0x24>
    8b78:	e1a00006 	mov	r0, r6
    8b7c:	ebfffec7 	bl	86a0 <remap_handle>
    8b80:	e3a06005 	mov	r6, #5
    8b84:	e58d7004 	str	r7, [sp, #4]
    8b88:	e58d5008 	str	r5, [sp, #8]
    8b8c:	e1a0700d 	mov	r7, sp
    8b90:	e58d0000 	str	r0, [sp]
    8b94:	e1a00006 	mov	r0, r6
    8b98:	e1a01007 	mov	r1, r7
    8b9c:	ef123456 	svc	0x00123456
    8ba0:	e1a06000 	mov	r6, r0
    8ba4:	e3760001 	cmn	r6, #1
    8ba8:	11550006 	cmpne	r5, r6
    8bac:	0a00000a 	beq	8bdc <_write+0xa0>
    8bb0:	e3540014 	cmp	r4, #20
    8bb4:	0a000005 	beq	8bd0 <_write+0x94>
    8bb8:	e59f3050 	ldr	r3, [pc, #80]	; 8c10 <_write+0xd4>
    8bbc:	e0834184 	add	r4, r3, r4, lsl #3
    8bc0:	e5943010 	ldr	r3, [r4, #16]
    8bc4:	e0433006 	sub	r3, r3, r6
    8bc8:	e0833005 	add	r3, r3, r5
    8bcc:	e5843010 	str	r3, [r4, #16]
    8bd0:	e0450006 	sub	r0, r5, r6
    8bd4:	e28dd00c 	add	sp, sp, #12
    8bd8:	e8bd80f0 	pop	{r4, r5, r6, r7, pc}
    8bdc:	eb000225 	bl	9478 <__errno>
    8be0:	e3a05013 	mov	r5, #19
    8be4:	e3a06000 	mov	r6, #0
    8be8:	e1a04000 	mov	r4, r0
    8bec:	e1a00005 	mov	r0, r5
    8bf0:	e1a01006 	mov	r1, r6
    8bf4:	ef123456 	svc	0x00123456
    8bf8:	e1a05000 	mov	r5, r0
    8bfc:	e3e00000 	mvn	r0, #0
    8c00:	e5845000 	str	r5, [r4]
    8c04:	e28dd00c 	add	sp, sp, #12
    8c08:	e8bd80f0 	pop	{r4, r5, r6, r7, pc}
    8c0c:	0001c8e0 	.word	0x0001c8e0
    8c10:	0001c8d4 	.word	0x0001c8d4

00008c14 <_swiopen>:
    8c14:	e92d40f0 	push	{r4, r5, r6, r7, lr}
    8c18:	e59f20e0 	ldr	r2, [pc, #224]	; 8d00 <_swiopen+0xec>
    8c1c:	e3a04000 	mov	r4, #0
    8c20:	e24dd00c 	sub	sp, sp, #12
    8c24:	ea000002 	b	8c34 <_swiopen+0x20>
    8c28:	e2844001 	add	r4, r4, #1
    8c2c:	e3540014 	cmp	r4, #20
    8c30:	0a000022 	beq	8cc0 <_swiopen+0xac>
    8c34:	e7923184 	ldr	r3, [r2, r4, lsl #3]
    8c38:	e3730001 	cmn	r3, #1
    8c3c:	1afffff9 	bne	8c28 <_swiopen+0x14>
    8c40:	e1a05821 	lsr	r5, r1, #16
    8c44:	e2055001 	and	r5, r5, #1
    8c48:	e3110002 	tst	r1, #2
    8c4c:	13855002 	orrne	r5, r5, #2
    8c50:	e3110c02 	tst	r1, #512	; 0x200
    8c54:	13855004 	orrne	r5, r5, #4
    8c58:	e3110b01 	tst	r1, #1024	; 0x400
    8c5c:	13855004 	orrne	r5, r5, #4
    8c60:	e3110008 	tst	r1, #8
    8c64:	13c55004 	bicne	r5, r5, #4
    8c68:	13855008 	orrne	r5, r5, #8
    8c6c:	e58d0000 	str	r0, [sp]
    8c70:	ebfffe72 	bl	8640 <strlen>
    8c74:	e3a06001 	mov	r6, #1
    8c78:	e58d5004 	str	r5, [sp, #4]
    8c7c:	e58d0008 	str	r0, [sp, #8]
    8c80:	e1a0500d 	mov	r5, sp
    8c84:	e1a00006 	mov	r0, r6
    8c88:	e1a01005 	mov	r1, r5
    8c8c:	ef123456 	svc	0x00123456
    8c90:	e1a05000 	mov	r5, r0
    8c94:	e3550000 	cmp	r5, #0
    8c98:	ba00000c 	blt	8cd0 <_swiopen+0xbc>
    8c9c:	e59f3060 	ldr	r3, [pc, #96]	; 8d04 <_swiopen+0xf0>
    8ca0:	e0834184 	add	r4, r3, r4, lsl #3
    8ca4:	e584500c 	str	r5, [r4, #12]
    8ca8:	e2855020 	add	r5, r5, #32
    8cac:	e3a02000 	mov	r2, #0
    8cb0:	e1a00005 	mov	r0, r5
    8cb4:	e5842010 	str	r2, [r4, #16]
    8cb8:	e28dd00c 	add	sp, sp, #12
    8cbc:	e8bd80f0 	pop	{r4, r5, r6, r7, pc}
    8cc0:	e3e05000 	mvn	r5, #0
    8cc4:	e1a00005 	mov	r0, r5
    8cc8:	e28dd00c 	add	sp, sp, #12
    8ccc:	e8bd80f0 	pop	{r4, r5, r6, r7, pc}
    8cd0:	eb0001e8 	bl	9478 <__errno>
    8cd4:	e3a06013 	mov	r6, #19
    8cd8:	e3a07000 	mov	r7, #0
    8cdc:	e1a04000 	mov	r4, r0
    8ce0:	e1a00006 	mov	r0, r6
    8ce4:	e1a01007 	mov	r1, r7
    8ce8:	ef123456 	svc	0x00123456
    8cec:	e1a06000 	mov	r6, r0
    8cf0:	e1a00005 	mov	r0, r5
    8cf4:	e5846000 	str	r6, [r4]
    8cf8:	e28dd00c 	add	sp, sp, #12
    8cfc:	e8bd80f0 	pop	{r4, r5, r6, r7, pc}
    8d00:	0001c8e0 	.word	0x0001c8e0
    8d04:	0001c8d4 	.word	0x0001c8d4

00008d08 <_open>:
    8d08:	e92d000e 	push	{r1, r2, r3}
    8d0c:	e92d40f0 	push	{r4, r5, r6, r7, lr}
    8d10:	e59d1014 	ldr	r1, [sp, #20]
    8d14:	ebffffbe 	bl	8c14 <_swiopen>
    8d18:	e3700001 	cmn	r0, #1
    8d1c:	e1a04000 	mov	r4, r0
    8d20:	0a000003 	beq	8d34 <_open+0x2c>
    8d24:	e1a00004 	mov	r0, r4
    8d28:	e8bd40f0 	pop	{r4, r5, r6, r7, lr}
    8d2c:	e28dd00c 	add	sp, sp, #12
    8d30:	e12fff1e 	bx	lr
    8d34:	eb0001cf 	bl	9478 <__errno>
    8d38:	e3a06013 	mov	r6, #19
    8d3c:	e3a07000 	mov	r7, #0
    8d40:	e1a05000 	mov	r5, r0
    8d44:	e1a00006 	mov	r0, r6
    8d48:	e1a01007 	mov	r1, r7
    8d4c:	ef123456 	svc	0x00123456
    8d50:	e1a06000 	mov	r6, r0
    8d54:	e1a00004 	mov	r0, r4
    8d58:	e5856000 	str	r6, [r5]
    8d5c:	e8bd40f0 	pop	{r4, r5, r6, r7, lr}
    8d60:	e28dd00c 	add	sp, sp, #12
    8d64:	e12fff1e 	bx	lr

00008d68 <_swiclose>:
    8d68:	e92d4030 	push	{r4, r5, lr}
    8d6c:	e24dd004 	sub	sp, sp, #4
    8d70:	ebfffe4a 	bl	86a0 <remap_handle>
    8d74:	e59fc054 	ldr	ip, [pc, #84]	; 8dd0 <_swiclose+0x68>
    8d78:	e3a03000 	mov	r3, #0
    8d7c:	e58d0000 	str	r0, [sp]
    8d80:	e28c100c 	add	r1, ip, #12
    8d84:	ea000002 	b	8d94 <_swiclose+0x2c>
    8d88:	e2833001 	add	r3, r3, #1
    8d8c:	e3530014 	cmp	r3, #20
    8d90:	0a000005 	beq	8dac <_swiclose+0x44>
    8d94:	e7912183 	ldr	r2, [r1, r3, lsl #3]
    8d98:	e1500002 	cmp	r0, r2
    8d9c:	1afffff9 	bne	8d88 <_swiclose+0x20>
    8da0:	e3e02000 	mvn	r2, #0
    8da4:	e08c3183 	add	r3, ip, r3, lsl #3
    8da8:	e583200c 	str	r2, [r3, #12]
    8dac:	e3a04002 	mov	r4, #2
    8db0:	e1a0500d 	mov	r5, sp
    8db4:	e1a00004 	mov	r0, r4
    8db8:	e1a01005 	mov	r1, r5
    8dbc:	ef123456 	svc	0x00123456
    8dc0:	e1a04000 	mov	r4, r0
    8dc4:	e1a00004 	mov	r0, r4
    8dc8:	e28dd004 	add	sp, sp, #4
    8dcc:	e8bd8030 	pop	{r4, r5, pc}
    8dd0:	0001c8d4 	.word	0x0001c8d4

00008dd4 <_close>:
    8dd4:	e92d40f0 	push	{r4, r5, r6, r7, lr}
    8dd8:	ebffffe2 	bl	8d68 <_swiclose>
    8ddc:	e3700001 	cmn	r0, #1
    8de0:	e1a04000 	mov	r4, r0
    8de4:	0a000001 	beq	8df0 <_close+0x1c>
    8de8:	e1a00004 	mov	r0, r4
    8dec:	e8bd80f0 	pop	{r4, r5, r6, r7, pc}
    8df0:	eb0001a0 	bl	9478 <__errno>
    8df4:	e3a06013 	mov	r6, #19
    8df8:	e3a07000 	mov	r7, #0
    8dfc:	e1a05000 	mov	r5, r0
    8e00:	e1a00006 	mov	r0, r6
    8e04:	e1a01007 	mov	r1, r7
    8e08:	ef123456 	svc	0x00123456
    8e0c:	e1a06000 	mov	r6, r0
    8e10:	e1a00004 	mov	r0, r4
    8e14:	e5856000 	str	r6, [r5]
    8e18:	e8bd80f0 	pop	{r4, r5, r6, r7, pc}

00008e1c <_kill>:
    8e1c:	e3510006 	cmp	r1, #6
    8e20:	e3a04018 	mov	r4, #24
    8e24:	e52de004 	push	{lr}		; (str lr, [sp, #-4]!)
    8e28:	0a000004 	beq	8e40 <_kill+0x24>
    8e2c:	e59f5020 	ldr	r5, [pc, #32]	; 8e54 <_kill+0x38>
    8e30:	e1a00004 	mov	r0, r4
    8e34:	e1a01005 	mov	r1, r5
    8e38:	ef123456 	svc	0x00123456
    8e3c:	e1a04000 	mov	r4, r0
    8e40:	e59f5010 	ldr	r5, [pc, #16]	; 8e58 <_kill+0x3c>
    8e44:	e1a00004 	mov	r0, r4
    8e48:	e1a01005 	mov	r1, r5
    8e4c:	ef123456 	svc	0x00123456
    8e50:	e1a04000 	mov	r4, r0
    8e54:	00020026 	.word	0x00020026
    8e58:	00020023 	.word	0x00020023

00008e5c <_exit>:
    8e5c:	e52de004 	push	{lr}		; (str lr, [sp, #-4]!)
    8e60:	e3a04018 	mov	r4, #24
    8e64:	e59f500c 	ldr	r5, [pc, #12]	; 8e78 <_exit+0x1c>
    8e68:	e1a00004 	mov	r0, r4
    8e6c:	e1a01005 	mov	r1, r5
    8e70:	ef123456 	svc	0x00123456
    8e74:	e1a04000 	mov	r4, r0
    8e78:	00020026 	.word	0x00020026

00008e7c <_getpid>:
    8e7c:	e3a00001 	mov	r0, #1
    8e80:	e12fff1e 	bx	lr

00008e84 <_sbrk>:
    8e84:	e59f2064 	ldr	r2, [pc, #100]	; 8ef0 <_sbrk+0x6c>
    8e88:	e1a03000 	mov	r3, r0
    8e8c:	e59200ac 	ldr	r0, [r2, #172]	; 0xac
    8e90:	e52de004 	push	{lr}		; (str lr, [sp, #-4]!)
    8e94:	e3500000 	cmp	r0, #0
    8e98:	059f1054 	ldreq	r1, [pc, #84]	; 8ef4 <_sbrk+0x70>
    8e9c:	01a00001 	moveq	r0, r1
    8ea0:	058210ac 	streq	r1, [r2, #172]	; 0xac
    8ea4:	e1a0100d 	mov	r1, sp
    8ea8:	e0803003 	add	r3, r0, r3
    8eac:	e1530001 	cmp	r3, r1
    8eb0:	8a000008 	bhi	8ed8 <_sbrk+0x54>
    8eb4:	e59f103c 	ldr	r1, [pc, #60]	; 8ef8 <_sbrk+0x74>
    8eb8:	e59fc03c 	ldr	ip, [pc, #60]	; 8efc <_sbrk+0x78>
    8ebc:	e5911000 	ldr	r1, [r1]
    8ec0:	e151000c 	cmp	r1, ip
    8ec4:	0a000001 	beq	8ed0 <_sbrk+0x4c>
    8ec8:	e1530001 	cmp	r3, r1
    8ecc:	8a000001 	bhi	8ed8 <_sbrk+0x54>
    8ed0:	e58230ac 	str	r3, [r2, #172]	; 0xac
    8ed4:	e49df004 	pop	{pc}		; (ldr pc, [sp], #4)
    8ed8:	eb000166 	bl	9478 <__errno>
    8edc:	e3a0200c 	mov	r2, #12
    8ee0:	e1a03000 	mov	r3, r0
    8ee4:	e3e00000 	mvn	r0, #0
    8ee8:	e5832000 	str	r2, [r3]
    8eec:	e49df004 	pop	{pc}		; (ldr pc, [sp], #4)
    8ef0:	0001c8d4 	.word	0x0001c8d4
    8ef4:	0001c9bc 	.word	0x0001c9bc
    8ef8:	0001c49c 	.word	0x0001c49c
    8efc:	cafedead 	.word	0xcafedead

00008f00 <_fstat>:
    8f00:	e92d4010 	push	{r4, lr}
    8f04:	e1a04001 	mov	r4, r1
    8f08:	e3a02048 	mov	r2, #72	; 0x48
    8f0c:	e1a00004 	mov	r0, r4
    8f10:	e3a01000 	mov	r1, #0
    8f14:	ebfffd54 	bl	846c <memset>
    8f18:	e3a02a02 	mov	r2, #8192	; 0x2000
    8f1c:	e3a03b01 	mov	r3, #1024	; 0x400
    8f20:	e3a00000 	mov	r0, #0
    8f24:	e5842004 	str	r2, [r4, #4]
    8f28:	e5843038 	str	r3, [r4, #56]	; 0x38
    8f2c:	e8bd8010 	pop	{r4, pc}

00008f30 <_stat>:
    8f30:	e92d40f0 	push	{r4, r5, r6, r7, lr}
    8f34:	e1a05001 	mov	r5, r1
    8f38:	e3a01000 	mov	r1, #0
    8f3c:	ebffff34 	bl	8c14 <_swiopen>
    8f40:	e3700001 	cmn	r0, #1
    8f44:	e1a04000 	mov	r4, r0
    8f48:	0a00000e 	beq	8f88 <_stat+0x58>
    8f4c:	e3500000 	cmp	r0, #0
    8f50:	ba000017 	blt	8fb4 <_stat+0x84>
    8f54:	e3a02048 	mov	r2, #72	; 0x48
    8f58:	e1a00005 	mov	r0, r5
    8f5c:	e3a01000 	mov	r1, #0
    8f60:	ebfffd41 	bl	846c <memset>
    8f64:	e3a02c81 	mov	r2, #33024	; 0x8100
    8f68:	e3a03b01 	mov	r3, #1024	; 0x400
    8f6c:	e1a00004 	mov	r0, r4
    8f70:	e5852004 	str	r2, [r5, #4]
    8f74:	e5853038 	str	r3, [r5, #56]	; 0x38
    8f78:	e3a04000 	mov	r4, #0
    8f7c:	ebffff79 	bl	8d68 <_swiclose>
    8f80:	e1a00004 	mov	r0, r4
    8f84:	e8bd80f0 	pop	{r4, r5, r6, r7, pc}
    8f88:	eb00013a 	bl	9478 <__errno>
    8f8c:	e3a06013 	mov	r6, #19
    8f90:	e3a07000 	mov	r7, #0
    8f94:	e1a05000 	mov	r5, r0
    8f98:	e1a00006 	mov	r0, r6
    8f9c:	e1a01007 	mov	r1, r7
    8fa0:	ef123456 	svc	0x00123456
    8fa4:	e1a06000 	mov	r6, r0
    8fa8:	e1a00004 	mov	r0, r4
    8fac:	e5856000 	str	r6, [r5]
    8fb0:	e8bd80f0 	pop	{r4, r5, r6, r7, pc}
    8fb4:	e3e04000 	mvn	r4, #0
    8fb8:	eafffff0 	b	8f80 <_stat+0x50>

00008fbc <_link>:
    8fbc:	e52de004 	push	{lr}		; (str lr, [sp, #-4]!)
    8fc0:	eb00012c 	bl	9478 <__errno>
    8fc4:	e3a02058 	mov	r2, #88	; 0x58
    8fc8:	e1a03000 	mov	r3, r0
    8fcc:	e3e00000 	mvn	r0, #0
    8fd0:	e5832000 	str	r2, [r3]
    8fd4:	e49df004 	pop	{pc}		; (ldr pc, [sp], #4)

00008fd8 <_unlink>:
    8fd8:	e92d40f0 	push	{r4, r5, r6, r7, lr}
    8fdc:	e24dd008 	sub	sp, sp, #8
    8fe0:	e58d0000 	str	r0, [sp]
    8fe4:	ebfffd95 	bl	8640 <strlen>
    8fe8:	e3a0400e 	mov	r4, #14
    8fec:	e1a0500d 	mov	r5, sp
    8ff0:	e58d0004 	str	r0, [sp, #4]
    8ff4:	e1a00004 	mov	r0, r4
    8ff8:	e1a01005 	mov	r1, r5
    8ffc:	ef123456 	svc	0x00123456
    9000:	e1a04000 	mov	r4, r0
    9004:	e3740001 	cmn	r4, #1
    9008:	0a000005 	beq	9024 <_unlink+0x4c>
    900c:	e2544000 	subs	r4, r4, #0
    9010:	13a04001 	movne	r4, #1
    9014:	e2644000 	rsb	r4, r4, #0
    9018:	e1a00004 	mov	r0, r4
    901c:	e28dd008 	add	sp, sp, #8
    9020:	e8bd80f0 	pop	{r4, r5, r6, r7, pc}
    9024:	eb000113 	bl	9478 <__errno>
    9028:	e3a06013 	mov	r6, #19
    902c:	e3a07000 	mov	r7, #0
    9030:	e1a05000 	mov	r5, r0
    9034:	e1a00006 	mov	r0, r6
    9038:	e1a01007 	mov	r1, r7
    903c:	ef123456 	svc	0x00123456
    9040:	e1a06000 	mov	r6, r0
    9044:	e1a00004 	mov	r0, r4
    9048:	e5856000 	str	r6, [r5]
    904c:	e28dd008 	add	sp, sp, #8
    9050:	e8bd80f0 	pop	{r4, r5, r6, r7, pc}

00009054 <_raise>:
    9054:	e12fff1e 	bx	lr

00009058 <_gettimeofday>:
    9058:	e92d40f0 	push	{r4, r5, r6, r7, lr}
    905c:	e2504000 	subs	r4, r0, #0
    9060:	e1a05001 	mov	r5, r1
    9064:	0a000008 	beq	908c <_gettimeofday+0x34>
    9068:	e3a06011 	mov	r6, #17
    906c:	e3a07000 	mov	r7, #0
    9070:	e1a00006 	mov	r0, r6
    9074:	e1a01007 	mov	r1, r7
    9078:	ef123456 	svc	0x00123456
    907c:	e1a06000 	mov	r6, r0
    9080:	e1a03fc6 	asr	r3, r6, #31
    9084:	e9840088 	stmib	r4, {r3, r7}
    9088:	e5846000 	str	r6, [r4]
    908c:	e3550000 	cmp	r5, #0
    9090:	13a03000 	movne	r3, #0
    9094:	e3a00000 	mov	r0, #0
    9098:	15853000 	strne	r3, [r5]
    909c:	15853004 	strne	r3, [r5, #4]
    90a0:	e8bd80f0 	pop	{r4, r5, r6, r7, pc}

000090a4 <_times>:
    90a4:	e92d4070 	push	{r4, r5, r6, lr}
    90a8:	e3a05010 	mov	r5, #16
    90ac:	e3a06000 	mov	r6, #0
    90b0:	e1a04000 	mov	r4, r0
    90b4:	e1a00005 	mov	r0, r5
    90b8:	e1a01006 	mov	r1, r6
    90bc:	ef123456 	svc	0x00123456
    90c0:	e1a05000 	mov	r5, r0
    90c4:	e1540006 	cmp	r4, r6
    90c8:	e1a00005 	mov	r0, r5
    90cc:	18840060 	stmne	r4, {r5, r6}
    90d0:	15846008 	strne	r6, [r4, #8]
    90d4:	1584600c 	strne	r6, [r4, #12]
    90d8:	e8bd8070 	pop	{r4, r5, r6, pc}

000090dc <_isatty>:
    90dc:	e92d40f0 	push	{r4, r5, r6, r7, lr}
    90e0:	e59f30c4 	ldr	r3, [pc, #196]	; 91ac <_isatty+0xd0>
    90e4:	e5933000 	ldr	r3, [r3]
    90e8:	e3530000 	cmp	r3, #0
    90ec:	e1a04000 	mov	r4, r0
    90f0:	e24dd004 	sub	sp, sp, #4
    90f4:	0a000002 	beq	9104 <_isatty+0x28>
    90f8:	e5932038 	ldr	r2, [r3, #56]	; 0x38
    90fc:	e3520000 	cmp	r2, #0
    9100:	0a000013 	beq	9154 <_isatty+0x78>
    9104:	e3540000 	cmp	r4, #0
    9108:	0a000015 	beq	9164 <_isatty+0x88>
    910c:	e3540001 	cmp	r4, #1
    9110:	0a000016 	beq	9170 <_isatty+0x94>
    9114:	e3540002 	cmp	r4, #2
    9118:	059f3090 	ldreq	r3, [pc, #144]	; 91b0 <_isatty+0xd4>
    911c:	05934008 	ldreq	r4, [r3, #8]
    9120:	12444020 	subne	r4, r4, #32
    9124:	e58d4000 	str	r4, [sp]
    9128:	e3a05009 	mov	r5, #9
    912c:	e1a0400d 	mov	r4, sp
    9130:	e1a00005 	mov	r0, r5
    9134:	e1a01004 	mov	r1, r4
    9138:	ef123456 	svc	0x00123456
    913c:	e1a04000 	mov	r4, r0
    9140:	e3740001 	cmn	r4, #1
    9144:	0a00000c 	beq	917c <_isatty+0xa0>
    9148:	e1a00004 	mov	r0, r4
    914c:	e28dd004 	add	sp, sp, #4
    9150:	e8bd80f0 	pop	{r4, r5, r6, r7, pc}
    9154:	e1a00003 	mov	r0, r3
    9158:	eb00017f 	bl	975c <__sinit>
    915c:	e3540000 	cmp	r4, #0
    9160:	1affffe9 	bne	910c <_isatty+0x30>
    9164:	e59f3044 	ldr	r3, [pc, #68]	; 91b0 <_isatty+0xd4>
    9168:	e5934000 	ldr	r4, [r3]
    916c:	eaffffec 	b	9124 <_isatty+0x48>
    9170:	e59f3038 	ldr	r3, [pc, #56]	; 91b0 <_isatty+0xd4>
    9174:	e5934004 	ldr	r4, [r3, #4]
    9178:	eaffffe9 	b	9124 <_isatty+0x48>
    917c:	eb0000bd 	bl	9478 <__errno>
    9180:	e3a06013 	mov	r6, #19
    9184:	e3a07000 	mov	r7, #0
    9188:	e1a05000 	mov	r5, r0
    918c:	e1a00006 	mov	r0, r6
    9190:	e1a01007 	mov	r1, r7
    9194:	ef123456 	svc	0x00123456
    9198:	e1a06000 	mov	r6, r0
    919c:	e1a00004 	mov	r0, r4
    91a0:	e5856000 	str	r6, [r5]
    91a4:	e28dd004 	add	sp, sp, #4
    91a8:	e8bd80f0 	pop	{r4, r5, r6, r7, pc}
    91ac:	0001c074 	.word	0x0001c074
    91b0:	0001c8d4 	.word	0x0001c8d4

000091b4 <_system>:
    91b4:	e92d40f0 	push	{r4, r5, r6, r7, lr}
    91b8:	e2503000 	subs	r3, r0, #0
    91bc:	03a05001 	moveq	r5, #1
    91c0:	e24dd008 	sub	sp, sp, #8
    91c4:	0a000014 	beq	921c <_system+0x68>
    91c8:	e58d3000 	str	r3, [sp]
    91cc:	ebfffd1b 	bl	8640 <strlen>
    91d0:	e3a04012 	mov	r4, #18
    91d4:	e1a0500d 	mov	r5, sp
    91d8:	e58d0004 	str	r0, [sp, #4]
    91dc:	e1a00004 	mov	r0, r4
    91e0:	e1a01005 	mov	r1, r5
    91e4:	ef123456 	svc	0x00123456
    91e8:	e1a04000 	mov	r4, r0
    91ec:	e3740001 	cmn	r4, #1
    91f0:	e1a05004 	mov	r5, r4
    91f4:	0a00000e 	beq	9234 <_system+0x80>
    91f8:	e35400ff 	cmp	r4, #255	; 0xff
    91fc:	8a000006 	bhi	921c <_system+0x68>
    9200:	e3540000 	cmp	r4, #0
    9204:	0a000004 	beq	921c <_system+0x68>
    9208:	e1a05084 	lsl	r5, r4, #1
    920c:	e1a03445 	asr	r3, r5, #8
    9210:	e20330ff 	and	r3, r3, #255	; 0xff
    9214:	e1530004 	cmp	r3, r4
    9218:	1a000002 	bne	9228 <_system+0x74>
    921c:	e1a00005 	mov	r0, r5
    9220:	e28dd008 	add	sp, sp, #8
    9224:	e8bd80f0 	pop	{r4, r5, r6, r7, pc}
    9228:	e1b05085 	lsls	r5, r5, #1
    922c:	1afffff6 	bne	920c <_system+0x58>
    9230:	eafffff9 	b	921c <_system+0x68>
    9234:	eb00008f 	bl	9478 <__errno>
    9238:	e3a06013 	mov	r6, #19
    923c:	e3a07000 	mov	r7, #0
    9240:	e1a04000 	mov	r4, r0
    9244:	e1a00006 	mov	r0, r6
    9248:	e1a01007 	mov	r1, r7
    924c:	ef123456 	svc	0x00123456
    9250:	e1a06000 	mov	r6, r0
    9254:	e5846000 	str	r6, [r4]
    9258:	eaffffef 	b	921c <_system+0x68>

0000925c <_rename>:
    925c:	e92d40f0 	push	{r4, r5, r6, r7, lr}
    9260:	e24dd010 	sub	sp, sp, #16
    9264:	e1a04001 	mov	r4, r1
    9268:	e58d0000 	str	r0, [sp]
    926c:	ebfffcf3 	bl	8640 <strlen>
    9270:	e1a03000 	mov	r3, r0
    9274:	e1a00004 	mov	r0, r4
    9278:	e98d0018 	stmib	sp, {r3, r4}
    927c:	ebfffcef 	bl	8640 <strlen>
    9280:	e3a0400f 	mov	r4, #15
    9284:	e1a0500d 	mov	r5, sp
    9288:	e58d000c 	str	r0, [sp, #12]
    928c:	e1a00004 	mov	r0, r4
    9290:	e1a01005 	mov	r1, r5
    9294:	ef123456 	svc	0x00123456
    9298:	e1a04000 	mov	r4, r0
    929c:	e3740001 	cmn	r4, #1
    92a0:	0a000005 	beq	92bc <_rename+0x60>
    92a4:	e2544000 	subs	r4, r4, #0
    92a8:	13a04001 	movne	r4, #1
    92ac:	e2644000 	rsb	r4, r4, #0
    92b0:	e1a00004 	mov	r0, r4
    92b4:	e28dd010 	add	sp, sp, #16
    92b8:	e8bd80f0 	pop	{r4, r5, r6, r7, pc}
    92bc:	eb00006d 	bl	9478 <__errno>
    92c0:	e3a06013 	mov	r6, #19
    92c4:	e3a07000 	mov	r7, #0
    92c8:	e1a05000 	mov	r5, r0
    92cc:	e1a00006 	mov	r0, r6
    92d0:	e1a01007 	mov	r1, r7
    92d4:	ef123456 	svc	0x00123456
    92d8:	e1a06000 	mov	r6, r0
    92dc:	e1a00004 	mov	r0, r4
    92e0:	e5856000 	str	r6, [r5]
    92e4:	e28dd010 	add	sp, sp, #16
    92e8:	e8bd80f0 	pop	{r4, r5, r6, r7, pc}

000092ec <__register_exitproc>:
    92ec:	e59fc078 	ldr	ip, [pc, #120]	; 936c <__register_exitproc+0x80>
    92f0:	e92d4010 	push	{r4, lr}
    92f4:	e59ce000 	ldr	lr, [ip]
    92f8:	e59ec148 	ldr	ip, [lr, #328]	; 0x148
    92fc:	e35c0000 	cmp	ip, #0
    9300:	028ecf53 	addeq	ip, lr, #332	; 0x14c
    9304:	058ec148 	streq	ip, [lr, #328]	; 0x148
    9308:	e59ce004 	ldr	lr, [ip, #4]
    930c:	e35e001f 	cmp	lr, #31
    9310:	ca000013 	bgt	9364 <__register_exitproc+0x78>
    9314:	e3500000 	cmp	r0, #0
    9318:	0a00000b 	beq	934c <__register_exitproc+0x60>
    931c:	e3500002 	cmp	r0, #2
    9320:	e3a00001 	mov	r0, #1
    9324:	e08c410e 	add	r4, ip, lr, lsl #2
    9328:	e5842088 	str	r2, [r4, #136]	; 0x88
    932c:	e1a02e10 	lsl	r2, r0, lr
    9330:	e59c0188 	ldr	r0, [ip, #392]	; 0x188
    9334:	e1800002 	orr	r0, r0, r2
    9338:	e58c0188 	str	r0, [ip, #392]	; 0x188
    933c:	e5843108 	str	r3, [r4, #264]	; 0x108
    9340:	059c318c 	ldreq	r3, [ip, #396]	; 0x18c
    9344:	01832002 	orreq	r2, r3, r2
    9348:	058c218c 	streq	r2, [ip, #396]	; 0x18c
    934c:	e28e3001 	add	r3, lr, #1
    9350:	e28ee002 	add	lr, lr, #2
    9354:	e58c3004 	str	r3, [ip, #4]
    9358:	e3a00000 	mov	r0, #0
    935c:	e78c110e 	str	r1, [ip, lr, lsl #2]
    9360:	e8bd8010 	pop	{r4, pc}
    9364:	e3e00000 	mvn	r0, #0
    9368:	e8bd8010 	pop	{r4, pc}
    936c:	0000bf2c 	.word	0x0000bf2c

00009370 <__call_exitprocs>:
    9370:	e59f30fc 	ldr	r3, [pc, #252]	; 9474 <__call_exitprocs+0x104>
    9374:	e92d4ff0 	push	{r4, r5, r6, r7, r8, r9, sl, fp, lr}
    9378:	e5937000 	ldr	r7, [r3]
    937c:	e5976148 	ldr	r6, [r7, #328]	; 0x148
    9380:	e24dd004 	sub	sp, sp, #4
    9384:	e3560000 	cmp	r6, #0
    9388:	e58d0000 	str	r0, [sp]
    938c:	0a000036 	beq	946c <__call_exitprocs+0xfc>
    9390:	e1a0b001 	mov	fp, r1
    9394:	e3a08001 	mov	r8, #1
    9398:	e3a09000 	mov	r9, #0
    939c:	e5964004 	ldr	r4, [r6, #4]
    93a0:	e2545001 	subs	r5, r4, #1
    93a4:	4a000030 	bmi	946c <__call_exitprocs+0xfc>
    93a8:	e2844001 	add	r4, r4, #1
    93ac:	e0864104 	add	r4, r6, r4, lsl #2
    93b0:	ea000003 	b	93c4 <__call_exitprocs+0x54>
    93b4:	e2455001 	sub	r5, r5, #1
    93b8:	e3750001 	cmn	r5, #1
    93bc:	e2444004 	sub	r4, r4, #4
    93c0:	0a000029 	beq	946c <__call_exitprocs+0xfc>
    93c4:	e35b0000 	cmp	fp, #0
    93c8:	0a000002 	beq	93d8 <__call_exitprocs+0x68>
    93cc:	e5943100 	ldr	r3, [r4, #256]	; 0x100
    93d0:	e153000b 	cmp	r3, fp
    93d4:	1afffff6 	bne	93b4 <__call_exitprocs+0x44>
    93d8:	e5963004 	ldr	r3, [r6, #4]
    93dc:	e5942000 	ldr	r2, [r4]
    93e0:	e2433001 	sub	r3, r3, #1
    93e4:	e1530005 	cmp	r3, r5
    93e8:	05865004 	streq	r5, [r6, #4]
    93ec:	15849000 	strne	r9, [r4]
    93f0:	e3520000 	cmp	r2, #0
    93f4:	0affffee 	beq	93b4 <__call_exitprocs+0x44>
    93f8:	e5961188 	ldr	r1, [r6, #392]	; 0x188
    93fc:	e1a03518 	lsl	r3, r8, r5
    9400:	e1130001 	tst	r3, r1
    9404:	e596a004 	ldr	sl, [r6, #4]
    9408:	1a00000b 	bne	943c <__call_exitprocs+0xcc>
    940c:	e1a0e00f 	mov	lr, pc
    9410:	e12fff12 	bx	r2
    9414:	e5962004 	ldr	r2, [r6, #4]
    9418:	e152000a 	cmp	r2, sl
    941c:	e5973148 	ldr	r3, [r7, #328]	; 0x148
    9420:	1a000001 	bne	942c <__call_exitprocs+0xbc>
    9424:	e1530006 	cmp	r3, r6
    9428:	0affffe1 	beq	93b4 <__call_exitprocs+0x44>
    942c:	e3530000 	cmp	r3, #0
    9430:	0a00000d 	beq	946c <__call_exitprocs+0xfc>
    9434:	e1a06003 	mov	r6, r3
    9438:	eaffffd7 	b	939c <__call_exitprocs+0x2c>
    943c:	e596018c 	ldr	r0, [r6, #396]	; 0x18c
    9440:	e1130000 	tst	r3, r0
    9444:	e5941080 	ldr	r1, [r4, #128]	; 0x80
    9448:	1a000003 	bne	945c <__call_exitprocs+0xec>
    944c:	e59d0000 	ldr	r0, [sp]
    9450:	e1a0e00f 	mov	lr, pc
    9454:	e12fff12 	bx	r2
    9458:	eaffffed 	b	9414 <__call_exitprocs+0xa4>
    945c:	e1a00001 	mov	r0, r1
    9460:	e1a0e00f 	mov	lr, pc
    9464:	e12fff12 	bx	r2
    9468:	eaffffe9 	b	9414 <__call_exitprocs+0xa4>
    946c:	e28dd004 	add	sp, sp, #4
    9470:	e8bd8ff0 	pop	{r4, r5, r6, r7, r8, r9, sl, fp, pc}
    9474:	0000bf2c 	.word	0x0000bf2c

00009478 <__errno>:
    9478:	e59f3004 	ldr	r3, [pc, #4]	; 9484 <__errno+0xc>
    947c:	e5930000 	ldr	r0, [r3]
    9480:	e12fff1e 	bx	lr
    9484:	0001c074 	.word	0x0001c074

00009488 <__fp_lock>:
    9488:	e3a00000 	mov	r0, #0
    948c:	e12fff1e 	bx	lr

00009490 <_cleanup_r>:
    9490:	e59f1000 	ldr	r1, [pc]	; 9498 <_cleanup_r+0x8>
    9494:	ea000218 	b	9cfc <_fwalk_reent>
    9498:	0000b1b4 	.word	0x0000b1b4

0000949c <__fp_unlock>:
    949c:	e3a00000 	mov	r0, #0
    94a0:	e12fff1e 	bx	lr

000094a4 <__sinit.part.0>:
    94a4:	e92d47f0 	push	{r4, r5, r6, r7, r8, r9, sl, lr}
    94a8:	e3a0c003 	mov	ip, #3
    94ac:	e3a04000 	mov	r4, #0
    94b0:	e1a0a000 	mov	sl, r0
    94b4:	e3a03004 	mov	r3, #4
    94b8:	e59fe10c 	ldr	lr, [pc, #268]	; 95cc <__sinit.part.0+0x128>
    94bc:	e5905004 	ldr	r5, [r0, #4]
    94c0:	e580e03c 	str	lr, [r0, #60]	; 0x3c
    94c4:	e580c2e4 	str	ip, [r0, #740]	; 0x2e4
    94c8:	e58042e0 	str	r4, [r0, #736]	; 0x2e0
    94cc:	e59f90fc 	ldr	r9, [pc, #252]	; 95d0 <__sinit.part.0+0x12c>
    94d0:	e59f80fc 	ldr	r8, [pc, #252]	; 95d4 <__sinit.part.0+0x130>
    94d4:	e59f70fc 	ldr	r7, [pc, #252]	; 95d8 <__sinit.part.0+0x134>
    94d8:	e59f60fc 	ldr	r6, [pc, #252]	; 95dc <__sinit.part.0+0x138>
    94dc:	e2800fbb 	add	r0, r0, #748	; 0x2ec
    94e0:	e58a02e8 	str	r0, [sl, #744]	; 0x2e8
    94e4:	e3a02008 	mov	r2, #8
    94e8:	e585300c 	str	r3, [r5, #12]
    94ec:	e1a01004 	mov	r1, r4
    94f0:	e5854064 	str	r4, [r5, #100]	; 0x64
    94f4:	e5854000 	str	r4, [r5]
    94f8:	e5854004 	str	r4, [r5, #4]
    94fc:	e5854008 	str	r4, [r5, #8]
    9500:	e5854010 	str	r4, [r5, #16]
    9504:	e5854014 	str	r4, [r5, #20]
    9508:	e5854018 	str	r4, [r5, #24]
    950c:	e285005c 	add	r0, r5, #92	; 0x5c
    9510:	ebfffbd5 	bl	846c <memset>
    9514:	e59f30c4 	ldr	r3, [pc, #196]	; 95e0 <__sinit.part.0+0x13c>
    9518:	e585501c 	str	r5, [r5, #28]
    951c:	e5859020 	str	r9, [r5, #32]
    9520:	e5858024 	str	r8, [r5, #36]	; 0x24
    9524:	e5857028 	str	r7, [r5, #40]	; 0x28
    9528:	e585602c 	str	r6, [r5, #44]	; 0x2c
    952c:	e59a5008 	ldr	r5, [sl, #8]
    9530:	e3a02008 	mov	r2, #8
    9534:	e585300c 	str	r3, [r5, #12]
    9538:	e1a01004 	mov	r1, r4
    953c:	e5854064 	str	r4, [r5, #100]	; 0x64
    9540:	e5854000 	str	r4, [r5]
    9544:	e5854004 	str	r4, [r5, #4]
    9548:	e5854008 	str	r4, [r5, #8]
    954c:	e5854010 	str	r4, [r5, #16]
    9550:	e5854014 	str	r4, [r5, #20]
    9554:	e5854018 	str	r4, [r5, #24]
    9558:	e285005c 	add	r0, r5, #92	; 0x5c
    955c:	ebfffbc2 	bl	846c <memset>
    9560:	e59f307c 	ldr	r3, [pc, #124]	; 95e4 <__sinit.part.0+0x140>
    9564:	e585501c 	str	r5, [r5, #28]
    9568:	e5859020 	str	r9, [r5, #32]
    956c:	e5858024 	str	r8, [r5, #36]	; 0x24
    9570:	e5857028 	str	r7, [r5, #40]	; 0x28
    9574:	e585602c 	str	r6, [r5, #44]	; 0x2c
    9578:	e59a500c 	ldr	r5, [sl, #12]
    957c:	e1a01004 	mov	r1, r4
    9580:	e585300c 	str	r3, [r5, #12]
    9584:	e3a02008 	mov	r2, #8
    9588:	e5854064 	str	r4, [r5, #100]	; 0x64
    958c:	e5854000 	str	r4, [r5]
    9590:	e5854004 	str	r4, [r5, #4]
    9594:	e5854008 	str	r4, [r5, #8]
    9598:	e5854010 	str	r4, [r5, #16]
    959c:	e5854014 	str	r4, [r5, #20]
    95a0:	e5854018 	str	r4, [r5, #24]
    95a4:	e285005c 	add	r0, r5, #92	; 0x5c
    95a8:	ebfffbaf 	bl	846c <memset>
    95ac:	e3a03001 	mov	r3, #1
    95b0:	e5859020 	str	r9, [r5, #32]
    95b4:	e585501c 	str	r5, [r5, #28]
    95b8:	e5858024 	str	r8, [r5, #36]	; 0x24
    95bc:	e5857028 	str	r7, [r5, #40]	; 0x28
    95c0:	e585602c 	str	r6, [r5, #44]	; 0x2c
    95c4:	e58a3038 	str	r3, [sl, #56]	; 0x38
    95c8:	e8bd87f0 	pop	{r4, r5, r6, r7, r8, r9, sl, pc}
    95cc:	00009490 	.word	0x00009490
    95d0:	0000ae68 	.word	0x0000ae68
    95d4:	0000aea0 	.word	0x0000aea0
    95d8:	0000aef8 	.word	0x0000aef8
    95dc:	0000af24 	.word	0x0000af24
    95e0:	00010009 	.word	0x00010009
    95e4:	00020012 	.word	0x00020012

000095e8 <__sfmoreglue>:
    95e8:	e2412001 	sub	r2, r1, #1
    95ec:	e92d4070 	push	{r4, r5, r6, lr}
    95f0:	e0824082 	add	r4, r2, r2, lsl #1
    95f4:	e0822104 	add	r2, r2, r4, lsl #2
    95f8:	e1a04182 	lsl	r4, r2, #3
    95fc:	e1a06001 	mov	r6, r1
    9600:	e2841074 	add	r1, r4, #116	; 0x74
    9604:	eb0001d9 	bl	9d70 <_malloc_r>
    9608:	e2505000 	subs	r5, r0, #0
    960c:	0a000006 	beq	962c <__sfmoreglue+0x44>
    9610:	e3a01000 	mov	r1, #0
    9614:	e285000c 	add	r0, r5, #12
    9618:	e5856004 	str	r6, [r5, #4]
    961c:	e5850008 	str	r0, [r5, #8]
    9620:	e5851000 	str	r1, [r5]
    9624:	e2842068 	add	r2, r4, #104	; 0x68
    9628:	ebfffb8f 	bl	846c <memset>
    962c:	e1a00005 	mov	r0, r5
    9630:	e8bd8070 	pop	{r4, r5, r6, pc}

00009634 <__sfp>:
    9634:	e59f3100 	ldr	r3, [pc, #256]	; 973c <__sfp+0x108>
    9638:	e92d41f0 	push	{r4, r5, r6, r7, r8, lr}
    963c:	e5936000 	ldr	r6, [r3]
    9640:	e5963038 	ldr	r3, [r6, #56]	; 0x38
    9644:	e3530000 	cmp	r3, #0
    9648:	e1a07000 	mov	r7, r0
    964c:	0a000024 	beq	96e4 <__sfp+0xb0>
    9650:	e3a08004 	mov	r8, #4
    9654:	e2866e2e 	add	r6, r6, #736	; 0x2e0
    9658:	e9960018 	ldmib	r6, {r3, r4}
    965c:	e2533001 	subs	r3, r3, #1
    9660:	5a000003 	bpl	9674 <__sfp+0x40>
    9664:	ea000019 	b	96d0 <__sfp+0x9c>
    9668:	e3730001 	cmn	r3, #1
    966c:	e2844068 	add	r4, r4, #104	; 0x68
    9670:	0a000016 	beq	96d0 <__sfp+0x9c>
    9674:	e1d450fc 	ldrsh	r5, [r4, #12]
    9678:	e3550000 	cmp	r5, #0
    967c:	e2433001 	sub	r3, r3, #1
    9680:	1afffff8 	bne	9668 <__sfp+0x34>
    9684:	e59f30b4 	ldr	r3, [pc, #180]	; 9740 <__sfp+0x10c>
    9688:	e3a02008 	mov	r2, #8
    968c:	e1a01005 	mov	r1, r5
    9690:	e5845064 	str	r5, [r4, #100]	; 0x64
    9694:	e5845000 	str	r5, [r4]
    9698:	e5845004 	str	r5, [r4, #4]
    969c:	e5845008 	str	r5, [r4, #8]
    96a0:	e584300c 	str	r3, [r4, #12]
    96a4:	e5845010 	str	r5, [r4, #16]
    96a8:	e5845014 	str	r5, [r4, #20]
    96ac:	e5845018 	str	r5, [r4, #24]
    96b0:	e284005c 	add	r0, r4, #92	; 0x5c
    96b4:	ebfffb6c 	bl	846c <memset>
    96b8:	e5845030 	str	r5, [r4, #48]	; 0x30
    96bc:	e5845034 	str	r5, [r4, #52]	; 0x34
    96c0:	e5845044 	str	r5, [r4, #68]	; 0x44
    96c4:	e5845048 	str	r5, [r4, #72]	; 0x48
    96c8:	e1a00004 	mov	r0, r4
    96cc:	e8bd81f0 	pop	{r4, r5, r6, r7, r8, pc}
    96d0:	e5965000 	ldr	r5, [r6]
    96d4:	e3550000 	cmp	r5, #0
    96d8:	0a000004 	beq	96f0 <__sfp+0xbc>
    96dc:	e1a06005 	mov	r6, r5
    96e0:	eaffffdc 	b	9658 <__sfp+0x24>
    96e4:	e1a00006 	mov	r0, r6
    96e8:	ebffff6d 	bl	94a4 <__sinit.part.0>
    96ec:	eaffffd7 	b	9650 <__sfp+0x1c>
    96f0:	e3a01f6b 	mov	r1, #428	; 0x1ac
    96f4:	e1a00007 	mov	r0, r7
    96f8:	eb00019c 	bl	9d70 <_malloc_r>
    96fc:	e2504000 	subs	r4, r0, #0
    9700:	0a000009 	beq	972c <__sfp+0xf8>
    9704:	e284000c 	add	r0, r4, #12
    9708:	e1a01005 	mov	r1, r5
    970c:	e5845000 	str	r5, [r4]
    9710:	e3a02e1a 	mov	r2, #416	; 0x1a0
    9714:	e5848004 	str	r8, [r4, #4]
    9718:	e5840008 	str	r0, [r4, #8]
    971c:	ebfffb52 	bl	846c <memset>
    9720:	e1a05004 	mov	r5, r4
    9724:	e5864000 	str	r4, [r6]
    9728:	eaffffeb 	b	96dc <__sfp+0xa8>
    972c:	e3a0300c 	mov	r3, #12
    9730:	e5864000 	str	r4, [r6]
    9734:	e5873000 	str	r3, [r7]
    9738:	eaffffe2 	b	96c8 <__sfp+0x94>
    973c:	0000bf2c 	.word	0x0000bf2c
    9740:	ffff0001 	.word	0xffff0001

00009744 <_cleanup>:
    9744:	e59f3008 	ldr	r3, [pc, #8]	; 9754 <_cleanup+0x10>
    9748:	e59f1008 	ldr	r1, [pc, #8]	; 9758 <_cleanup+0x14>
    974c:	e5930000 	ldr	r0, [r3]
    9750:	ea000169 	b	9cfc <_fwalk_reent>
    9754:	0000bf2c 	.word	0x0000bf2c
    9758:	0000b1b4 	.word	0x0000b1b4

0000975c <__sinit>:
    975c:	e5903038 	ldr	r3, [r0, #56]	; 0x38
    9760:	e3530000 	cmp	r3, #0
    9764:	112fff1e 	bxne	lr
    9768:	eaffff4d 	b	94a4 <__sinit.part.0>

0000976c <__sfp_lock_acquire>:
    976c:	e12fff1e 	bx	lr

00009770 <__sfp_lock_release>:
    9770:	e12fff1e 	bx	lr

00009774 <__sinit_lock_acquire>:
    9774:	e12fff1e 	bx	lr

00009778 <__sinit_lock_release>:
    9778:	e12fff1e 	bx	lr

0000977c <__fp_lock_all>:
    977c:	e59f3008 	ldr	r3, [pc, #8]	; 978c <__fp_lock_all+0x10>
    9780:	e59f1008 	ldr	r1, [pc, #8]	; 9790 <__fp_lock_all+0x14>
    9784:	e5930000 	ldr	r0, [r3]
    9788:	ea000140 	b	9c90 <_fwalk>
    978c:	0001c074 	.word	0x0001c074
    9790:	00009488 	.word	0x00009488

00009794 <__fp_unlock_all>:
    9794:	e59f3008 	ldr	r3, [pc, #8]	; 97a4 <__fp_unlock_all+0x10>
    9798:	e59f1008 	ldr	r1, [pc, #8]	; 97a8 <__fp_unlock_all+0x14>
    979c:	e5930000 	ldr	r0, [r3]
    97a0:	ea00013a 	b	9c90 <_fwalk>
    97a4:	0001c074 	.word	0x0001c074
    97a8:	0000949c 	.word	0x0000949c

000097ac <__sfvwrite_r>:
    97ac:	e5923008 	ldr	r3, [r2, #8]
    97b0:	e3530000 	cmp	r3, #0
    97b4:	0a000098 	beq	9a1c <__sfvwrite_r+0x270>
    97b8:	e92d4ff0 	push	{r4, r5, r6, r7, r8, r9, sl, fp, lr}
    97bc:	e1d130fc 	ldrsh	r3, [r1, #12]
    97c0:	e1a03803 	lsl	r3, r3, #16
    97c4:	e3130702 	tst	r3, #524288	; 0x80000
    97c8:	e1a07002 	mov	r7, r2
    97cc:	e1a08000 	mov	r8, r0
    97d0:	e1a04001 	mov	r4, r1
    97d4:	e24dd004 	sub	sp, sp, #4
    97d8:	e1a0a823 	lsr	sl, r3, #16
    97dc:	0a000024 	beq	9874 <__sfvwrite_r+0xc8>
    97e0:	e5912010 	ldr	r2, [r1, #16]
    97e4:	e3520000 	cmp	r2, #0
    97e8:	0a000021 	beq	9874 <__sfvwrite_r+0xc8>
    97ec:	e21ab002 	ands	fp, sl, #2
    97f0:	e5976000 	ldr	r6, [r7]
    97f4:	0a000029 	beq	98a0 <__sfvwrite_r+0xf4>
    97f8:	e3a0a000 	mov	sl, #0
    97fc:	e1a0500a 	mov	r5, sl
    9800:	e594c024 	ldr	ip, [r4, #36]	; 0x24
    9804:	e594101c 	ldr	r1, [r4, #28]
    9808:	e59f947c 	ldr	r9, [pc, #1148]	; 9c8c <__sfvwrite_r+0x4e0>
    980c:	e3550000 	cmp	r5, #0
    9810:	0a000013 	beq	9864 <__sfvwrite_r+0xb8>
    9814:	e1550009 	cmp	r5, r9
    9818:	31a03005 	movcc	r3, r5
    981c:	21a03009 	movcs	r3, r9
    9820:	e1a0200a 	mov	r2, sl
    9824:	e1a00008 	mov	r0, r8
    9828:	e1a0e00f 	mov	lr, pc
    982c:	e12fff1c 	bx	ip
    9830:	e3500000 	cmp	r0, #0
    9834:	da000072 	ble	9a04 <__sfvwrite_r+0x258>
    9838:	e5973008 	ldr	r3, [r7, #8]
    983c:	e0433000 	sub	r3, r3, r0
    9840:	e3530000 	cmp	r3, #0
    9844:	e5873008 	str	r3, [r7, #8]
    9848:	e08aa000 	add	sl, sl, r0
    984c:	e0455000 	sub	r5, r5, r0
    9850:	0a000061 	beq	99dc <__sfvwrite_r+0x230>
    9854:	e3550000 	cmp	r5, #0
    9858:	e594c024 	ldr	ip, [r4, #36]	; 0x24
    985c:	e594101c 	ldr	r1, [r4, #28]
    9860:	1affffeb 	bne	9814 <__sfvwrite_r+0x68>
    9864:	e596a000 	ldr	sl, [r6]
    9868:	e5965004 	ldr	r5, [r6, #4]
    986c:	e2866008 	add	r6, r6, #8
    9870:	eaffffe5 	b	980c <__sfvwrite_r+0x60>
    9874:	e1a01004 	mov	r1, r4
    9878:	e1a00008 	mov	r0, r8
    987c:	eb0005bb 	bl	af70 <__swsetup_r>
    9880:	e3500000 	cmp	r0, #0
    9884:	1a0000fe 	bne	9c84 <__sfvwrite_r+0x4d8>
    9888:	e1d430fc 	ldrsh	r3, [r4, #12]
    988c:	e1a03803 	lsl	r3, r3, #16
    9890:	e1a0a823 	lsr	sl, r3, #16
    9894:	e21ab002 	ands	fp, sl, #2
    9898:	e5976000 	ldr	r6, [r7]
    989c:	1affffd5 	bne	97f8 <__sfvwrite_r+0x4c>
    98a0:	e21aa001 	ands	sl, sl, #1
    98a4:	1a00005e 	bne	9a24 <__sfvwrite_r+0x278>
    98a8:	e1a0500a 	mov	r5, sl
    98ac:	e594b008 	ldr	fp, [r4, #8]
    98b0:	e5940000 	ldr	r0, [r4]
    98b4:	e3550000 	cmp	r5, #0
    98b8:	0a000043 	beq	99cc <__sfvwrite_r+0x220>
    98bc:	e3130402 	tst	r3, #33554432	; 0x2000000
    98c0:	e1a03823 	lsr	r3, r3, #16
    98c4:	0a000093 	beq	9b18 <__sfvwrite_r+0x36c>
    98c8:	e15b0005 	cmp	fp, r5
    98cc:	e1a0200b 	mov	r2, fp
    98d0:	8a0000bb 	bhi	9bc4 <__sfvwrite_r+0x418>
    98d4:	e3130d12 	tst	r3, #1152	; 0x480
    98d8:	0a000023 	beq	996c <__sfvwrite_r+0x1c0>
    98dc:	e5942014 	ldr	r2, [r4, #20]
    98e0:	e594e010 	ldr	lr, [r4, #16]
    98e4:	e0822082 	add	r2, r2, r2, lsl #1
    98e8:	e0822fa2 	add	r2, r2, r2, lsr #31
    98ec:	e040b00e 	sub	fp, r0, lr
    98f0:	e2851001 	add	r1, r5, #1
    98f4:	e1a020c2 	asr	r2, r2, #1
    98f8:	e081100b 	add	r1, r1, fp
    98fc:	e1510002 	cmp	r1, r2
    9900:	91a09002 	movls	r9, r2
    9904:	81a09001 	movhi	r9, r1
    9908:	81a02001 	movhi	r2, r1
    990c:	e3130b01 	tst	r3, #1024	; 0x400
    9910:	0a0000c7 	beq	9c34 <__sfvwrite_r+0x488>
    9914:	e1a01002 	mov	r1, r2
    9918:	e1a00008 	mov	r0, r8
    991c:	eb000113 	bl	9d70 <_malloc_r>
    9920:	e2503000 	subs	r3, r0, #0
    9924:	0a0000d2 	beq	9c74 <__sfvwrite_r+0x4c8>
    9928:	e1a0200b 	mov	r2, fp
    992c:	e5941010 	ldr	r1, [r4, #16]
    9930:	e58d3000 	str	r3, [sp]
    9934:	eb000339 	bl	a620 <memcpy>
    9938:	e1d420bc 	ldrh	r2, [r4, #12]
    993c:	e3c22d12 	bic	r2, r2, #1152	; 0x480
    9940:	e3822080 	orr	r2, r2, #128	; 0x80
    9944:	e1c420bc 	strh	r2, [r4, #12]
    9948:	e59d3000 	ldr	r3, [sp]
    994c:	e083000b 	add	r0, r3, fp
    9950:	e049b00b 	sub	fp, r9, fp
    9954:	e584b008 	str	fp, [r4, #8]
    9958:	e1a02005 	mov	r2, r5
    995c:	e1a0b005 	mov	fp, r5
    9960:	e5843010 	str	r3, [r4, #16]
    9964:	e5849014 	str	r9, [r4, #20]
    9968:	e5840000 	str	r0, [r4]
    996c:	e1a09005 	mov	r9, r5
    9970:	e3a05000 	mov	r5, #0
    9974:	e1a0100a 	mov	r1, sl
    9978:	e58d2000 	str	r2, [sp]
    997c:	eb00036e 	bl	a73c <memmove>
    9980:	e5941008 	ldr	r1, [r4, #8]
    9984:	e59d2000 	ldr	r2, [sp]
    9988:	e041b00b 	sub	fp, r1, fp
    998c:	e5941000 	ldr	r1, [r4]
    9990:	e0812002 	add	r2, r1, r2
    9994:	e584b008 	str	fp, [r4, #8]
    9998:	e5842000 	str	r2, [r4]
    999c:	e5970008 	ldr	r0, [r7, #8]
    99a0:	e0403009 	sub	r3, r0, r9
    99a4:	e3530000 	cmp	r3, #0
    99a8:	e5873008 	str	r3, [r7, #8]
    99ac:	e08aa009 	add	sl, sl, r9
    99b0:	0a000009 	beq	99dc <__sfvwrite_r+0x230>
    99b4:	e1d430fc 	ldrsh	r3, [r4, #12]
    99b8:	e3550000 	cmp	r5, #0
    99bc:	e594b008 	ldr	fp, [r4, #8]
    99c0:	e5940000 	ldr	r0, [r4]
    99c4:	e1a03803 	lsl	r3, r3, #16
    99c8:	1affffbb 	bne	98bc <__sfvwrite_r+0x110>
    99cc:	e596a000 	ldr	sl, [r6]
    99d0:	e5965004 	ldr	r5, [r6, #4]
    99d4:	e2866008 	add	r6, r6, #8
    99d8:	eaffffb5 	b	98b4 <__sfvwrite_r+0x108>
    99dc:	e3a00000 	mov	r0, #0
    99e0:	e28dd004 	add	sp, sp, #4
    99e4:	e8bd8ff0 	pop	{r4, r5, r6, r7, r8, r9, sl, fp, pc}
    99e8:	e1a01004 	mov	r1, r4
    99ec:	e1a00008 	mov	r0, r8
    99f0:	e58dc000 	str	ip, [sp]
    99f4:	eb0006ac 	bl	b4ac <_fflush_r>
    99f8:	e3500000 	cmp	r0, #0
    99fc:	e59dc000 	ldr	ip, [sp]
    9a00:	0a00002b 	beq	9ab4 <__sfvwrite_r+0x308>
    9a04:	e1d430fc 	ldrsh	r3, [r4, #12]
    9a08:	e3e00000 	mvn	r0, #0
    9a0c:	e3833040 	orr	r3, r3, #64	; 0x40
    9a10:	e1c430bc 	strh	r3, [r4, #12]
    9a14:	e28dd004 	add	sp, sp, #4
    9a18:	e8bd8ff0 	pop	{r4, r5, r6, r7, r8, r9, sl, fp, pc}
    9a1c:	e3a00000 	mov	r0, #0
    9a20:	e12fff1e 	bx	lr
    9a24:	e1a0c00b 	mov	ip, fp
    9a28:	e1a0000b 	mov	r0, fp
    9a2c:	e1a0900b 	mov	r9, fp
    9a30:	ea000026 	b	9ad0 <__sfvwrite_r+0x324>
    9a34:	e3500000 	cmp	r0, #0
    9a38:	0a00002d 	beq	9af4 <__sfvwrite_r+0x348>
    9a3c:	e1a0a00c 	mov	sl, ip
    9a40:	e159000a 	cmp	r9, sl
    9a44:	31a0a009 	movcc	sl, r9
    9a48:	e5942010 	ldr	r2, [r4, #16]
    9a4c:	e5943014 	ldr	r3, [r4, #20]
    9a50:	e5945008 	ldr	r5, [r4, #8]
    9a54:	e5940000 	ldr	r0, [r4]
    9a58:	e0835005 	add	r5, r3, r5
    9a5c:	e1500002 	cmp	r0, r2
    9a60:	93a02000 	movls	r2, #0
    9a64:	83a02001 	movhi	r2, #1
    9a68:	e15a0005 	cmp	sl, r5
    9a6c:	d3a02000 	movle	r2, #0
    9a70:	e3520000 	cmp	r2, #0
    9a74:	e58dc000 	str	ip, [sp]
    9a78:	1a000060 	bne	9c00 <__sfvwrite_r+0x454>
    9a7c:	e153000a 	cmp	r3, sl
    9a80:	ca000052 	bgt	9bd0 <__sfvwrite_r+0x424>
    9a84:	e5945024 	ldr	r5, [r4, #36]	; 0x24
    9a88:	e1a0200b 	mov	r2, fp
    9a8c:	e1a00008 	mov	r0, r8
    9a90:	e594101c 	ldr	r1, [r4, #28]
    9a94:	e1a0e00f 	mov	lr, pc
    9a98:	e12fff15 	bx	r5
    9a9c:	e2505000 	subs	r5, r0, #0
    9aa0:	e59dc000 	ldr	ip, [sp]
    9aa4:	daffffd6 	ble	9a04 <__sfvwrite_r+0x258>
    9aa8:	e05cc005 	subs	ip, ip, r5
    9aac:	13a00001 	movne	r0, #1
    9ab0:	0affffcc 	beq	99e8 <__sfvwrite_r+0x23c>
    9ab4:	e5973008 	ldr	r3, [r7, #8]
    9ab8:	e0433005 	sub	r3, r3, r5
    9abc:	e3530000 	cmp	r3, #0
    9ac0:	e5873008 	str	r3, [r7, #8]
    9ac4:	e08bb005 	add	fp, fp, r5
    9ac8:	e0499005 	sub	r9, r9, r5
    9acc:	0affffc2 	beq	99dc <__sfvwrite_r+0x230>
    9ad0:	e3590000 	cmp	r9, #0
    9ad4:	1affffd6 	bne	9a34 <__sfvwrite_r+0x288>
    9ad8:	e2863008 	add	r3, r6, #8
    9adc:	e5139004 	ldr	r9, [r3, #-4]
    9ae0:	e3590000 	cmp	r9, #0
    9ae4:	e1a06003 	mov	r6, r3
    9ae8:	e513b008 	ldr	fp, [r3, #-8]
    9aec:	e2833008 	add	r3, r3, #8
    9af0:	0afffff9 	beq	9adc <__sfvwrite_r+0x330>
    9af4:	e1a02009 	mov	r2, r9
    9af8:	e3a0100a 	mov	r1, #10
    9afc:	e1a0000b 	mov	r0, fp
    9b00:	eb00028e 	bl	a540 <memchr>
    9b04:	e3500000 	cmp	r0, #0
    9b08:	0a000056 	beq	9c68 <__sfvwrite_r+0x4bc>
    9b0c:	e2800001 	add	r0, r0, #1
    9b10:	e040c00b 	sub	ip, r0, fp
    9b14:	eaffffc8 	b	9a3c <__sfvwrite_r+0x290>
    9b18:	e5943010 	ldr	r3, [r4, #16]
    9b1c:	e1530000 	cmp	r3, r0
    9b20:	3a000013 	bcc	9b74 <__sfvwrite_r+0x3c8>
    9b24:	e5949014 	ldr	r9, [r4, #20]
    9b28:	e1590005 	cmp	r9, r5
    9b2c:	8a000010 	bhi	9b74 <__sfvwrite_r+0x3c8>
    9b30:	e3750106 	cmn	r5, #-2147483647	; 0x80000001
    9b34:	31a00005 	movcc	r0, r5
    9b38:	23e00102 	mvncs	r0, #-2147483648	; 0x80000000
    9b3c:	e1a01009 	mov	r1, r9
    9b40:	eb00088d 	bl	bd7c <__divsi3>
    9b44:	e1a0200a 	mov	r2, sl
    9b48:	e0030099 	mul	r3, r9, r0
    9b4c:	e594c024 	ldr	ip, [r4, #36]	; 0x24
    9b50:	e1a00008 	mov	r0, r8
    9b54:	e594101c 	ldr	r1, [r4, #28]
    9b58:	e1a0e00f 	mov	lr, pc
    9b5c:	e12fff1c 	bx	ip
    9b60:	e2503000 	subs	r3, r0, #0
    9b64:	daffffa6 	ble	9a04 <__sfvwrite_r+0x258>
    9b68:	e1a09003 	mov	r9, r3
    9b6c:	e0455009 	sub	r5, r5, r9
    9b70:	eaffff89 	b	999c <__sfvwrite_r+0x1f0>
    9b74:	e15b0005 	cmp	fp, r5
    9b78:	31a0900b 	movcc	r9, fp
    9b7c:	21a09005 	movcs	r9, r5
    9b80:	e1a0100a 	mov	r1, sl
    9b84:	e1a02009 	mov	r2, r9
    9b88:	eb0002eb 	bl	a73c <memmove>
    9b8c:	e5942008 	ldr	r2, [r4, #8]
    9b90:	e0422009 	sub	r2, r2, r9
    9b94:	e5842008 	str	r2, [r4, #8]
    9b98:	e3520000 	cmp	r2, #0
    9b9c:	e5942000 	ldr	r2, [r4]
    9ba0:	e0822009 	add	r2, r2, r9
    9ba4:	e5842000 	str	r2, [r4]
    9ba8:	1affffef 	bne	9b6c <__sfvwrite_r+0x3c0>
    9bac:	e1a01004 	mov	r1, r4
    9bb0:	e1a00008 	mov	r0, r8
    9bb4:	eb00063c 	bl	b4ac <_fflush_r>
    9bb8:	e3500000 	cmp	r0, #0
    9bbc:	0affffea 	beq	9b6c <__sfvwrite_r+0x3c0>
    9bc0:	eaffff8f 	b	9a04 <__sfvwrite_r+0x258>
    9bc4:	e1a0b005 	mov	fp, r5
    9bc8:	e1a02005 	mov	r2, r5
    9bcc:	eaffff66 	b	996c <__sfvwrite_r+0x1c0>
    9bd0:	e1a0200a 	mov	r2, sl
    9bd4:	e1a0100b 	mov	r1, fp
    9bd8:	eb0002d7 	bl	a73c <memmove>
    9bdc:	e5943008 	ldr	r3, [r4, #8]
    9be0:	e043300a 	sub	r3, r3, sl
    9be4:	e5843008 	str	r3, [r4, #8]
    9be8:	e5943000 	ldr	r3, [r4]
    9bec:	e083300a 	add	r3, r3, sl
    9bf0:	e1a0500a 	mov	r5, sl
    9bf4:	e5843000 	str	r3, [r4]
    9bf8:	e59dc000 	ldr	ip, [sp]
    9bfc:	eaffffa9 	b	9aa8 <__sfvwrite_r+0x2fc>
    9c00:	e1a02005 	mov	r2, r5
    9c04:	e1a0100b 	mov	r1, fp
    9c08:	eb0002cb 	bl	a73c <memmove>
    9c0c:	e5943000 	ldr	r3, [r4]
    9c10:	e0833005 	add	r3, r3, r5
    9c14:	e1a01004 	mov	r1, r4
    9c18:	e1a00008 	mov	r0, r8
    9c1c:	e5843000 	str	r3, [r4]
    9c20:	eb000621 	bl	b4ac <_fflush_r>
    9c24:	e3500000 	cmp	r0, #0
    9c28:	e59dc000 	ldr	ip, [sp]
    9c2c:	0affff9d 	beq	9aa8 <__sfvwrite_r+0x2fc>
    9c30:	eaffff73 	b	9a04 <__sfvwrite_r+0x258>
    9c34:	e1a0100e 	mov	r1, lr
    9c38:	e1a00008 	mov	r0, r8
    9c3c:	eb000315 	bl	a898 <_realloc_r>
    9c40:	e2503000 	subs	r3, r0, #0
    9c44:	1affff40 	bne	994c <__sfvwrite_r+0x1a0>
    9c48:	e1a00008 	mov	r0, r8
    9c4c:	e5941010 	ldr	r1, [r4, #16]
    9c50:	eb00067f 	bl	b654 <_free_r>
    9c54:	e3a0200c 	mov	r2, #12
    9c58:	e1d430fc 	ldrsh	r3, [r4, #12]
    9c5c:	e5882000 	str	r2, [r8]
    9c60:	e3c33080 	bic	r3, r3, #128	; 0x80
    9c64:	eaffff67 	b	9a08 <__sfvwrite_r+0x25c>
    9c68:	e289a001 	add	sl, r9, #1
    9c6c:	e1a0c00a 	mov	ip, sl
    9c70:	eaffff72 	b	9a40 <__sfvwrite_r+0x294>
    9c74:	e3a0200c 	mov	r2, #12
    9c78:	e1d430fc 	ldrsh	r3, [r4, #12]
    9c7c:	e5882000 	str	r2, [r8]
    9c80:	eaffff60 	b	9a08 <__sfvwrite_r+0x25c>
    9c84:	e3e00000 	mvn	r0, #0
    9c88:	eaffff54 	b	99e0 <__sfvwrite_r+0x234>
    9c8c:	7ffffc00 	.word	0x7ffffc00

00009c90 <_fwalk>:
    9c90:	e92d41f0 	push	{r4, r5, r6, r7, r8, lr}
    9c94:	e3a06000 	mov	r6, #0
    9c98:	e1a08001 	mov	r8, r1
    9c9c:	e2807e2e 	add	r7, r0, #736	; 0x2e0
    9ca0:	e5975004 	ldr	r5, [r7, #4]
    9ca4:	e2555001 	subs	r5, r5, #1
    9ca8:	e5974008 	ldr	r4, [r7, #8]
    9cac:	4a00000d 	bmi	9ce8 <_fwalk+0x58>
    9cb0:	e1d430bc 	ldrh	r3, [r4, #12]
    9cb4:	e3530001 	cmp	r3, #1
    9cb8:	e2455001 	sub	r5, r5, #1
    9cbc:	9a000006 	bls	9cdc <_fwalk+0x4c>
    9cc0:	e1d430fe 	ldrsh	r3, [r4, #14]
    9cc4:	e3730001 	cmn	r3, #1
    9cc8:	0a000003 	beq	9cdc <_fwalk+0x4c>
    9ccc:	e1a00004 	mov	r0, r4
    9cd0:	e1a0e00f 	mov	lr, pc
    9cd4:	e12fff18 	bx	r8
    9cd8:	e1866000 	orr	r6, r6, r0
    9cdc:	e3750001 	cmn	r5, #1
    9ce0:	e2844068 	add	r4, r4, #104	; 0x68
    9ce4:	1afffff1 	bne	9cb0 <_fwalk+0x20>
    9ce8:	e5977000 	ldr	r7, [r7]
    9cec:	e3570000 	cmp	r7, #0
    9cf0:	1affffea 	bne	9ca0 <_fwalk+0x10>
    9cf4:	e1a00006 	mov	r0, r6
    9cf8:	e8bd81f0 	pop	{r4, r5, r6, r7, r8, pc}

00009cfc <_fwalk_reent>:
    9cfc:	e92d43f0 	push	{r4, r5, r6, r7, r8, r9, lr}
    9d00:	e3a09000 	mov	r9, #0
    9d04:	e1a07000 	mov	r7, r0
    9d08:	e1a08001 	mov	r8, r1
    9d0c:	e2806e2e 	add	r6, r0, #736	; 0x2e0
    9d10:	e5965004 	ldr	r5, [r6, #4]
    9d14:	e2555001 	subs	r5, r5, #1
    9d18:	e5964008 	ldr	r4, [r6, #8]
    9d1c:	4a00000e 	bmi	9d5c <_fwalk_reent+0x60>
    9d20:	e1d430bc 	ldrh	r3, [r4, #12]
    9d24:	e3530001 	cmp	r3, #1
    9d28:	e2455001 	sub	r5, r5, #1
    9d2c:	9a000007 	bls	9d50 <_fwalk_reent+0x54>
    9d30:	e1d430fe 	ldrsh	r3, [r4, #14]
    9d34:	e3730001 	cmn	r3, #1
    9d38:	0a000004 	beq	9d50 <_fwalk_reent+0x54>
    9d3c:	e1a01004 	mov	r1, r4
    9d40:	e1a00007 	mov	r0, r7
    9d44:	e1a0e00f 	mov	lr, pc
    9d48:	e12fff18 	bx	r8
    9d4c:	e1899000 	orr	r9, r9, r0
    9d50:	e3750001 	cmn	r5, #1
    9d54:	e2844068 	add	r4, r4, #104	; 0x68
    9d58:	1afffff0 	bne	9d20 <_fwalk_reent+0x24>
    9d5c:	e5966000 	ldr	r6, [r6]
    9d60:	e3560000 	cmp	r6, #0
    9d64:	1affffe9 	bne	9d10 <_fwalk_reent+0x14>
    9d68:	e1a00009 	mov	r0, r9
    9d6c:	e8bd83f0 	pop	{r4, r5, r6, r7, r8, r9, pc}

00009d70 <_malloc_r>:
    9d70:	e92d4ff0 	push	{r4, r5, r6, r7, r8, r9, sl, fp, lr}
    9d74:	e281300b 	add	r3, r1, #11
    9d78:	e3530016 	cmp	r3, #22
    9d7c:	e1a06000 	mov	r6, r0
    9d80:	e24dd008 	sub	sp, sp, #8
    9d84:	8a00001b 	bhi	9df8 <_malloc_r+0x88>
    9d88:	e3510010 	cmp	r1, #16
    9d8c:	8a00003d 	bhi	9e88 <_malloc_r+0x118>
    9d90:	eb0002be 	bl	a890 <__malloc_lock>
    9d94:	e3a05010 	mov	r5, #16
    9d98:	e3a02018 	mov	r2, #24
    9d9c:	e3a0c002 	mov	ip, #2
    9da0:	e59f7788 	ldr	r7, [pc, #1928]	; a530 <_malloc_r+0x7c0>
    9da4:	e0872002 	add	r2, r7, r2
    9da8:	e5924004 	ldr	r4, [r2, #4]
    9dac:	e2423008 	sub	r3, r2, #8
    9db0:	e1540003 	cmp	r4, r3
    9db4:	0a000039 	beq	9ea0 <_malloc_r+0x130>
    9db8:	e5943004 	ldr	r3, [r4, #4]
    9dbc:	e594200c 	ldr	r2, [r4, #12]
    9dc0:	e5941008 	ldr	r1, [r4, #8]
    9dc4:	e3c33003 	bic	r3, r3, #3
    9dc8:	e0843003 	add	r3, r4, r3
    9dcc:	e581200c 	str	r2, [r1, #12]
    9dd0:	e5821008 	str	r1, [r2, #8]
    9dd4:	e5932004 	ldr	r2, [r3, #4]
    9dd8:	e3822001 	orr	r2, r2, #1
    9ddc:	e1a00006 	mov	r0, r6
    9de0:	e5832004 	str	r2, [r3, #4]
    9de4:	e2844008 	add	r4, r4, #8
    9de8:	eb0002a9 	bl	a894 <__malloc_unlock>
    9dec:	e1a00004 	mov	r0, r4
    9df0:	e28dd008 	add	sp, sp, #8
    9df4:	e8bd8ff0 	pop	{r4, r5, r6, r7, r8, r9, sl, fp, pc}
    9df8:	e3c35007 	bic	r5, r3, #7
    9dfc:	e1510005 	cmp	r1, r5
    9e00:	93a01000 	movls	r1, #0
    9e04:	83a01001 	movhi	r1, #1
    9e08:	e1913fa3 	orrs	r3, r1, r3, lsr #31
    9e0c:	1a00001d 	bne	9e88 <_malloc_r+0x118>
    9e10:	eb00029e 	bl	a890 <__malloc_lock>
    9e14:	e3550f7e 	cmp	r5, #504	; 0x1f8
    9e18:	3a000134 	bcc	a2f0 <_malloc_r+0x580>
    9e1c:	e1b034a5 	lsrs	r3, r5, #9
    9e20:	0a0000ad 	beq	a0dc <_malloc_r+0x36c>
    9e24:	e3530004 	cmp	r3, #4
    9e28:	8a00010c 	bhi	a260 <_malloc_r+0x4f0>
    9e2c:	e1a03325 	lsr	r3, r5, #6
    9e30:	e283c039 	add	ip, r3, #57	; 0x39
    9e34:	e283e038 	add	lr, r3, #56	; 0x38
    9e38:	e1a0018c 	lsl	r0, ip, #3
    9e3c:	e59f76ec 	ldr	r7, [pc, #1772]	; a530 <_malloc_r+0x7c0>
    9e40:	e0870000 	add	r0, r7, r0
    9e44:	e5903004 	ldr	r3, [r0, #4]
    9e48:	e2400008 	sub	r0, r0, #8
    9e4c:	e1500003 	cmp	r0, r3
    9e50:	1a000005 	bne	9e6c <_malloc_r+0xfc>
    9e54:	ea000015 	b	9eb0 <_malloc_r+0x140>
    9e58:	e3510000 	cmp	r1, #0
    9e5c:	aa0000d6 	bge	a1bc <_malloc_r+0x44c>
    9e60:	e593300c 	ldr	r3, [r3, #12]
    9e64:	e1500003 	cmp	r0, r3
    9e68:	0a000010 	beq	9eb0 <_malloc_r+0x140>
    9e6c:	e5932004 	ldr	r2, [r3, #4]
    9e70:	e3c22003 	bic	r2, r2, #3
    9e74:	e0421005 	sub	r1, r2, r5
    9e78:	e351000f 	cmp	r1, #15
    9e7c:	dafffff5 	ble	9e58 <_malloc_r+0xe8>
    9e80:	e1a0c00e 	mov	ip, lr
    9e84:	ea000009 	b	9eb0 <_malloc_r+0x140>
    9e88:	e3a04000 	mov	r4, #0
    9e8c:	e3a0300c 	mov	r3, #12
    9e90:	e1a00004 	mov	r0, r4
    9e94:	e5863000 	str	r3, [r6]
    9e98:	e28dd008 	add	sp, sp, #8
    9e9c:	e8bd8ff0 	pop	{r4, r5, r6, r7, r8, r9, sl, fp, pc}
    9ea0:	e592400c 	ldr	r4, [r2, #12]
    9ea4:	e1520004 	cmp	r2, r4
    9ea8:	028cc002 	addeq	ip, ip, #2
    9eac:	1affffc1 	bne	9db8 <_malloc_r+0x48>
    9eb0:	e5974010 	ldr	r4, [r7, #16]
    9eb4:	e59fe678 	ldr	lr, [pc, #1656]	; a534 <_malloc_r+0x7c4>
    9eb8:	e154000e 	cmp	r4, lr
    9ebc:	05973004 	ldreq	r3, [r7, #4]
    9ec0:	0a000018 	beq	9f28 <_malloc_r+0x1b8>
    9ec4:	e5941004 	ldr	r1, [r4, #4]
    9ec8:	e3c11003 	bic	r1, r1, #3
    9ecc:	e0412005 	sub	r2, r1, r5
    9ed0:	e352000f 	cmp	r2, #15
    9ed4:	ca000108 	bgt	a2fc <_malloc_r+0x58c>
    9ed8:	e3520000 	cmp	r2, #0
    9edc:	e587e014 	str	lr, [r7, #20]
    9ee0:	e587e010 	str	lr, [r7, #16]
    9ee4:	aa0000a0 	bge	a16c <_malloc_r+0x3fc>
    9ee8:	e3510c02 	cmp	r1, #512	; 0x200
    9eec:	2a0000c0 	bcs	a1f4 <_malloc_r+0x484>
    9ef0:	e3a00001 	mov	r0, #1
    9ef4:	e5973004 	ldr	r3, [r7, #4]
    9ef8:	e1a021a1 	lsr	r2, r1, #3
    9efc:	e0822000 	add	r2, r2, r0
    9f00:	e1a012a1 	lsr	r1, r1, #5
    9f04:	e1833110 	orr	r3, r3, r0, lsl r1
    9f08:	e7970182 	ldr	r0, [r7, r2, lsl #3]
    9f0c:	e0871182 	add	r1, r7, r2, lsl #3
    9f10:	e2411008 	sub	r1, r1, #8
    9f14:	e5873004 	str	r3, [r7, #4]
    9f18:	e5840008 	str	r0, [r4, #8]
    9f1c:	e584100c 	str	r1, [r4, #12]
    9f20:	e7874182 	str	r4, [r7, r2, lsl #3]
    9f24:	e580400c 	str	r4, [r0, #12]
    9f28:	e3a00001 	mov	r0, #1
    9f2c:	e1a0214c 	asr	r2, ip, #2
    9f30:	e1a00210 	lsl	r0, r0, r2
    9f34:	e1500003 	cmp	r0, r3
    9f38:	9a00006b 	bls	a0ec <_malloc_r+0x37c>
    9f3c:	e5974008 	ldr	r4, [r7, #8]
    9f40:	e5948004 	ldr	r8, [r4, #4]
    9f44:	e3c88003 	bic	r8, r8, #3
    9f48:	e1550008 	cmp	r5, r8
    9f4c:	93a02000 	movls	r2, #0
    9f50:	83a02001 	movhi	r2, #1
    9f54:	e0483005 	sub	r3, r8, r5
    9f58:	e353000f 	cmp	r3, #15
    9f5c:	d3822001 	orrle	r2, r2, #1
    9f60:	e3520000 	cmp	r2, #0
    9f64:	0a000088 	beq	a18c <_malloc_r+0x41c>
    9f68:	e5973408 	ldr	r3, [r7, #1032]	; 0x408
    9f6c:	e59fa5c4 	ldr	sl, [pc, #1476]	; a538 <_malloc_r+0x7c8>
    9f70:	e3730001 	cmn	r3, #1
    9f74:	e59a3000 	ldr	r3, [sl]
    9f78:	e0853003 	add	r3, r5, r3
    9f7c:	12833a01 	addne	r3, r3, #4096	; 0x1000
    9f80:	1283300f 	addne	r3, r3, #15
    9f84:	13c39eff 	bicne	r9, r3, #4080	; 0xff0
    9f88:	02839010 	addeq	r9, r3, #16
    9f8c:	13c9900f 	bicne	r9, r9, #15
    9f90:	e1a01009 	mov	r1, r9
    9f94:	e1a00006 	mov	r0, r6
    9f98:	eb0003a4 	bl	ae30 <_sbrk_r>
    9f9c:	e3700001 	cmn	r0, #1
    9fa0:	e1a02000 	mov	r2, r0
    9fa4:	e084b008 	add	fp, r4, r8
    9fa8:	0a000122 	beq	a438 <_malloc_r+0x6c8>
    9fac:	e1540007 	cmp	r4, r7
    9fb0:	115b0000 	cmpne	fp, r0
    9fb4:	8a00011f 	bhi	a438 <_malloc_r+0x6c8>
    9fb8:	e59a1004 	ldr	r1, [sl, #4]
    9fbc:	e15b0000 	cmp	fp, r0
    9fc0:	e0891001 	add	r1, r9, r1
    9fc4:	e58a1004 	str	r1, [sl, #4]
    9fc8:	0a000111 	beq	a414 <_malloc_r+0x6a4>
    9fcc:	e5973408 	ldr	r3, [r7, #1032]	; 0x408
    9fd0:	e3730001 	cmn	r3, #1
    9fd4:	1042b00b 	subne	fp, r2, fp
    9fd8:	108b1001 	addne	r1, fp, r1
    9fdc:	05872408 	streq	r2, [r7, #1032]	; 0x408
    9fe0:	158a1004 	strne	r1, [sl, #4]
    9fe4:	e212c007 	ands	ip, r2, #7
    9fe8:	1a0000da 	bne	a358 <_malloc_r+0x5e8>
    9fec:	e0821009 	add	r1, r2, r9
    9ff0:	e2611000 	rsb	r1, r1, #0
    9ff4:	e1a0ba01 	lsl	fp, r1, #20
    9ff8:	e1a0ba2b 	lsr	fp, fp, #20
    9ffc:	e1a0100b 	mov	r1, fp
    a000:	e1a00006 	mov	r0, r6
    a004:	e58dc004 	str	ip, [sp, #4]
    a008:	e58d2000 	str	r2, [sp]
    a00c:	eb000387 	bl	ae30 <_sbrk_r>
    a010:	e89d1004 	ldm	sp, {r2, ip}
    a014:	e3700001 	cmn	r0, #1
    a018:	01a0b00c 	moveq	fp, ip
    a01c:	0a000001 	beq	a028 <_malloc_r+0x2b8>
    a020:	e0403002 	sub	r3, r0, r2
    a024:	e083900b 	add	r9, r3, fp
    a028:	e59a1004 	ldr	r1, [sl, #4]
    a02c:	e3893001 	orr	r3, r9, #1
    a030:	e08b1001 	add	r1, fp, r1
    a034:	e1540007 	cmp	r4, r7
    a038:	e5872008 	str	r2, [r7, #8]
    a03c:	e58a1004 	str	r1, [sl, #4]
    a040:	e5823004 	str	r3, [r2, #4]
    a044:	0a000112 	beq	a494 <_malloc_r+0x724>
    a048:	e358000f 	cmp	r8, #15
    a04c:	93a03001 	movls	r3, #1
    a050:	95823004 	strls	r3, [r2, #4]
    a054:	9a00001c 	bls	a0cc <_malloc_r+0x35c>
    a058:	e3a0c005 	mov	ip, #5
    a05c:	e5940004 	ldr	r0, [r4, #4]
    a060:	e248300c 	sub	r3, r8, #12
    a064:	e3c33007 	bic	r3, r3, #7
    a068:	e2000001 	and	r0, r0, #1
    a06c:	e1800003 	orr	r0, r0, r3
    a070:	e353000f 	cmp	r3, #15
    a074:	e0843003 	add	r3, r4, r3
    a078:	e5840004 	str	r0, [r4, #4]
    a07c:	e583c004 	str	ip, [r3, #4]
    a080:	e583c008 	str	ip, [r3, #8]
    a084:	8a000113 	bhi	a4d8 <_malloc_r+0x768>
    a088:	e1a04002 	mov	r4, r2
    a08c:	e5923004 	ldr	r3, [r2, #4]
    a090:	e59a202c 	ldr	r2, [sl, #44]	; 0x2c
    a094:	e1520001 	cmp	r2, r1
    a098:	e59a2030 	ldr	r2, [sl, #48]	; 0x30
    a09c:	358a102c 	strcc	r1, [sl, #44]	; 0x2c
    a0a0:	e1520001 	cmp	r2, r1
    a0a4:	358a1030 	strcc	r1, [sl, #48]	; 0x30
    a0a8:	e3c39003 	bic	r9, r3, #3
    a0ac:	e0493005 	sub	r3, r9, r5
    a0b0:	e353000f 	cmp	r3, #15
    a0b4:	c3a02000 	movgt	r2, #0
    a0b8:	d3a02001 	movle	r2, #1
    a0bc:	e1550009 	cmp	r5, r9
    a0c0:	83822001 	orrhi	r2, r2, #1
    a0c4:	e3520000 	cmp	r2, #0
    a0c8:	0a00002f 	beq	a18c <_malloc_r+0x41c>
    a0cc:	e1a00006 	mov	r0, r6
    a0d0:	eb0001ef 	bl	a894 <__malloc_unlock>
    a0d4:	e3a04000 	mov	r4, #0
    a0d8:	eaffff43 	b	9dec <_malloc_r+0x7c>
    a0dc:	e3a00c02 	mov	r0, #512	; 0x200
    a0e0:	e3a0c040 	mov	ip, #64	; 0x40
    a0e4:	e3a0e03f 	mov	lr, #63	; 0x3f
    a0e8:	eaffff53 	b	9e3c <_malloc_r+0xcc>
    a0ec:	e1100003 	tst	r0, r3
    a0f0:	1a000008 	bne	a118 <_malloc_r+0x3a8>
    a0f4:	e1a00080 	lsl	r0, r0, #1
    a0f8:	e3ccc003 	bic	ip, ip, #3
    a0fc:	e1100003 	tst	r0, r3
    a100:	e28cc004 	add	ip, ip, #4
    a104:	1a000003 	bne	a118 <_malloc_r+0x3a8>
    a108:	e1a00080 	lsl	r0, r0, #1
    a10c:	e1100003 	tst	r0, r3
    a110:	e28cc004 	add	ip, ip, #4
    a114:	0afffffb 	beq	a108 <_malloc_r+0x398>
    a118:	e087a18c 	add	sl, r7, ip, lsl #3
    a11c:	e1a0300a 	mov	r3, sl
    a120:	e1a0900c 	mov	r9, ip
    a124:	e593100c 	ldr	r1, [r3, #12]
    a128:	ea000008 	b	a150 <_malloc_r+0x3e0>
    a12c:	e5912004 	ldr	r2, [r1, #4]
    a130:	e3c22003 	bic	r2, r2, #3
    a134:	e0428005 	sub	r8, r2, r5
    a138:	e358000f 	cmp	r8, #15
    a13c:	e1a04001 	mov	r4, r1
    a140:	e591100c 	ldr	r1, [r1, #12]
    a144:	ca00004e 	bgt	a284 <_malloc_r+0x514>
    a148:	e3580000 	cmp	r8, #0
    a14c:	aa00005d 	bge	a2c8 <_malloc_r+0x558>
    a150:	e1530001 	cmp	r3, r1
    a154:	1afffff4 	bne	a12c <_malloc_r+0x3bc>
    a158:	e2899001 	add	r9, r9, #1
    a15c:	e3190003 	tst	r9, #3
    a160:	e2833008 	add	r3, r3, #8
    a164:	1affffee 	bne	a124 <_malloc_r+0x3b4>
    a168:	ea000094 	b	a3c0 <_malloc_r+0x650>
    a16c:	e0841001 	add	r1, r4, r1
    a170:	e5912004 	ldr	r2, [r1, #4]
    a174:	e3822001 	orr	r2, r2, #1
    a178:	e1a00006 	mov	r0, r6
    a17c:	e5812004 	str	r2, [r1, #4]
    a180:	eb0001c3 	bl	a894 <__malloc_unlock>
    a184:	e2844008 	add	r4, r4, #8
    a188:	eaffff17 	b	9dec <_malloc_r+0x7c>
    a18c:	e0842005 	add	r2, r4, r5
    a190:	e3833001 	orr	r3, r3, #1
    a194:	e3855001 	orr	r5, r5, #1
    a198:	e5845004 	str	r5, [r4, #4]
    a19c:	e1a00006 	mov	r0, r6
    a1a0:	e5872008 	str	r2, [r7, #8]
    a1a4:	e2844008 	add	r4, r4, #8
    a1a8:	e5823004 	str	r3, [r2, #4]
    a1ac:	eb0001b8 	bl	a894 <__malloc_unlock>
    a1b0:	e1a00004 	mov	r0, r4
    a1b4:	e28dd008 	add	sp, sp, #8
    a1b8:	e8bd8ff0 	pop	{r4, r5, r6, r7, r8, r9, sl, fp, pc}
    a1bc:	e593100c 	ldr	r1, [r3, #12]
    a1c0:	e593c008 	ldr	ip, [r3, #8]
    a1c4:	e0832002 	add	r2, r3, r2
    a1c8:	e58c100c 	str	r1, [ip, #12]
    a1cc:	e581c008 	str	ip, [r1, #8]
    a1d0:	e5921004 	ldr	r1, [r2, #4]
    a1d4:	e2834008 	add	r4, r3, #8
    a1d8:	e3813001 	orr	r3, r1, #1
    a1dc:	e1a00006 	mov	r0, r6
    a1e0:	e5823004 	str	r3, [r2, #4]
    a1e4:	eb0001aa 	bl	a894 <__malloc_unlock>
    a1e8:	e1a00004 	mov	r0, r4
    a1ec:	e28dd008 	add	sp, sp, #8
    a1f0:	e8bd8ff0 	pop	{r4, r5, r6, r7, r8, r9, sl, fp, pc}
    a1f4:	e3510c0a 	cmp	r1, #2560	; 0xa00
    a1f8:	e1a034a1 	lsr	r3, r1, #9
    a1fc:	3a00004c 	bcc	a334 <_malloc_r+0x5c4>
    a200:	e3530014 	cmp	r3, #20
    a204:	8a000094 	bhi	a45c <_malloc_r+0x6ec>
    a208:	e283205c 	add	r2, r3, #92	; 0x5c
    a20c:	e1a02182 	lsl	r2, r2, #3
    a210:	e283305b 	add	r3, r3, #91	; 0x5b
    a214:	e7970002 	ldr	r0, [r7, r2]
    a218:	e0872002 	add	r2, r7, r2
    a21c:	e2422008 	sub	r2, r2, #8
    a220:	e1520000 	cmp	r2, r0
    a224:	0a000086 	beq	a444 <_malloc_r+0x6d4>
    a228:	e5903004 	ldr	r3, [r0, #4]
    a22c:	e3c33003 	bic	r3, r3, #3
    a230:	e1530001 	cmp	r3, r1
    a234:	9a000002 	bls	a244 <_malloc_r+0x4d4>
    a238:	e5900008 	ldr	r0, [r0, #8]
    a23c:	e1520000 	cmp	r2, r0
    a240:	1afffff8 	bne	a228 <_malloc_r+0x4b8>
    a244:	e590200c 	ldr	r2, [r0, #12]
    a248:	e5973004 	ldr	r3, [r7, #4]
    a24c:	e584200c 	str	r2, [r4, #12]
    a250:	e5840008 	str	r0, [r4, #8]
    a254:	e5824008 	str	r4, [r2, #8]
    a258:	e580400c 	str	r4, [r0, #12]
    a25c:	eaffff31 	b	9f28 <_malloc_r+0x1b8>
    a260:	e3530014 	cmp	r3, #20
    a264:	9a000037 	bls	a348 <_malloc_r+0x5d8>
    a268:	e3530054 	cmp	r3, #84	; 0x54
    a26c:	8a000081 	bhi	a478 <_malloc_r+0x708>
    a270:	e1a03625 	lsr	r3, r5, #12
    a274:	e283c06f 	add	ip, r3, #111	; 0x6f
    a278:	e283e06e 	add	lr, r3, #110	; 0x6e
    a27c:	e1a0018c 	lsl	r0, ip, #3
    a280:	eafffeed 	b	9e3c <_malloc_r+0xcc>
    a284:	e594c008 	ldr	ip, [r4, #8]
    a288:	e0843005 	add	r3, r4, r5
    a28c:	e3855001 	orr	r5, r5, #1
    a290:	e5845004 	str	r5, [r4, #4]
    a294:	e58c100c 	str	r1, [ip, #12]
    a298:	e581c008 	str	ip, [r1, #8]
    a29c:	e3881001 	orr	r1, r8, #1
    a2a0:	e5873014 	str	r3, [r7, #20]
    a2a4:	e5873010 	str	r3, [r7, #16]
    a2a8:	e1a00006 	mov	r0, r6
    a2ac:	e583e00c 	str	lr, [r3, #12]
    a2b0:	e583e008 	str	lr, [r3, #8]
    a2b4:	e5831004 	str	r1, [r3, #4]
    a2b8:	e7848002 	str	r8, [r4, r2]
    a2bc:	eb000174 	bl	a894 <__malloc_unlock>
    a2c0:	e2844008 	add	r4, r4, #8
    a2c4:	eafffec8 	b	9dec <_malloc_r+0x7c>
    a2c8:	e0842002 	add	r2, r4, r2
    a2cc:	e5923004 	ldr	r3, [r2, #4]
    a2d0:	e3833001 	orr	r3, r3, #1
    a2d4:	e5823004 	str	r3, [r2, #4]
    a2d8:	e5b43008 	ldr	r3, [r4, #8]!
    a2dc:	e1a00006 	mov	r0, r6
    a2e0:	e583100c 	str	r1, [r3, #12]
    a2e4:	e5813008 	str	r3, [r1, #8]
    a2e8:	eb000169 	bl	a894 <__malloc_unlock>
    a2ec:	eafffebe 	b	9dec <_malloc_r+0x7c>
    a2f0:	e1a0c1a5 	lsr	ip, r5, #3
    a2f4:	e2852008 	add	r2, r5, #8
    a2f8:	eafffea8 	b	9da0 <_malloc_r+0x30>
    a2fc:	e0843005 	add	r3, r4, r5
    a300:	e382c001 	orr	ip, r2, #1
    a304:	e3855001 	orr	r5, r5, #1
    a308:	e5845004 	str	r5, [r4, #4]
    a30c:	e1a00006 	mov	r0, r6
    a310:	e5873014 	str	r3, [r7, #20]
    a314:	e5873010 	str	r3, [r7, #16]
    a318:	e583e00c 	str	lr, [r3, #12]
    a31c:	e583e008 	str	lr, [r3, #8]
    a320:	e583c004 	str	ip, [r3, #4]
    a324:	e7842001 	str	r2, [r4, r1]
    a328:	eb000159 	bl	a894 <__malloc_unlock>
    a32c:	e2844008 	add	r4, r4, #8
    a330:	eafffead 	b	9dec <_malloc_r+0x7c>
    a334:	e1a03321 	lsr	r3, r1, #6
    a338:	e2832039 	add	r2, r3, #57	; 0x39
    a33c:	e1a02182 	lsl	r2, r2, #3
    a340:	e2833038 	add	r3, r3, #56	; 0x38
    a344:	eaffffb2 	b	a214 <_malloc_r+0x4a4>
    a348:	e283c05c 	add	ip, r3, #92	; 0x5c
    a34c:	e283e05b 	add	lr, r3, #91	; 0x5b
    a350:	e1a0018c 	lsl	r0, ip, #3
    a354:	eafffeb8 	b	9e3c <_malloc_r+0xcc>
    a358:	e26c3008 	rsb	r3, ip, #8
    a35c:	e0822003 	add	r2, r2, r3
    a360:	e26c1a01 	rsb	r1, ip, #4096	; 0x1000
    a364:	e0829009 	add	r9, r2, r9
    a368:	e2811008 	add	r1, r1, #8
    a36c:	e0411009 	sub	r1, r1, r9
    a370:	e1a0ba01 	lsl	fp, r1, #20
    a374:	e1a0ba2b 	lsr	fp, fp, #20
    a378:	e1a0100b 	mov	r1, fp
    a37c:	e1a00006 	mov	r0, r6
    a380:	e58d2004 	str	r2, [sp, #4]
    a384:	e58dc000 	str	ip, [sp]
    a388:	eb0002a8 	bl	ae30 <_sbrk_r>
    a38c:	e3700001 	cmn	r0, #1
    a390:	e59dc000 	ldr	ip, [sp]
    a394:	e59d2004 	ldr	r2, [sp, #4]
    a398:	1affff20 	bne	a020 <_malloc_r+0x2b0>
    a39c:	e24cc008 	sub	ip, ip, #8
    a3a0:	e089900c 	add	r9, r9, ip
    a3a4:	e3a0b000 	mov	fp, #0
    a3a8:	e0499002 	sub	r9, r9, r2
    a3ac:	eaffff1d 	b	a028 <_malloc_r+0x2b8>
    a3b0:	e41a3008 	ldr	r3, [sl], #-8
    a3b4:	e153000a 	cmp	r3, sl
    a3b8:	e24cc001 	sub	ip, ip, #1
    a3bc:	1a000059 	bne	a528 <_malloc_r+0x7b8>
    a3c0:	e31c0003 	tst	ip, #3
    a3c4:	1afffff9 	bne	a3b0 <_malloc_r+0x640>
    a3c8:	e5973004 	ldr	r3, [r7, #4]
    a3cc:	e1c33000 	bic	r3, r3, r0
    a3d0:	e5873004 	str	r3, [r7, #4]
    a3d4:	e1b00080 	lsls	r0, r0, #1
    a3d8:	13a02001 	movne	r2, #1
    a3dc:	03a02000 	moveq	r2, #0
    a3e0:	e1500003 	cmp	r0, r3
    a3e4:	83a02000 	movhi	r2, #0
    a3e8:	92022001 	andls	r2, r2, #1
    a3ec:	e3520000 	cmp	r2, #0
    a3f0:	0afffed1 	beq	9f3c <_malloc_r+0x1cc>
    a3f4:	e1100003 	tst	r0, r3
    a3f8:	1a000003 	bne	a40c <_malloc_r+0x69c>
    a3fc:	e1a00080 	lsl	r0, r0, #1
    a400:	e1100003 	tst	r0, r3
    a404:	e2899004 	add	r9, r9, #4
    a408:	0afffffb 	beq	a3fc <_malloc_r+0x68c>
    a40c:	e1a0c009 	mov	ip, r9
    a410:	eaffff40 	b	a118 <_malloc_r+0x3a8>
    a414:	e1a03a0b 	lsl	r3, fp, #20
    a418:	e1a03a23 	lsr	r3, r3, #20
    a41c:	e3530000 	cmp	r3, #0
    a420:	1afffee9 	bne	9fcc <_malloc_r+0x25c>
    a424:	e5974008 	ldr	r4, [r7, #8]
    a428:	e0883009 	add	r3, r8, r9
    a42c:	e3833001 	orr	r3, r3, #1
    a430:	e5843004 	str	r3, [r4, #4]
    a434:	eaffff15 	b	a090 <_malloc_r+0x320>
    a438:	e5974008 	ldr	r4, [r7, #8]
    a43c:	e5943004 	ldr	r3, [r4, #4]
    a440:	eaffff18 	b	a0a8 <_malloc_r+0x338>
    a444:	e3a08001 	mov	r8, #1
    a448:	e5971004 	ldr	r1, [r7, #4]
    a44c:	e1a03143 	asr	r3, r3, #2
    a450:	e1813318 	orr	r3, r1, r8, lsl r3
    a454:	e5873004 	str	r3, [r7, #4]
    a458:	eaffff7b 	b	a24c <_malloc_r+0x4dc>
    a45c:	e3530054 	cmp	r3, #84	; 0x54
    a460:	8a00000d 	bhi	a49c <_malloc_r+0x72c>
    a464:	e1a03621 	lsr	r3, r1, #12
    a468:	e283206f 	add	r2, r3, #111	; 0x6f
    a46c:	e1a02182 	lsl	r2, r2, #3
    a470:	e283306e 	add	r3, r3, #110	; 0x6e
    a474:	eaffff66 	b	a214 <_malloc_r+0x4a4>
    a478:	e3530f55 	cmp	r3, #340	; 0x154
    a47c:	8a00000d 	bhi	a4b8 <_malloc_r+0x748>
    a480:	e1a037a5 	lsr	r3, r5, #15
    a484:	e283c078 	add	ip, r3, #120	; 0x78
    a488:	e283e077 	add	lr, r3, #119	; 0x77
    a48c:	e1a0018c 	lsl	r0, ip, #3
    a490:	eafffe69 	b	9e3c <_malloc_r+0xcc>
    a494:	e1a04002 	mov	r4, r2
    a498:	eafffefc 	b	a090 <_malloc_r+0x320>
    a49c:	e3530f55 	cmp	r3, #340	; 0x154
    a4a0:	8a000013 	bhi	a4f4 <_malloc_r+0x784>
    a4a4:	e1a037a1 	lsr	r3, r1, #15
    a4a8:	e2832078 	add	r2, r3, #120	; 0x78
    a4ac:	e1a02182 	lsl	r2, r2, #3
    a4b0:	e2833077 	add	r3, r3, #119	; 0x77
    a4b4:	eaffff56 	b	a214 <_malloc_r+0x4a4>
    a4b8:	e59f207c 	ldr	r2, [pc, #124]	; a53c <_malloc_r+0x7cc>
    a4bc:	e1530002 	cmp	r3, r2
    a4c0:	8a000014 	bhi	a518 <_malloc_r+0x7a8>
    a4c4:	e1a03925 	lsr	r3, r5, #18
    a4c8:	e283c07d 	add	ip, r3, #125	; 0x7d
    a4cc:	e283e07c 	add	lr, r3, #124	; 0x7c
    a4d0:	e1a0018c 	lsl	r0, ip, #3
    a4d4:	eafffe58 	b	9e3c <_malloc_r+0xcc>
    a4d8:	e2841008 	add	r1, r4, #8
    a4dc:	e1a00006 	mov	r0, r6
    a4e0:	eb00045b 	bl	b654 <_free_r>
    a4e4:	e5974008 	ldr	r4, [r7, #8]
    a4e8:	e59a1004 	ldr	r1, [sl, #4]
    a4ec:	e5943004 	ldr	r3, [r4, #4]
    a4f0:	eafffee6 	b	a090 <_malloc_r+0x320>
    a4f4:	e59f2040 	ldr	r2, [pc, #64]	; a53c <_malloc_r+0x7cc>
    a4f8:	e1530002 	cmp	r3, r2
    a4fc:	91a03921 	lsrls	r3, r1, #18
    a500:	9283207d 	addls	r2, r3, #125	; 0x7d
    a504:	83a02ffe 	movhi	r2, #1016	; 0x3f8
    a508:	83a0307e 	movhi	r3, #126	; 0x7e
    a50c:	9283307c 	addls	r3, r3, #124	; 0x7c
    a510:	91a02182 	lslls	r2, r2, #3
    a514:	eaffff3e 	b	a214 <_malloc_r+0x4a4>
    a518:	e3a00ffe 	mov	r0, #1016	; 0x3f8
    a51c:	e3a0c07f 	mov	ip, #127	; 0x7f
    a520:	e3a0e07e 	mov	lr, #126	; 0x7e
    a524:	eafffe44 	b	9e3c <_malloc_r+0xcc>
    a528:	e5973004 	ldr	r3, [r7, #4]
    a52c:	eaffffa8 	b	a3d4 <_malloc_r+0x664>
    a530:	0001c4a0 	.word	0x0001c4a0
    a534:	0001c4a8 	.word	0x0001c4a8
    a538:	0001c984 	.word	0x0001c984
    a53c:	00000554 	.word	0x00000554

0000a540 <memchr>:
    a540:	e3100003 	tst	r0, #3
    a544:	e20110ff 	and	r1, r1, #255	; 0xff
    a548:	0a000030 	beq	a610 <memchr+0xd0>
    a54c:	e3520000 	cmp	r2, #0
    a550:	e1a03000 	mov	r3, r0
    a554:	e242c001 	sub	ip, r2, #1
    a558:	1a000002 	bne	a568 <memchr+0x28>
    a55c:	ea000017 	b	a5c0 <memchr+0x80>
    a560:	e25cc001 	subs	ip, ip, #1
    a564:	3a000015 	bcc	a5c0 <memchr+0x80>
    a568:	e1a00003 	mov	r0, r3
    a56c:	e4d32001 	ldrb	r2, [r3], #1
    a570:	e1520001 	cmp	r2, r1
    a574:	012fff1e 	bxeq	lr
    a578:	e3130003 	tst	r3, #3
    a57c:	e1a00003 	mov	r0, r3
    a580:	1afffff6 	bne	a560 <memchr+0x20>
    a584:	e35c0003 	cmp	ip, #3
    a588:	e92d4070 	push	{r4, r5, r6, lr}
    a58c:	8a00000d 	bhi	a5c8 <memchr+0x88>
    a590:	e35c0000 	cmp	ip, #0
    a594:	0a000007 	beq	a5b8 <memchr+0x78>
    a598:	e1a02000 	mov	r2, r0
    a59c:	e080300c 	add	r3, r0, ip
    a5a0:	e1a00002 	mov	r0, r2
    a5a4:	e4d2c001 	ldrb	ip, [r2], #1
    a5a8:	e15c0001 	cmp	ip, r1
    a5ac:	08bd8070 	popeq	{r4, r5, r6, pc}
    a5b0:	e1520003 	cmp	r2, r3
    a5b4:	1afffff9 	bne	a5a0 <memchr+0x60>
    a5b8:	e3a00000 	mov	r0, #0
    a5bc:	e8bd8070 	pop	{r4, r5, r6, pc}
    a5c0:	e3a00000 	mov	r0, #0
    a5c4:	e12fff1e 	bx	lr
    a5c8:	e1a02000 	mov	r2, r0
    a5cc:	e1814401 	orr	r4, r1, r1, lsl #8
    a5d0:	e59f6040 	ldr	r6, [pc, #64]	; a618 <memchr+0xd8>
    a5d4:	e59f5040 	ldr	r5, [pc, #64]	; a61c <memchr+0xdc>
    a5d8:	e1844804 	orr	r4, r4, r4, lsl #16
    a5dc:	e1a00002 	mov	r0, r2
    a5e0:	e5903000 	ldr	r3, [r0]
    a5e4:	e0233004 	eor	r3, r3, r4
    a5e8:	e083e006 	add	lr, r3, r6
    a5ec:	e1ce3003 	bic	r3, lr, r3
    a5f0:	e1130005 	tst	r3, r5
    a5f4:	e2822004 	add	r2, r2, #4
    a5f8:	1affffe6 	bne	a598 <memchr+0x58>
    a5fc:	e24cc004 	sub	ip, ip, #4
    a600:	e35c0003 	cmp	ip, #3
    a604:	e1a00002 	mov	r0, r2
    a608:	8afffff3 	bhi	a5dc <memchr+0x9c>
    a60c:	eaffffdf 	b	a590 <memchr+0x50>
    a610:	e1a0c002 	mov	ip, r2
    a614:	eaffffda 	b	a584 <memchr+0x44>
    a618:	fefefeff 	.word	0xfefefeff
    a61c:	80808080 	.word	0x80808080

0000a620 <memcpy>:
    a620:	e352000f 	cmp	r2, #15
    a624:	9a000035 	bls	a700 <memcpy+0xe0>
    a628:	e1803001 	orr	r3, r0, r1
    a62c:	e3130003 	tst	r3, #3
    a630:	1a00003e 	bne	a730 <memcpy+0x110>
    a634:	e242c010 	sub	ip, r2, #16
    a638:	e92d40f0 	push	{r4, r5, r6, r7, lr}
    a63c:	e2814020 	add	r4, r1, #32
    a640:	e3cce00f 	bic	lr, ip, #15
    a644:	e2813010 	add	r3, r1, #16
    a648:	e2806010 	add	r6, r0, #16
    a64c:	e084400e 	add	r4, r4, lr
    a650:	e1a0522c 	lsr	r5, ip, #4
    a654:	e513e00c 	ldr	lr, [r3, #-12]
    a658:	e513c008 	ldr	ip, [r3, #-8]
    a65c:	e5137010 	ldr	r7, [r3, #-16]
    a660:	e506e00c 	str	lr, [r6, #-12]
    a664:	e2833010 	add	r3, r3, #16
    a668:	e513e014 	ldr	lr, [r3, #-20]	; 0xffffffec
    a66c:	e1530004 	cmp	r3, r4
    a670:	e9065000 	stmdb	r6, {ip, lr}
    a674:	e5067010 	str	r7, [r6, #-16]
    a678:	e2866010 	add	r6, r6, #16
    a67c:	1afffff4 	bne	a654 <memcpy+0x34>
    a680:	e285c001 	add	ip, r5, #1
    a684:	e312000c 	tst	r2, #12
    a688:	e202300f 	and	r3, r2, #15
    a68c:	e081120c 	add	r1, r1, ip, lsl #4
    a690:	01a02003 	moveq	r2, r3
    a694:	e080c20c 	add	ip, r0, ip, lsl #4
    a698:	0a00000d 	beq	a6d4 <memcpy+0xb4>
    a69c:	e1a04001 	mov	r4, r1
    a6a0:	e2433004 	sub	r3, r3, #4
    a6a4:	e3c36003 	bic	r6, r3, #3
    a6a8:	e1a0e123 	lsr	lr, r3, #2
    a6ac:	e08c6006 	add	r6, ip, r6
    a6b0:	e24c3004 	sub	r3, ip, #4
    a6b4:	e4945004 	ldr	r5, [r4], #4
    a6b8:	e5a35004 	str	r5, [r3, #4]!
    a6bc:	e1530006 	cmp	r3, r6
    a6c0:	1afffffb 	bne	a6b4 <memcpy+0x94>
    a6c4:	e28e3001 	add	r3, lr, #1
    a6c8:	e2022003 	and	r2, r2, #3
    a6cc:	e08cc103 	add	ip, ip, r3, lsl #2
    a6d0:	e0811103 	add	r1, r1, r3, lsl #2
    a6d4:	e3520000 	cmp	r2, #0
    a6d8:	e2423001 	sub	r3, r2, #1
    a6dc:	08bd80f0 	popeq	{r4, r5, r6, r7, pc}
    a6e0:	e2833001 	add	r3, r3, #1
    a6e4:	e24c2001 	sub	r2, ip, #1
    a6e8:	e0813003 	add	r3, r1, r3
    a6ec:	e4d1c001 	ldrb	ip, [r1], #1
    a6f0:	e1510003 	cmp	r1, r3
    a6f4:	e5e2c001 	strb	ip, [r2, #1]!
    a6f8:	1afffffb 	bne	a6ec <memcpy+0xcc>
    a6fc:	e8bd80f0 	pop	{r4, r5, r6, r7, pc}
    a700:	e3520000 	cmp	r2, #0
    a704:	e1a0c000 	mov	ip, r0
    a708:	e2423001 	sub	r3, r2, #1
    a70c:	012fff1e 	bxeq	lr
    a710:	e2833001 	add	r3, r3, #1
    a714:	e24c2001 	sub	r2, ip, #1
    a718:	e0813003 	add	r3, r1, r3
    a71c:	e4d1c001 	ldrb	ip, [r1], #1
    a720:	e1510003 	cmp	r1, r3
    a724:	e5e2c001 	strb	ip, [r2, #1]!
    a728:	1afffffb 	bne	a71c <memcpy+0xfc>
    a72c:	e12fff1e 	bx	lr
    a730:	e1a0c000 	mov	ip, r0
    a734:	e2423001 	sub	r3, r2, #1
    a738:	eafffff4 	b	a710 <memcpy+0xf0>

0000a73c <memmove>:
    a73c:	e1500001 	cmp	r0, r1
    a740:	9a00000a 	bls	a770 <memmove+0x34>
    a744:	e0813002 	add	r3, r1, r2
    a748:	e1530000 	cmp	r3, r0
    a74c:	9a000007 	bls	a770 <memmove+0x34>
    a750:	e3520000 	cmp	r2, #0
    a754:	e0802002 	add	r2, r0, r2
    a758:	012fff1e 	bxeq	lr
    a75c:	e573c001 	ldrb	ip, [r3, #-1]!
    a760:	e1510003 	cmp	r1, r3
    a764:	e562c001 	strb	ip, [r2, #-1]!
    a768:	1afffffb 	bne	a75c <memmove+0x20>
    a76c:	e12fff1e 	bx	lr
    a770:	e352000f 	cmp	r2, #15
    a774:	8a00000b 	bhi	a7a8 <memmove+0x6c>
    a778:	e3520000 	cmp	r2, #0
    a77c:	e1a0c000 	mov	ip, r0
    a780:	e2422001 	sub	r2, r2, #1
    a784:	012fff1e 	bxeq	lr
    a788:	e2822001 	add	r2, r2, #1
    a78c:	e24cc001 	sub	ip, ip, #1
    a790:	e0813002 	add	r3, r1, r2
    a794:	e4d12001 	ldrb	r2, [r1], #1
    a798:	e1510003 	cmp	r1, r3
    a79c:	e5ec2001 	strb	r2, [ip, #1]!
    a7a0:	1afffffb 	bne	a794 <memmove+0x58>
    a7a4:	e12fff1e 	bx	lr
    a7a8:	e1803001 	orr	r3, r0, r1
    a7ac:	e3130003 	tst	r3, #3
    a7b0:	1a000033 	bne	a884 <memmove+0x148>
    a7b4:	e242c010 	sub	ip, r2, #16
    a7b8:	e92d4070 	push	{r4, r5, r6, lr}
    a7bc:	e3cc300f 	bic	r3, ip, #15
    a7c0:	e281e020 	add	lr, r1, #32
    a7c4:	e2814010 	add	r4, r1, #16
    a7c8:	e2805010 	add	r5, r0, #16
    a7cc:	e08ee003 	add	lr, lr, r3
    a7d0:	e1a0c22c 	lsr	ip, ip, #4
    a7d4:	e5143010 	ldr	r3, [r4, #-16]
    a7d8:	e5053010 	str	r3, [r5, #-16]
    a7dc:	e514300c 	ldr	r3, [r4, #-12]
    a7e0:	e505300c 	str	r3, [r5, #-12]
    a7e4:	e5143008 	ldr	r3, [r4, #-8]
    a7e8:	e5053008 	str	r3, [r5, #-8]
    a7ec:	e2844010 	add	r4, r4, #16
    a7f0:	e5143014 	ldr	r3, [r4, #-20]	; 0xffffffec
    a7f4:	e154000e 	cmp	r4, lr
    a7f8:	e5053004 	str	r3, [r5, #-4]
    a7fc:	e2855010 	add	r5, r5, #16
    a800:	1afffff3 	bne	a7d4 <memmove+0x98>
    a804:	e28cc001 	add	ip, ip, #1
    a808:	e312000c 	tst	r2, #12
    a80c:	e202300f 	and	r3, r2, #15
    a810:	e081120c 	add	r1, r1, ip, lsl #4
    a814:	01a02003 	moveq	r2, r3
    a818:	e080c20c 	add	ip, r0, ip, lsl #4
    a81c:	0a00000d 	beq	a858 <memmove+0x11c>
    a820:	e1a04001 	mov	r4, r1
    a824:	e2433004 	sub	r3, r3, #4
    a828:	e3c36003 	bic	r6, r3, #3
    a82c:	e1a0e123 	lsr	lr, r3, #2
    a830:	e08c6006 	add	r6, ip, r6
    a834:	e24c3004 	sub	r3, ip, #4
    a838:	e4945004 	ldr	r5, [r4], #4
    a83c:	e5a35004 	str	r5, [r3, #4]!
    a840:	e1530006 	cmp	r3, r6
    a844:	1afffffb 	bne	a838 <memmove+0xfc>
    a848:	e28e3001 	add	r3, lr, #1
    a84c:	e2022003 	and	r2, r2, #3
    a850:	e08cc103 	add	ip, ip, r3, lsl #2
    a854:	e0811103 	add	r1, r1, r3, lsl #2
    a858:	e3520000 	cmp	r2, #0
    a85c:	e2422001 	sub	r2, r2, #1
    a860:	08bd8070 	popeq	{r4, r5, r6, pc}
    a864:	e2822001 	add	r2, r2, #1
    a868:	e24cc001 	sub	ip, ip, #1
    a86c:	e0813002 	add	r3, r1, r2
    a870:	e4d12001 	ldrb	r2, [r1], #1
    a874:	e1510003 	cmp	r1, r3
    a878:	e5ec2001 	strb	r2, [ip, #1]!
    a87c:	1afffffb 	bne	a870 <memmove+0x134>
    a880:	e8bd8070 	pop	{r4, r5, r6, pc}
    a884:	e1a0c000 	mov	ip, r0
    a888:	e2422001 	sub	r2, r2, #1
    a88c:	eaffffbd 	b	a788 <memmove+0x4c>

0000a890 <__malloc_lock>:
    a890:	e12fff1e 	bx	lr

0000a894 <__malloc_unlock>:
    a894:	e12fff1e 	bx	lr

0000a898 <_realloc_r>:
    a898:	e92d4ff0 	push	{r4, r5, r6, r7, r8, r9, sl, fp, lr}
    a89c:	e2514000 	subs	r4, r1, #0
    a8a0:	e1a06002 	mov	r6, r2
    a8a4:	0a000078 	beq	aa8c <_realloc_r+0x1f4>
    a8a8:	e286500b 	add	r5, r6, #11
    a8ac:	e1a08000 	mov	r8, r0
    a8b0:	ebfffff6 	bl	a890 <__malloc_lock>
    a8b4:	e3550016 	cmp	r5, #22
    a8b8:	93a02010 	movls	r2, #16
    a8bc:	93a03000 	movls	r3, #0
    a8c0:	91a05002 	movls	r5, r2
    a8c4:	83c55007 	bichi	r5, r5, #7
    a8c8:	81a03fa5 	lsrhi	r3, r5, #31
    a8cc:	81a02005 	movhi	r2, r5
    a8d0:	e1550006 	cmp	r5, r6
    a8d4:	33833001 	orrcc	r3, r3, #1
    a8d8:	e3530000 	cmp	r3, #0
    a8dc:	13a0300c 	movne	r3, #12
    a8e0:	e5141004 	ldr	r1, [r4, #-4]
    a8e4:	13a06000 	movne	r6, #0
    a8e8:	15883000 	strne	r3, [r8]
    a8ec:	e2449008 	sub	r9, r4, #8
    a8f0:	e3c17003 	bic	r7, r1, #3
    a8f4:	1a00003a 	bne	a9e4 <_realloc_r+0x14c>
    a8f8:	e1570002 	cmp	r7, r2
    a8fc:	e089a007 	add	sl, r9, r7
    a900:	aa00003f 	bge	aa04 <_realloc_r+0x16c>
    a904:	e59f3520 	ldr	r3, [pc, #1312]	; ae2c <_realloc_r+0x594>
    a908:	e593c008 	ldr	ip, [r3, #8]
    a90c:	e15c000a 	cmp	ip, sl
    a910:	e59a0004 	ldr	r0, [sl, #4]
    a914:	0a00005f 	beq	aa98 <_realloc_r+0x200>
    a918:	e3c03001 	bic	r3, r0, #1
    a91c:	e08a3003 	add	r3, sl, r3
    a920:	e5933004 	ldr	r3, [r3, #4]
    a924:	e3130001 	tst	r3, #1
    a928:	1a000050 	bne	aa70 <_realloc_r+0x1d8>
    a92c:	e3c00003 	bic	r0, r0, #3
    a930:	e0873000 	add	r3, r7, r0
    a934:	e1530002 	cmp	r3, r2
    a938:	aa00002b 	bge	a9ec <_realloc_r+0x154>
    a93c:	e3110001 	tst	r1, #1
    a940:	1a00000a 	bne	a970 <_realloc_r+0xd8>
    a944:	e514b008 	ldr	fp, [r4, #-8]
    a948:	e049b00b 	sub	fp, r9, fp
    a94c:	e59b1004 	ldr	r1, [fp, #4]
    a950:	e3c11003 	bic	r1, r1, #3
    a954:	e0810000 	add	r0, r1, r0
    a958:	e0800007 	add	r0, r0, r7
    a95c:	e1500002 	cmp	r0, r2
    a960:	aa0000af 	bge	ac24 <_realloc_r+0x38c>
    a964:	e0873001 	add	r3, r7, r1
    a968:	e1530002 	cmp	r3, r2
    a96c:	aa00008b 	bge	aba0 <_realloc_r+0x308>
    a970:	e1a01006 	mov	r1, r6
    a974:	e1a00008 	mov	r0, r8
    a978:	ebfffcfc 	bl	9d70 <_malloc_r>
    a97c:	e2506000 	subs	r6, r0, #0
    a980:	0a000015 	beq	a9dc <_realloc_r+0x144>
    a984:	e5143004 	ldr	r3, [r4, #-4]
    a988:	e3c33001 	bic	r3, r3, #1
    a98c:	e0893003 	add	r3, r9, r3
    a990:	e2462008 	sub	r2, r6, #8
    a994:	e1530002 	cmp	r3, r2
    a998:	0a000072 	beq	ab68 <_realloc_r+0x2d0>
    a99c:	e2472004 	sub	r2, r7, #4
    a9a0:	e3520024 	cmp	r2, #36	; 0x24
    a9a4:	8a00009b 	bhi	ac18 <_realloc_r+0x380>
    a9a8:	e3520013 	cmp	r2, #19
    a9ac:	91a03006 	movls	r3, r6
    a9b0:	91a02004 	movls	r2, r4
    a9b4:	e5941000 	ldr	r1, [r4]
    a9b8:	8a00006f 	bhi	ab7c <_realloc_r+0x2e4>
    a9bc:	e5831000 	str	r1, [r3]
    a9c0:	e5921004 	ldr	r1, [r2, #4]
    a9c4:	e5831004 	str	r1, [r3, #4]
    a9c8:	e5922008 	ldr	r2, [r2, #8]
    a9cc:	e5832008 	str	r2, [r3, #8]
    a9d0:	e1a01004 	mov	r1, r4
    a9d4:	e1a00008 	mov	r0, r8
    a9d8:	eb00031d 	bl	b654 <_free_r>
    a9dc:	e1a00008 	mov	r0, r8
    a9e0:	ebffffab 	bl	a894 <__malloc_unlock>
    a9e4:	e1a00006 	mov	r0, r6
    a9e8:	e8bd8ff0 	pop	{r4, r5, r6, r7, r8, r9, sl, fp, pc}
    a9ec:	e1a07003 	mov	r7, r3
    a9f0:	e28a1008 	add	r1, sl, #8
    a9f4:	e8910006 	ldm	r1, {r1, r2}
    a9f8:	e581200c 	str	r2, [r1, #12]
    a9fc:	e5821008 	str	r1, [r2, #8]
    aa00:	e089a003 	add	sl, r9, r3
    aa04:	e5993004 	ldr	r3, [r9, #4]
    aa08:	e0472005 	sub	r2, r7, r5
    aa0c:	e352000f 	cmp	r2, #15
    aa10:	e2033001 	and	r3, r3, #1
    aa14:	8a000009 	bhi	aa40 <_realloc_r+0x1a8>
    aa18:	e1873003 	orr	r3, r7, r3
    aa1c:	e5893004 	str	r3, [r9, #4]
    aa20:	e59a3004 	ldr	r3, [sl, #4]
    aa24:	e3833001 	orr	r3, r3, #1
    aa28:	e58a3004 	str	r3, [sl, #4]
    aa2c:	e1a06004 	mov	r6, r4
    aa30:	e1a00008 	mov	r0, r8
    aa34:	ebffff96 	bl	a894 <__malloc_unlock>
    aa38:	e1a00006 	mov	r0, r6
    aa3c:	e8bd8ff0 	pop	{r4, r5, r6, r7, r8, r9, sl, fp, pc}
    aa40:	e1853003 	orr	r3, r5, r3
    aa44:	e0891005 	add	r1, r9, r5
    aa48:	e3822001 	orr	r2, r2, #1
    aa4c:	e5893004 	str	r3, [r9, #4]
    aa50:	e5812004 	str	r2, [r1, #4]
    aa54:	e59a3004 	ldr	r3, [sl, #4]
    aa58:	e3833001 	orr	r3, r3, #1
    aa5c:	e1a00008 	mov	r0, r8
    aa60:	e58a3004 	str	r3, [sl, #4]
    aa64:	e2811008 	add	r1, r1, #8
    aa68:	eb0002f9 	bl	b654 <_free_r>
    aa6c:	eaffffee 	b	aa2c <_realloc_r+0x194>
    aa70:	e3110001 	tst	r1, #1
    aa74:	1affffbd 	bne	a970 <_realloc_r+0xd8>
    aa78:	e514b008 	ldr	fp, [r4, #-8]
    aa7c:	e049b00b 	sub	fp, r9, fp
    aa80:	e59b1004 	ldr	r1, [fp, #4]
    aa84:	e3c11003 	bic	r1, r1, #3
    aa88:	eaffffb5 	b	a964 <_realloc_r+0xcc>
    aa8c:	e1a01002 	mov	r1, r2
    aa90:	e8bd4ff0 	pop	{r4, r5, r6, r7, r8, r9, sl, fp, lr}
    aa94:	eafffcb5 	b	9d70 <_malloc_r>
    aa98:	e3c00003 	bic	r0, r0, #3
    aa9c:	e087e000 	add	lr, r7, r0
    aaa0:	e285c010 	add	ip, r5, #16
    aaa4:	e15e000c 	cmp	lr, ip
    aaa8:	aa000096 	bge	ad08 <_realloc_r+0x470>
    aaac:	e3110001 	tst	r1, #1
    aab0:	1affffae 	bne	a970 <_realloc_r+0xd8>
    aab4:	e514b008 	ldr	fp, [r4, #-8]
    aab8:	e049b00b 	sub	fp, r9, fp
    aabc:	e59b1004 	ldr	r1, [fp, #4]
    aac0:	e3c11003 	bic	r1, r1, #3
    aac4:	e0810000 	add	r0, r1, r0
    aac8:	e080a007 	add	sl, r0, r7
    aacc:	e15c000a 	cmp	ip, sl
    aad0:	caffffa3 	bgt	a964 <_realloc_r+0xcc>
    aad4:	e1a0600b 	mov	r6, fp
    aad8:	e59b100c 	ldr	r1, [fp, #12]
    aadc:	e5b60008 	ldr	r0, [r6, #8]!
    aae0:	e2472004 	sub	r2, r7, #4
    aae4:	e3520024 	cmp	r2, #36	; 0x24
    aae8:	e580100c 	str	r1, [r0, #12]
    aaec:	e5810008 	str	r0, [r1, #8]
    aaf0:	8a0000b8 	bhi	add8 <_realloc_r+0x540>
    aaf4:	e3520013 	cmp	r2, #19
    aaf8:	91a02006 	movls	r2, r6
    aafc:	e5941000 	ldr	r1, [r4]
    ab00:	9a000007 	bls	ab24 <_realloc_r+0x28c>
    ab04:	e58b1008 	str	r1, [fp, #8]
    ab08:	e5941004 	ldr	r1, [r4, #4]
    ab0c:	e352001b 	cmp	r2, #27
    ab10:	e58b100c 	str	r1, [fp, #12]
    ab14:	8a0000b4 	bhi	adec <_realloc_r+0x554>
    ab18:	e5941008 	ldr	r1, [r4, #8]
    ab1c:	e28b2010 	add	r2, fp, #16
    ab20:	e2844008 	add	r4, r4, #8
    ab24:	e5821000 	str	r1, [r2]
    ab28:	e5941004 	ldr	r1, [r4, #4]
    ab2c:	e5821004 	str	r1, [r2, #4]
    ab30:	e5941008 	ldr	r1, [r4, #8]
    ab34:	e5821008 	str	r1, [r2, #8]
    ab38:	e04a2005 	sub	r2, sl, r5
    ab3c:	e08b1005 	add	r1, fp, r5
    ab40:	e3822001 	orr	r2, r2, #1
    ab44:	e5831008 	str	r1, [r3, #8]
    ab48:	e5812004 	str	r2, [r1, #4]
    ab4c:	e59b3004 	ldr	r3, [fp, #4]
    ab50:	e2033001 	and	r3, r3, #1
    ab54:	e1835005 	orr	r5, r3, r5
    ab58:	e1a00008 	mov	r0, r8
    ab5c:	e58b5004 	str	r5, [fp, #4]
    ab60:	ebffff4b 	bl	a894 <__malloc_unlock>
    ab64:	eaffff9e 	b	a9e4 <_realloc_r+0x14c>
    ab68:	e5163004 	ldr	r3, [r6, #-4]
    ab6c:	e3c33003 	bic	r3, r3, #3
    ab70:	e0877003 	add	r7, r7, r3
    ab74:	e089a007 	add	sl, r9, r7
    ab78:	eaffffa1 	b	aa04 <_realloc_r+0x16c>
    ab7c:	e5861000 	str	r1, [r6]
    ab80:	e5943004 	ldr	r3, [r4, #4]
    ab84:	e352001b 	cmp	r2, #27
    ab88:	e5863004 	str	r3, [r6, #4]
    ab8c:	8a000046 	bhi	acac <_realloc_r+0x414>
    ab90:	e5941008 	ldr	r1, [r4, #8]
    ab94:	e2842008 	add	r2, r4, #8
    ab98:	e2863008 	add	r3, r6, #8
    ab9c:	eaffff86 	b	a9bc <_realloc_r+0x124>
    aba0:	e1a0600b 	mov	r6, fp
    aba4:	e59b100c 	ldr	r1, [fp, #12]
    aba8:	e5b60008 	ldr	r0, [r6, #8]!
    abac:	e2472004 	sub	r2, r7, #4
    abb0:	e3520024 	cmp	r2, #36	; 0x24
    abb4:	e580100c 	str	r1, [r0, #12]
    abb8:	e08ba003 	add	sl, fp, r3
    abbc:	e5810008 	str	r0, [r1, #8]
    abc0:	8a000049 	bhi	acec <_realloc_r+0x454>
    abc4:	e3520013 	cmp	r2, #19
    abc8:	91a02006 	movls	r2, r6
    abcc:	e5941000 	ldr	r1, [r4]
    abd0:	9a000007 	bls	abf4 <_realloc_r+0x35c>
    abd4:	e58b1008 	str	r1, [fp, #8]
    abd8:	e5941004 	ldr	r1, [r4, #4]
    abdc:	e352001b 	cmp	r2, #27
    abe0:	e58b100c 	str	r1, [fp, #12]
    abe4:	8a00005b 	bhi	ad58 <_realloc_r+0x4c0>
    abe8:	e5941008 	ldr	r1, [r4, #8]
    abec:	e28b2010 	add	r2, fp, #16
    abf0:	e2844008 	add	r4, r4, #8
    abf4:	e5821000 	str	r1, [r2]
    abf8:	e1a07003 	mov	r7, r3
    abfc:	e5943004 	ldr	r3, [r4, #4]
    ac00:	e5823004 	str	r3, [r2, #4]
    ac04:	e5943008 	ldr	r3, [r4, #8]
    ac08:	e1a0900b 	mov	r9, fp
    ac0c:	e1a04006 	mov	r4, r6
    ac10:	e5823008 	str	r3, [r2, #8]
    ac14:	eaffff7a 	b	aa04 <_realloc_r+0x16c>
    ac18:	e1a01004 	mov	r1, r4
    ac1c:	ebfffec6 	bl	a73c <memmove>
    ac20:	eaffff6a 	b	a9d0 <_realloc_r+0x138>
    ac24:	e1a0600b 	mov	r6, fp
    ac28:	e28a1008 	add	r1, sl, #8
    ac2c:	e891000a 	ldm	r1, {r1, r3}
    ac30:	e581300c 	str	r3, [r1, #12]
    ac34:	e5831008 	str	r1, [r3, #8]
    ac38:	e2472004 	sub	r2, r7, #4
    ac3c:	e59b300c 	ldr	r3, [fp, #12]
    ac40:	e5b61008 	ldr	r1, [r6, #8]!
    ac44:	e3520024 	cmp	r2, #36	; 0x24
    ac48:	e581300c 	str	r3, [r1, #12]
    ac4c:	e08ba000 	add	sl, fp, r0
    ac50:	e5831008 	str	r1, [r3, #8]
    ac54:	8a000038 	bhi	ad3c <_realloc_r+0x4a4>
    ac58:	e3520013 	cmp	r2, #19
    ac5c:	91a03006 	movls	r3, r6
    ac60:	e5941000 	ldr	r1, [r4]
    ac64:	9a000007 	bls	ac88 <_realloc_r+0x3f0>
    ac68:	e58b1008 	str	r1, [fp, #8]
    ac6c:	e5943004 	ldr	r3, [r4, #4]
    ac70:	e352001b 	cmp	r2, #27
    ac74:	e58b300c 	str	r3, [fp, #12]
    ac78:	8a000046 	bhi	ad98 <_realloc_r+0x500>
    ac7c:	e5941008 	ldr	r1, [r4, #8]
    ac80:	e28b3010 	add	r3, fp, #16
    ac84:	e2844008 	add	r4, r4, #8
    ac88:	e5831000 	str	r1, [r3]
    ac8c:	e5942004 	ldr	r2, [r4, #4]
    ac90:	e5832004 	str	r2, [r3, #4]
    ac94:	e5942008 	ldr	r2, [r4, #8]
    ac98:	e1a07000 	mov	r7, r0
    ac9c:	e1a0900b 	mov	r9, fp
    aca0:	e1a04006 	mov	r4, r6
    aca4:	e5832008 	str	r2, [r3, #8]
    aca8:	eaffff55 	b	aa04 <_realloc_r+0x16c>
    acac:	e5943008 	ldr	r3, [r4, #8]
    acb0:	e5863008 	str	r3, [r6, #8]
    acb4:	e594300c 	ldr	r3, [r4, #12]
    acb8:	e586300c 	str	r3, [r6, #12]
    acbc:	e3520024 	cmp	r2, #36	; 0x24
    acc0:	05943010 	ldreq	r3, [r4, #16]
    acc4:	05863010 	streq	r3, [r6, #16]
    acc8:	05941014 	ldreq	r1, [r4, #20]
    accc:	05861014 	streq	r1, [r6, #20]
    acd0:	15941010 	ldrne	r1, [r4, #16]
    acd4:	05941018 	ldreq	r1, [r4, #24]
    acd8:	12842010 	addne	r2, r4, #16
    acdc:	12863010 	addne	r3, r6, #16
    ace0:	02842018 	addeq	r2, r4, #24
    ace4:	02863018 	addeq	r3, r6, #24
    ace8:	eaffff33 	b	a9bc <_realloc_r+0x124>
    acec:	e1a01004 	mov	r1, r4
    acf0:	e1a00006 	mov	r0, r6
    acf4:	e1a07003 	mov	r7, r3
    acf8:	e1a0900b 	mov	r9, fp
    acfc:	ebfffe8e 	bl	a73c <memmove>
    ad00:	e1a04006 	mov	r4, r6
    ad04:	eaffff3e 	b	aa04 <_realloc_r+0x16c>
    ad08:	e0899005 	add	r9, r9, r5
    ad0c:	e04ee005 	sub	lr, lr, r5
    ad10:	e5839008 	str	r9, [r3, #8]
    ad14:	e38e3001 	orr	r3, lr, #1
    ad18:	e5893004 	str	r3, [r9, #4]
    ad1c:	e5143004 	ldr	r3, [r4, #-4]
    ad20:	e2033001 	and	r3, r3, #1
    ad24:	e1835005 	orr	r5, r3, r5
    ad28:	e1a00008 	mov	r0, r8
    ad2c:	e5045004 	str	r5, [r4, #-4]
    ad30:	e1a06004 	mov	r6, r4
    ad34:	ebfffed6 	bl	a894 <__malloc_unlock>
    ad38:	eaffff29 	b	a9e4 <_realloc_r+0x14c>
    ad3c:	e1a01004 	mov	r1, r4
    ad40:	e1a07000 	mov	r7, r0
    ad44:	e1a00006 	mov	r0, r6
    ad48:	e1a0900b 	mov	r9, fp
    ad4c:	ebfffe7a 	bl	a73c <memmove>
    ad50:	e1a04006 	mov	r4, r6
    ad54:	eaffff2a 	b	aa04 <_realloc_r+0x16c>
    ad58:	e3520024 	cmp	r2, #36	; 0x24
    ad5c:	e5942008 	ldr	r2, [r4, #8]
    ad60:	e58b2010 	str	r2, [fp, #16]
    ad64:	e594200c 	ldr	r2, [r4, #12]
    ad68:	e58b2014 	str	r2, [fp, #20]
    ad6c:	05942010 	ldreq	r2, [r4, #16]
    ad70:	058b2018 	streq	r2, [fp, #24]
    ad74:	05941014 	ldreq	r1, [r4, #20]
    ad78:	058b101c 	streq	r1, [fp, #28]
    ad7c:	02844018 	addeq	r4, r4, #24
    ad80:	15941010 	ldrne	r1, [r4, #16]
    ad84:	05941000 	ldreq	r1, [r4]
    ad88:	12844010 	addne	r4, r4, #16
    ad8c:	128b2018 	addne	r2, fp, #24
    ad90:	028b2020 	addeq	r2, fp, #32
    ad94:	eaffff96 	b	abf4 <_realloc_r+0x35c>
    ad98:	e5943008 	ldr	r3, [r4, #8]
    ad9c:	e58b3010 	str	r3, [fp, #16]
    ada0:	e594300c 	ldr	r3, [r4, #12]
    ada4:	e58b3014 	str	r3, [fp, #20]
    ada8:	e3520024 	cmp	r2, #36	; 0x24
    adac:	05943010 	ldreq	r3, [r4, #16]
    adb0:	058b3018 	streq	r3, [fp, #24]
    adb4:	05942014 	ldreq	r2, [r4, #20]
    adb8:	058b201c 	streq	r2, [fp, #28]
    adbc:	02844018 	addeq	r4, r4, #24
    adc0:	15941010 	ldrne	r1, [r4, #16]
    adc4:	05941000 	ldreq	r1, [r4]
    adc8:	12844010 	addne	r4, r4, #16
    adcc:	128b3018 	addne	r3, fp, #24
    add0:	028b3020 	addeq	r3, fp, #32
    add4:	eaffffab 	b	ac88 <_realloc_r+0x3f0>
    add8:	e1a01004 	mov	r1, r4
    addc:	e1a00006 	mov	r0, r6
    ade0:	ebfffe55 	bl	a73c <memmove>
    ade4:	e59f3040 	ldr	r3, [pc, #64]	; ae2c <_realloc_r+0x594>
    ade8:	eaffff52 	b	ab38 <_realloc_r+0x2a0>
    adec:	e3520024 	cmp	r2, #36	; 0x24
    adf0:	e5942008 	ldr	r2, [r4, #8]
    adf4:	e58b2010 	str	r2, [fp, #16]
    adf8:	e594200c 	ldr	r2, [r4, #12]
    adfc:	e58b2014 	str	r2, [fp, #20]
    ae00:	05942010 	ldreq	r2, [r4, #16]
    ae04:	058b2018 	streq	r2, [fp, #24]
    ae08:	05941014 	ldreq	r1, [r4, #20]
    ae0c:	058b101c 	streq	r1, [fp, #28]
    ae10:	02844018 	addeq	r4, r4, #24
    ae14:	15941010 	ldrne	r1, [r4, #16]
    ae18:	05941000 	ldreq	r1, [r4]
    ae1c:	12844010 	addne	r4, r4, #16
    ae20:	128b2018 	addne	r2, fp, #24
    ae24:	028b2020 	addeq	r2, fp, #32
    ae28:	eaffff3d 	b	ab24 <_realloc_r+0x28c>
    ae2c:	0001c4a0 	.word	0x0001c4a0

0000ae30 <_sbrk_r>:
    ae30:	e3a02000 	mov	r2, #0
    ae34:	e92d4030 	push	{r4, r5, lr}
    ae38:	e59f5024 	ldr	r5, [pc, #36]	; ae64 <_sbrk_r+0x34>
    ae3c:	e1a04000 	mov	r4, r0
    ae40:	e1a00001 	mov	r0, r1
    ae44:	e5852000 	str	r2, [r5]
    ae48:	ebfff80d 	bl	8e84 <_sbrk>
    ae4c:	e3700001 	cmn	r0, #1
    ae50:	18bd8030 	popne	{r4, r5, pc}
    ae54:	e5953000 	ldr	r3, [r5]
    ae58:	e3530000 	cmp	r3, #0
    ae5c:	15843000 	strne	r3, [r4]
    ae60:	e8bd8030 	pop	{r4, r5, pc}
    ae64:	0001c9b8 	.word	0x0001c9b8

0000ae68 <__sread>:
    ae68:	e92d4010 	push	{r4, lr}
    ae6c:	e1a04001 	mov	r4, r1
    ae70:	e1d110fe 	ldrsh	r1, [r1, #14]
    ae74:	eb000336 	bl	bb54 <_read_r>
    ae78:	e3500000 	cmp	r0, #0
    ae7c:	a5943050 	ldrge	r3, [r4, #80]	; 0x50
    ae80:	b1d430bc 	ldrhlt	r3, [r4, #12]
    ae84:	a0833000 	addge	r3, r3, r0
    ae88:	b3c33a01 	biclt	r3, r3, #4096	; 0x1000
    ae8c:	a5843050 	strge	r3, [r4, #80]	; 0x50
    ae90:	b1c430bc 	strhlt	r3, [r4, #12]
    ae94:	e8bd8010 	pop	{r4, pc}

0000ae98 <__seofread>:
    ae98:	e3a00000 	mov	r0, #0
    ae9c:	e12fff1e 	bx	lr

0000aea0 <__swrite>:
    aea0:	e1d1c0fc 	ldrsh	ip, [r1, #12]
    aea4:	e31c0c01 	tst	ip, #256	; 0x100
    aea8:	e92d40f0 	push	{r4, r5, r6, r7, lr}
    aeac:	e1a04001 	mov	r4, r1
    aeb0:	e1a05000 	mov	r5, r0
    aeb4:	e1a06002 	mov	r6, r2
    aeb8:	e1a07003 	mov	r7, r3
    aebc:	e1d110fe 	ldrsh	r1, [r1, #14]
    aec0:	1a000006 	bne	aee0 <__swrite+0x40>
    aec4:	e3ccca01 	bic	ip, ip, #4096	; 0x1000
    aec8:	e1a03007 	mov	r3, r7
    aecc:	e1a02006 	mov	r2, r6
    aed0:	e1a00005 	mov	r0, r5
    aed4:	e1c4c0bc 	strh	ip, [r4, #12]
    aed8:	e8bd40f0 	pop	{r4, r5, r6, r7, lr}
    aedc:	ea000012 	b	af2c <_write_r>
    aee0:	e3a03002 	mov	r3, #2
    aee4:	e3a02000 	mov	r2, #0
    aee8:	eb000294 	bl	b940 <_lseek_r>
    aeec:	e1d4c0fc 	ldrsh	ip, [r4, #12]
    aef0:	e1d410fe 	ldrsh	r1, [r4, #14]
    aef4:	eafffff2 	b	aec4 <__swrite+0x24>

0000aef8 <__sseek>:
    aef8:	e92d4010 	push	{r4, lr}
    aefc:	e1a04001 	mov	r4, r1
    af00:	e1d110fe 	ldrsh	r1, [r1, #14]
    af04:	eb00028d 	bl	b940 <_lseek_r>
    af08:	e1d430bc 	ldrh	r3, [r4, #12]
    af0c:	e3700001 	cmn	r0, #1
    af10:	03c33a01 	biceq	r3, r3, #4096	; 0x1000
    af14:	13833a01 	orrne	r3, r3, #4096	; 0x1000
    af18:	15840050 	strne	r0, [r4, #80]	; 0x50
    af1c:	e1c430bc 	strh	r3, [r4, #12]
    af20:	e8bd8010 	pop	{r4, pc}

0000af24 <__sclose>:
    af24:	e1d110fe 	ldrsh	r1, [r1, #14]
    af28:	ea000068 	b	b0d0 <_close_r>

0000af2c <_write_r>:
    af2c:	e92d4030 	push	{r4, r5, lr}
    af30:	e1a0e001 	mov	lr, r1
    af34:	e1a01002 	mov	r1, r2
    af38:	e3a02000 	mov	r2, #0
    af3c:	e59f5028 	ldr	r5, [pc, #40]	; af6c <_write_r+0x40>
    af40:	e1a04000 	mov	r4, r0
    af44:	e5852000 	str	r2, [r5]
    af48:	e1a0000e 	mov	r0, lr
    af4c:	e1a02003 	mov	r2, r3
    af50:	ebfff6f9 	bl	8b3c <_write>
    af54:	e3700001 	cmn	r0, #1
    af58:	18bd8030 	popne	{r4, r5, pc}
    af5c:	e5953000 	ldr	r3, [r5]
    af60:	e3530000 	cmp	r3, #0
    af64:	15843000 	strne	r3, [r4]
    af68:	e8bd8030 	pop	{r4, r5, pc}
    af6c:	0001c9b8 	.word	0x0001c9b8

0000af70 <__swsetup_r>:
    af70:	e59f3154 	ldr	r3, [pc, #340]	; b0cc <__swsetup_r+0x15c>
    af74:	e5933000 	ldr	r3, [r3]
    af78:	e3530000 	cmp	r3, #0
    af7c:	e92d4030 	push	{r4, r5, lr}
    af80:	e1a05000 	mov	r5, r0
    af84:	e1a04001 	mov	r4, r1
    af88:	0a000002 	beq	af98 <__swsetup_r+0x28>
    af8c:	e5932038 	ldr	r2, [r3, #56]	; 0x38
    af90:	e3520000 	cmp	r2, #0
    af94:	0a00001d 	beq	b010 <__swsetup_r+0xa0>
    af98:	e1d420fc 	ldrsh	r2, [r4, #12]
    af9c:	e1a03802 	lsl	r3, r2, #16
    afa0:	e3120008 	tst	r2, #8
    afa4:	e1a03823 	lsr	r3, r3, #16
    afa8:	0a00001b 	beq	b01c <__swsetup_r+0xac>
    afac:	e5941010 	ldr	r1, [r4, #16]
    afb0:	e3510000 	cmp	r1, #0
    afb4:	0a000023 	beq	b048 <__swsetup_r+0xd8>
    afb8:	e2130001 	ands	r0, r3, #1
    afbc:	1a000006 	bne	afdc <__swsetup_r+0x6c>
    afc0:	e3130002 	tst	r3, #2
    afc4:	05940014 	ldreq	r0, [r4, #20]
    afc8:	e3510000 	cmp	r1, #0
    afcc:	e5840008 	str	r0, [r4, #8]
    afd0:	0a000008 	beq	aff8 <__swsetup_r+0x88>
    afd4:	e3a00000 	mov	r0, #0
    afd8:	e8bd8030 	pop	{r4, r5, pc}
    afdc:	e3a0c000 	mov	ip, #0
    afe0:	e5940014 	ldr	r0, [r4, #20]
    afe4:	e3510000 	cmp	r1, #0
    afe8:	e2600000 	rsb	r0, r0, #0
    afec:	e5840018 	str	r0, [r4, #24]
    aff0:	e584c008 	str	ip, [r4, #8]
    aff4:	1afffff6 	bne	afd4 <__swsetup_r+0x64>
    aff8:	e3130080 	tst	r3, #128	; 0x80
    affc:	0afffff4 	beq	afd4 <__swsetup_r+0x64>
    b000:	e3822040 	orr	r2, r2, #64	; 0x40
    b004:	e3e00000 	mvn	r0, #0
    b008:	e1c420bc 	strh	r2, [r4, #12]
    b00c:	e8bd8030 	pop	{r4, r5, pc}
    b010:	e1a00003 	mov	r0, r3
    b014:	ebfff9d0 	bl	975c <__sinit>
    b018:	eaffffde 	b	af98 <__swsetup_r+0x28>
    b01c:	e3130010 	tst	r3, #16
    b020:	0a000023 	beq	b0b4 <__swsetup_r+0x144>
    b024:	e3130004 	tst	r3, #4
    b028:	1a000011 	bne	b074 <__swsetup_r+0x104>
    b02c:	e5941010 	ldr	r1, [r4, #16]
    b030:	e3822008 	orr	r2, r2, #8
    b034:	e1a03802 	lsl	r3, r2, #16
    b038:	e3510000 	cmp	r1, #0
    b03c:	e1c420bc 	strh	r2, [r4, #12]
    b040:	e1a03823 	lsr	r3, r3, #16
    b044:	1affffdb 	bne	afb8 <__swsetup_r+0x48>
    b048:	e2030d0a 	and	r0, r3, #640	; 0x280
    b04c:	e3500c02 	cmp	r0, #512	; 0x200
    b050:	0affffd8 	beq	afb8 <__swsetup_r+0x48>
    b054:	e1a01004 	mov	r1, r4
    b058:	e1a00005 	mov	r0, r5
    b05c:	eb000248 	bl	b984 <__smakebuf_r>
    b060:	e1d420fc 	ldrsh	r2, [r4, #12]
    b064:	e1a03802 	lsl	r3, r2, #16
    b068:	e5941010 	ldr	r1, [r4, #16]
    b06c:	e1a03823 	lsr	r3, r3, #16
    b070:	eaffffd0 	b	afb8 <__swsetup_r+0x48>
    b074:	e5941030 	ldr	r1, [r4, #48]	; 0x30
    b078:	e3510000 	cmp	r1, #0
    b07c:	0a000007 	beq	b0a0 <__swsetup_r+0x130>
    b080:	e2843040 	add	r3, r4, #64	; 0x40
    b084:	e1510003 	cmp	r1, r3
    b088:	0a000002 	beq	b098 <__swsetup_r+0x128>
    b08c:	e1a00005 	mov	r0, r5
    b090:	eb00016f 	bl	b654 <_free_r>
    b094:	e1d420fc 	ldrsh	r2, [r4, #12]
    b098:	e3a03000 	mov	r3, #0
    b09c:	e5843030 	str	r3, [r4, #48]	; 0x30
    b0a0:	e3a03000 	mov	r3, #0
    b0a4:	e5941010 	ldr	r1, [r4, #16]
    b0a8:	e3c22024 	bic	r2, r2, #36	; 0x24
    b0ac:	e884000a 	stm	r4, {r1, r3}
    b0b0:	eaffffde 	b	b030 <__swsetup_r+0xc0>
    b0b4:	e3a03009 	mov	r3, #9
    b0b8:	e3822040 	orr	r2, r2, #64	; 0x40
    b0bc:	e5853000 	str	r3, [r5]
    b0c0:	e3e00000 	mvn	r0, #0
    b0c4:	e1c420bc 	strh	r2, [r4, #12]
    b0c8:	e8bd8030 	pop	{r4, r5, pc}
    b0cc:	0001c074 	.word	0x0001c074

0000b0d0 <_close_r>:
    b0d0:	e3a02000 	mov	r2, #0
    b0d4:	e92d4030 	push	{r4, r5, lr}
    b0d8:	e59f5024 	ldr	r5, [pc, #36]	; b104 <_close_r+0x34>
    b0dc:	e1a04000 	mov	r4, r0
    b0e0:	e1a00001 	mov	r0, r1
    b0e4:	e5852000 	str	r2, [r5]
    b0e8:	ebfff739 	bl	8dd4 <_close>
    b0ec:	e3700001 	cmn	r0, #1
    b0f0:	18bd8030 	popne	{r4, r5, pc}
    b0f4:	e5953000 	ldr	r3, [r5]
    b0f8:	e3530000 	cmp	r3, #0
    b0fc:	15843000 	strne	r3, [r4]
    b100:	e8bd8030 	pop	{r4, r5, pc}
    b104:	0001c9b8 	.word	0x0001c9b8

0000b108 <_fclose_r.part.0>:
    b108:	e92d4070 	push	{r4, r5, r6, lr}
    b10c:	e1a04001 	mov	r4, r1
    b110:	e1a06000 	mov	r6, r0
    b114:	eb000057 	bl	b278 <__sflush_r>
    b118:	e594302c 	ldr	r3, [r4, #44]	; 0x2c
    b11c:	e3530000 	cmp	r3, #0
    b120:	e1a05000 	mov	r5, r0
    b124:	0a000005 	beq	b140 <_fclose_r.part.0+0x38>
    b128:	e1a00006 	mov	r0, r6
    b12c:	e594101c 	ldr	r1, [r4, #28]
    b130:	e1a0e00f 	mov	lr, pc
    b134:	e12fff13 	bx	r3
    b138:	e3500000 	cmp	r0, #0
    b13c:	b3e05000 	mvnlt	r5, #0
    b140:	e1d430bc 	ldrh	r3, [r4, #12]
    b144:	e3130080 	tst	r3, #128	; 0x80
    b148:	1a000015 	bne	b1a4 <_fclose_r.part.0+0x9c>
    b14c:	e5941030 	ldr	r1, [r4, #48]	; 0x30
    b150:	e3510000 	cmp	r1, #0
    b154:	0a000005 	beq	b170 <_fclose_r.part.0+0x68>
    b158:	e2843040 	add	r3, r4, #64	; 0x40
    b15c:	e1510003 	cmp	r1, r3
    b160:	11a00006 	movne	r0, r6
    b164:	1b00013a 	blne	b654 <_free_r>
    b168:	e3a03000 	mov	r3, #0
    b16c:	e5843030 	str	r3, [r4, #48]	; 0x30
    b170:	e5941044 	ldr	r1, [r4, #68]	; 0x44
    b174:	e3510000 	cmp	r1, #0
    b178:	0a000003 	beq	b18c <_fclose_r.part.0+0x84>
    b17c:	e1a00006 	mov	r0, r6
    b180:	eb000133 	bl	b654 <_free_r>
    b184:	e3a03000 	mov	r3, #0
    b188:	e5843044 	str	r3, [r4, #68]	; 0x44
    b18c:	ebfff976 	bl	976c <__sfp_lock_acquire>
    b190:	e3a03000 	mov	r3, #0
    b194:	e1c430bc 	strh	r3, [r4, #12]
    b198:	ebfff974 	bl	9770 <__sfp_lock_release>
    b19c:	e1a00005 	mov	r0, r5
    b1a0:	e8bd8070 	pop	{r4, r5, r6, pc}
    b1a4:	e1a00006 	mov	r0, r6
    b1a8:	e5941010 	ldr	r1, [r4, #16]
    b1ac:	eb000128 	bl	b654 <_free_r>
    b1b0:	eaffffe5 	b	b14c <_fclose_r.part.0+0x44>

0000b1b4 <_fclose_r>:
    b1b4:	e92d4030 	push	{r4, r5, lr}
    b1b8:	e2514000 	subs	r4, r1, #0
    b1bc:	0a000008 	beq	b1e4 <_fclose_r+0x30>
    b1c0:	e3500000 	cmp	r0, #0
    b1c4:	e1a05000 	mov	r5, r0
    b1c8:	0a000002 	beq	b1d8 <_fclose_r+0x24>
    b1cc:	e5903038 	ldr	r3, [r0, #56]	; 0x38
    b1d0:	e3530000 	cmp	r3, #0
    b1d4:	0a000008 	beq	b1fc <_fclose_r+0x48>
    b1d8:	e1d430fc 	ldrsh	r3, [r4, #12]
    b1dc:	e3530000 	cmp	r3, #0
    b1e0:	1a000001 	bne	b1ec <_fclose_r+0x38>
    b1e4:	e3a00000 	mov	r0, #0
    b1e8:	e8bd8030 	pop	{r4, r5, pc}
    b1ec:	e1a01004 	mov	r1, r4
    b1f0:	e1a00005 	mov	r0, r5
    b1f4:	e8bd4030 	pop	{r4, r5, lr}
    b1f8:	eaffffc2 	b	b108 <_fclose_r.part.0>
    b1fc:	ebfff956 	bl	975c <__sinit>
    b200:	e1d430fc 	ldrsh	r3, [r4, #12]
    b204:	e3530000 	cmp	r3, #0
    b208:	0afffff5 	beq	b1e4 <_fclose_r+0x30>
    b20c:	eafffff6 	b	b1ec <_fclose_r+0x38>

0000b210 <fclose>:
    b210:	e92d4030 	push	{r4, r5, lr}
    b214:	e2504000 	subs	r4, r0, #0
    b218:	0a000009 	beq	b244 <fclose+0x34>
    b21c:	e59f3050 	ldr	r3, [pc, #80]	; b274 <fclose+0x64>
    b220:	e5935000 	ldr	r5, [r3]
    b224:	e3550000 	cmp	r5, #0
    b228:	0a000002 	beq	b238 <fclose+0x28>
    b22c:	e5953038 	ldr	r3, [r5, #56]	; 0x38
    b230:	e3530000 	cmp	r3, #0
    b234:	0a000008 	beq	b25c <fclose+0x4c>
    b238:	e1d430fc 	ldrsh	r3, [r4, #12]
    b23c:	e3530000 	cmp	r3, #0
    b240:	1a000001 	bne	b24c <fclose+0x3c>
    b244:	e3a00000 	mov	r0, #0
    b248:	e8bd8030 	pop	{r4, r5, pc}
    b24c:	e1a01004 	mov	r1, r4
    b250:	e1a00005 	mov	r0, r5
    b254:	e8bd4030 	pop	{r4, r5, lr}
    b258:	eaffffaa 	b	b108 <_fclose_r.part.0>
    b25c:	e1a00005 	mov	r0, r5
    b260:	ebfff93d 	bl	975c <__sinit>
    b264:	e1d430fc 	ldrsh	r3, [r4, #12]
    b268:	e3530000 	cmp	r3, #0
    b26c:	0afffff4 	beq	b244 <fclose+0x34>
    b270:	eafffff5 	b	b24c <fclose+0x3c>
    b274:	0001c074 	.word	0x0001c074

0000b278 <__sflush_r>:
    b278:	e1d120fc 	ldrsh	r2, [r1, #12]
    b27c:	e3120008 	tst	r2, #8
    b280:	e92d40f0 	push	{r4, r5, r6, r7, lr}
    b284:	e1a04001 	mov	r4, r1
    b288:	e1a07000 	mov	r7, r0
    b28c:	1a000046 	bne	b3ac <__sflush_r+0x134>
    b290:	e5913004 	ldr	r3, [r1, #4]
    b294:	e3822b02 	orr	r2, r2, #2048	; 0x800
    b298:	e3530000 	cmp	r3, #0
    b29c:	e1c120bc 	strh	r2, [r1, #12]
    b2a0:	da000062 	ble	b430 <__sflush_r+0x1b8>
    b2a4:	e594c028 	ldr	ip, [r4, #40]	; 0x28
    b2a8:	e35c0000 	cmp	ip, #0
    b2ac:	0a000062 	beq	b43c <__sflush_r+0x1c4>
    b2b0:	e3a03000 	mov	r3, #0
    b2b4:	e5976000 	ldr	r6, [r7]
    b2b8:	e2125a01 	ands	r5, r2, #4096	; 0x1000
    b2bc:	e5873000 	str	r3, [r7]
    b2c0:	e1a03802 	lsl	r3, r2, #16
    b2c4:	e594101c 	ldr	r1, [r4, #28]
    b2c8:	e1a03823 	lsr	r3, r3, #16
    b2cc:	1a00005c 	bne	b444 <__sflush_r+0x1cc>
    b2d0:	e3a03001 	mov	r3, #1
    b2d4:	e1a02005 	mov	r2, r5
    b2d8:	e1a00007 	mov	r0, r7
    b2dc:	e1a0e00f 	mov	lr, pc
    b2e0:	e12fff1c 	bx	ip
    b2e4:	e3700001 	cmn	r0, #1
    b2e8:	0a000061 	beq	b474 <__sflush_r+0x1fc>
    b2ec:	e1d430bc 	ldrh	r3, [r4, #12]
    b2f0:	e594c028 	ldr	ip, [r4, #40]	; 0x28
    b2f4:	e594101c 	ldr	r1, [r4, #28]
    b2f8:	e3130004 	tst	r3, #4
    b2fc:	0a000005 	beq	b318 <__sflush_r+0xa0>
    b300:	e5943030 	ldr	r3, [r4, #48]	; 0x30
    b304:	e3530000 	cmp	r3, #0
    b308:	e5943004 	ldr	r3, [r4, #4]
    b30c:	e0400003 	sub	r0, r0, r3
    b310:	1594303c 	ldrne	r3, [r4, #60]	; 0x3c
    b314:	10400003 	subne	r0, r0, r3
    b318:	e1a02000 	mov	r2, r0
    b31c:	e3a03000 	mov	r3, #0
    b320:	e1a00007 	mov	r0, r7
    b324:	e1a0e00f 	mov	lr, pc
    b328:	e12fff1c 	bx	ip
    b32c:	e3700001 	cmn	r0, #1
    b330:	1a000045 	bne	b44c <__sflush_r+0x1d4>
    b334:	e5972000 	ldr	r2, [r7]
    b338:	e352001d 	cmp	r2, #29
    b33c:	13520000 	cmpne	r2, #0
    b340:	03a01001 	moveq	r1, #1
    b344:	13a01000 	movne	r1, #0
    b348:	e3520016 	cmp	r2, #22
    b34c:	03811001 	orreq	r1, r1, #1
    b350:	e3510000 	cmp	r1, #0
    b354:	e1d430fc 	ldrsh	r3, [r4, #12]
    b358:	0a000031 	beq	b424 <__sflush_r+0x1ac>
    b35c:	e3c33b02 	bic	r3, r3, #2048	; 0x800
    b360:	e1c430bc 	strh	r3, [r4, #12]
    b364:	e3130a01 	tst	r3, #4096	; 0x1000
    b368:	e3a03000 	mov	r3, #0
    b36c:	e5843004 	str	r3, [r4, #4]
    b370:	e5943010 	ldr	r3, [r4, #16]
    b374:	e5843000 	str	r3, [r4]
    b378:	1a000048 	bne	b4a0 <__sflush_r+0x228>
    b37c:	e5941030 	ldr	r1, [r4, #48]	; 0x30
    b380:	e3510000 	cmp	r1, #0
    b384:	e5876000 	str	r6, [r7]
    b388:	0a00002b 	beq	b43c <__sflush_r+0x1c4>
    b38c:	e2843040 	add	r3, r4, #64	; 0x40
    b390:	e1510003 	cmp	r1, r3
    b394:	11a00007 	movne	r0, r7
    b398:	1b0000ad 	blne	b654 <_free_r>
    b39c:	e3a03000 	mov	r3, #0
    b3a0:	e1a00003 	mov	r0, r3
    b3a4:	e5843030 	str	r3, [r4, #48]	; 0x30
    b3a8:	e8bd80f0 	pop	{r4, r5, r6, r7, pc}
    b3ac:	e5916010 	ldr	r6, [r1, #16]
    b3b0:	e3560000 	cmp	r6, #0
    b3b4:	0a000020 	beq	b43c <__sflush_r+0x1c4>
    b3b8:	e1a03802 	lsl	r3, r2, #16
    b3bc:	e1a03823 	lsr	r3, r3, #16
    b3c0:	e3130003 	tst	r3, #3
    b3c4:	13a03000 	movne	r3, #0
    b3c8:	e5915000 	ldr	r5, [r1]
    b3cc:	05913014 	ldreq	r3, [r1, #20]
    b3d0:	e0455006 	sub	r5, r5, r6
    b3d4:	e3550000 	cmp	r5, #0
    b3d8:	e5816000 	str	r6, [r1]
    b3dc:	e5813008 	str	r3, [r1, #8]
    b3e0:	ca000003 	bgt	b3f4 <__sflush_r+0x17c>
    b3e4:	ea000014 	b	b43c <__sflush_r+0x1c4>
    b3e8:	e3550000 	cmp	r5, #0
    b3ec:	e0866000 	add	r6, r6, r0
    b3f0:	da000011 	ble	b43c <__sflush_r+0x1c4>
    b3f4:	e1a03005 	mov	r3, r5
    b3f8:	e1a02006 	mov	r2, r6
    b3fc:	e1a00007 	mov	r0, r7
    b400:	e594c024 	ldr	ip, [r4, #36]	; 0x24
    b404:	e594101c 	ldr	r1, [r4, #28]
    b408:	e1a0e00f 	mov	lr, pc
    b40c:	e12fff1c 	bx	ip
    b410:	e3500000 	cmp	r0, #0
    b414:	e0455000 	sub	r5, r5, r0
    b418:	cafffff2 	bgt	b3e8 <__sflush_r+0x170>
    b41c:	e3e00000 	mvn	r0, #0
    b420:	e1d430bc 	ldrh	r3, [r4, #12]
    b424:	e3833040 	orr	r3, r3, #64	; 0x40
    b428:	e1c430bc 	strh	r3, [r4, #12]
    b42c:	e8bd80f0 	pop	{r4, r5, r6, r7, pc}
    b430:	e591303c 	ldr	r3, [r1, #60]	; 0x3c
    b434:	e3530000 	cmp	r3, #0
    b438:	caffff99 	bgt	b2a4 <__sflush_r+0x2c>
    b43c:	e3a00000 	mov	r0, #0
    b440:	e8bd80f0 	pop	{r4, r5, r6, r7, pc}
    b444:	e5940050 	ldr	r0, [r4, #80]	; 0x50
    b448:	eaffffaa 	b	b2f8 <__sflush_r+0x80>
    b44c:	e1d430fc 	ldrsh	r3, [r4, #12]
    b450:	e3c33b02 	bic	r3, r3, #2048	; 0x800
    b454:	e1c430bc 	strh	r3, [r4, #12]
    b458:	e3130a01 	tst	r3, #4096	; 0x1000
    b45c:	e3a03000 	mov	r3, #0
    b460:	e5942010 	ldr	r2, [r4, #16]
    b464:	e884000c 	stm	r4, {r2, r3}
    b468:	0affffc3 	beq	b37c <__sflush_r+0x104>
    b46c:	e5840050 	str	r0, [r4, #80]	; 0x50
    b470:	eaffffc1 	b	b37c <__sflush_r+0x104>
    b474:	e5973000 	ldr	r3, [r7]
    b478:	e3530000 	cmp	r3, #0
    b47c:	0affff9a 	beq	b2ec <__sflush_r+0x74>
    b480:	e3530016 	cmp	r3, #22
    b484:	1353001d 	cmpne	r3, #29
    b488:	11d430bc 	ldrhne	r3, [r4, #12]
    b48c:	13833040 	orrne	r3, r3, #64	; 0x40
    b490:	01a00005 	moveq	r0, r5
    b494:	05876000 	streq	r6, [r7]
    b498:	11c430bc 	strhne	r3, [r4, #12]
    b49c:	e8bd80f0 	pop	{r4, r5, r6, r7, pc}
    b4a0:	e3520000 	cmp	r2, #0
    b4a4:	1affffb4 	bne	b37c <__sflush_r+0x104>
    b4a8:	eaffffef 	b	b46c <__sflush_r+0x1f4>

0000b4ac <_fflush_r>:
    b4ac:	e92d4030 	push	{r4, r5, lr}
    b4b0:	e2504000 	subs	r4, r0, #0
    b4b4:	e1a05001 	mov	r5, r1
    b4b8:	0a000002 	beq	b4c8 <_fflush_r+0x1c>
    b4bc:	e5943038 	ldr	r3, [r4, #56]	; 0x38
    b4c0:	e3530000 	cmp	r3, #0
    b4c4:	0a000006 	beq	b4e4 <_fflush_r+0x38>
    b4c8:	e1d500fc 	ldrsh	r0, [r5, #12]
    b4cc:	e3500000 	cmp	r0, #0
    b4d0:	08bd8030 	popeq	{r4, r5, pc}
    b4d4:	e1a01005 	mov	r1, r5
    b4d8:	e1a00004 	mov	r0, r4
    b4dc:	e8bd4030 	pop	{r4, r5, lr}
    b4e0:	eaffff64 	b	b278 <__sflush_r>
    b4e4:	ebfff89c 	bl	975c <__sinit>
    b4e8:	eafffff6 	b	b4c8 <_fflush_r+0x1c>

0000b4ec <fflush>:
    b4ec:	e92d4030 	push	{r4, r5, lr}
    b4f0:	e2504000 	subs	r4, r0, #0
    b4f4:	0a000010 	beq	b53c <fflush+0x50>
    b4f8:	e59f3050 	ldr	r3, [pc, #80]	; b550 <fflush+0x64>
    b4fc:	e5935000 	ldr	r5, [r3]
    b500:	e3550000 	cmp	r5, #0
    b504:	0a000002 	beq	b514 <fflush+0x28>
    b508:	e5953038 	ldr	r3, [r5, #56]	; 0x38
    b50c:	e3530000 	cmp	r3, #0
    b510:	0a000006 	beq	b530 <fflush+0x44>
    b514:	e1d400fc 	ldrsh	r0, [r4, #12]
    b518:	e3500000 	cmp	r0, #0
    b51c:	08bd8030 	popeq	{r4, r5, pc}
    b520:	e1a01004 	mov	r1, r4
    b524:	e1a00005 	mov	r0, r5
    b528:	e8bd4030 	pop	{r4, r5, lr}
    b52c:	eaffff51 	b	b278 <__sflush_r>
    b530:	e1a00005 	mov	r0, r5
    b534:	ebfff888 	bl	975c <__sinit>
    b538:	eafffff5 	b	b514 <fflush+0x28>
    b53c:	e59f3010 	ldr	r3, [pc, #16]	; b554 <fflush+0x68>
    b540:	e59f1010 	ldr	r1, [pc, #16]	; b558 <fflush+0x6c>
    b544:	e5930000 	ldr	r0, [r3]
    b548:	e8bd4030 	pop	{r4, r5, lr}
    b54c:	eafff9ea 	b	9cfc <_fwalk_reent>
    b550:	0001c074 	.word	0x0001c074
    b554:	0000bf2c 	.word	0x0000bf2c
    b558:	0000b4ac 	.word	0x0000b4ac

0000b55c <_malloc_trim_r>:
    b55c:	e92d40f0 	push	{r4, r5, r6, r7, lr}
    b560:	e1a04001 	mov	r4, r1
    b564:	e59f70dc 	ldr	r7, [pc, #220]	; b648 <_malloc_trim_r+0xec>
    b568:	e1a06000 	mov	r6, r0
    b56c:	ebfffcc7 	bl	a890 <__malloc_lock>
    b570:	e5973008 	ldr	r3, [r7, #8]
    b574:	e5935004 	ldr	r5, [r3, #4]
    b578:	e2643efe 	rsb	r3, r4, #4064	; 0xfe0
    b57c:	e3c55003 	bic	r5, r5, #3
    b580:	e283300f 	add	r3, r3, #15
    b584:	e0833005 	add	r3, r3, r5
    b588:	e3c33eff 	bic	r3, r3, #4080	; 0xff0
    b58c:	e3c3300f 	bic	r3, r3, #15
    b590:	e2434a01 	sub	r4, r3, #4096	; 0x1000
    b594:	e3540a01 	cmp	r4, #4096	; 0x1000
    b598:	ba000006 	blt	b5b8 <_malloc_trim_r+0x5c>
    b59c:	e3a01000 	mov	r1, #0
    b5a0:	e1a00006 	mov	r0, r6
    b5a4:	ebfffe21 	bl	ae30 <_sbrk_r>
    b5a8:	e5973008 	ldr	r3, [r7, #8]
    b5ac:	e0833005 	add	r3, r3, r5
    b5b0:	e1500003 	cmp	r0, r3
    b5b4:	0a000003 	beq	b5c8 <_malloc_trim_r+0x6c>
    b5b8:	e1a00006 	mov	r0, r6
    b5bc:	ebfffcb4 	bl	a894 <__malloc_unlock>
    b5c0:	e3a00000 	mov	r0, #0
    b5c4:	e8bd80f0 	pop	{r4, r5, r6, r7, pc}
    b5c8:	e1a00006 	mov	r0, r6
    b5cc:	e2641000 	rsb	r1, r4, #0
    b5d0:	ebfffe16 	bl	ae30 <_sbrk_r>
    b5d4:	e3700001 	cmn	r0, #1
    b5d8:	0a00000b 	beq	b60c <_malloc_trim_r+0xb0>
    b5dc:	e59f2068 	ldr	r2, [pc, #104]	; b64c <_malloc_trim_r+0xf0>
    b5e0:	e5973008 	ldr	r3, [r7, #8]
    b5e4:	e0455004 	sub	r5, r5, r4
    b5e8:	e3855001 	orr	r5, r5, #1
    b5ec:	e5835004 	str	r5, [r3, #4]
    b5f0:	e5923000 	ldr	r3, [r2]
    b5f4:	e1a00006 	mov	r0, r6
    b5f8:	e0433004 	sub	r3, r3, r4
    b5fc:	e5823000 	str	r3, [r2]
    b600:	ebfffca3 	bl	a894 <__malloc_unlock>
    b604:	e3a00001 	mov	r0, #1
    b608:	e8bd80f0 	pop	{r4, r5, r6, r7, pc}
    b60c:	e3a01000 	mov	r1, #0
    b610:	e1a00006 	mov	r0, r6
    b614:	ebfffe05 	bl	ae30 <_sbrk_r>
    b618:	e5972008 	ldr	r2, [r7, #8]
    b61c:	e0403002 	sub	r3, r0, r2
    b620:	e353000f 	cmp	r3, #15
    b624:	daffffe3 	ble	b5b8 <_malloc_trim_r+0x5c>
    b628:	e3833001 	orr	r3, r3, #1
    b62c:	e5823004 	str	r3, [r2, #4]
    b630:	e59f3018 	ldr	r3, [pc, #24]	; b650 <_malloc_trim_r+0xf4>
    b634:	e5933000 	ldr	r3, [r3]
    b638:	e59f100c 	ldr	r1, [pc, #12]	; b64c <_malloc_trim_r+0xf0>
    b63c:	e0400003 	sub	r0, r0, r3
    b640:	e5810000 	str	r0, [r1]
    b644:	eaffffdb 	b	b5b8 <_malloc_trim_r+0x5c>
    b648:	0001c4a0 	.word	0x0001c4a0
    b64c:	0001c988 	.word	0x0001c988
    b650:	0001c8a8 	.word	0x0001c8a8

0000b654 <_free_r>:
    b654:	e92d4070 	push	{r4, r5, r6, lr}
    b658:	e2514000 	subs	r4, r1, #0
    b65c:	08bd8070 	popeq	{r4, r5, r6, pc}
    b660:	e1a05000 	mov	r5, r0
    b664:	ebfffc89 	bl	a890 <__malloc_lock>
    b668:	e5140004 	ldr	r0, [r4, #-4]
    b66c:	e59f22bc 	ldr	r2, [pc, #700]	; b930 <_free_r+0x2dc>
    b670:	e244c008 	sub	ip, r4, #8
    b674:	e5923008 	ldr	r3, [r2, #8]
    b678:	e3c01001 	bic	r1, r0, #1
    b67c:	e08ce001 	add	lr, ip, r1
    b680:	e153000e 	cmp	r3, lr
    b684:	e59e3004 	ldr	r3, [lr, #4]
    b688:	e3c33003 	bic	r3, r3, #3
    b68c:	0a000066 	beq	b82c <_free_r+0x1d8>
    b690:	e3100001 	tst	r0, #1
    b694:	e58e3004 	str	r3, [lr, #4]
    b698:	e08e0003 	add	r0, lr, r3
    b69c:	1a000023 	bne	b730 <_free_r+0xdc>
    b6a0:	e5144008 	ldr	r4, [r4, #-8]
    b6a4:	e04cc004 	sub	ip, ip, r4
    b6a8:	e0811004 	add	r1, r1, r4
    b6ac:	e59c4008 	ldr	r4, [ip, #8]
    b6b0:	e5900004 	ldr	r0, [r0, #4]
    b6b4:	e2826008 	add	r6, r2, #8
    b6b8:	e1540006 	cmp	r4, r6
    b6bc:	e2000001 	and	r0, r0, #1
    b6c0:	0a000049 	beq	b7ec <_free_r+0x198>
    b6c4:	e3500000 	cmp	r0, #0
    b6c8:	e59c000c 	ldr	r0, [ip, #12]
    b6cc:	e584000c 	str	r0, [r4, #12]
    b6d0:	e5804008 	str	r4, [r0, #8]
    b6d4:	0a000073 	beq	b8a8 <_free_r+0x254>
    b6d8:	e3813001 	orr	r3, r1, #1
    b6dc:	e58c3004 	str	r3, [ip, #4]
    b6e0:	e58e1000 	str	r1, [lr]
    b6e4:	e3510c02 	cmp	r1, #512	; 0x200
    b6e8:	2a000024 	bcs	b780 <_free_r+0x12c>
    b6ec:	e3a0e001 	mov	lr, #1
    b6f0:	e5920004 	ldr	r0, [r2, #4]
    b6f4:	e1a031a1 	lsr	r3, r1, #3
    b6f8:	e1a012a1 	lsr	r1, r1, #5
    b6fc:	e2833001 	add	r3, r3, #1
    b700:	e180111e 	orr	r1, r0, lr, lsl r1
    b704:	e5821004 	str	r1, [r2, #4]
    b708:	e7920183 	ldr	r0, [r2, r3, lsl #3]
    b70c:	e0821183 	add	r1, r2, r3, lsl #3
    b710:	e2411008 	sub	r1, r1, #8
    b714:	e58c100c 	str	r1, [ip, #12]
    b718:	e58c0008 	str	r0, [ip, #8]
    b71c:	e782c183 	str	ip, [r2, r3, lsl #3]
    b720:	e580c00c 	str	ip, [r0, #12]
    b724:	e1a00005 	mov	r0, r5
    b728:	e8bd4070 	pop	{r4, r5, r6, lr}
    b72c:	eafffc58 	b	a894 <__malloc_unlock>
    b730:	e5900004 	ldr	r0, [r0, #4]
    b734:	e3100001 	tst	r0, #1
    b738:	1a00000b 	bne	b76c <_free_r+0x118>
    b73c:	e0811003 	add	r1, r1, r3
    b740:	e2826008 	add	r6, r2, #8
    b744:	e59e3008 	ldr	r3, [lr, #8]
    b748:	e1530006 	cmp	r3, r6
    b74c:	e3810001 	orr	r0, r1, #1
    b750:	0a000060 	beq	b8d8 <_free_r+0x284>
    b754:	e59ee00c 	ldr	lr, [lr, #12]
    b758:	e583e00c 	str	lr, [r3, #12]
    b75c:	e58e3008 	str	r3, [lr, #8]
    b760:	e58c0004 	str	r0, [ip, #4]
    b764:	e78c1001 	str	r1, [ip, r1]
    b768:	eaffffdd 	b	b6e4 <_free_r+0x90>
    b76c:	e3813001 	orr	r3, r1, #1
    b770:	e3510c02 	cmp	r1, #512	; 0x200
    b774:	e5043004 	str	r3, [r4, #-4]
    b778:	e58e1000 	str	r1, [lr]
    b77c:	3affffda 	bcc	b6ec <_free_r+0x98>
    b780:	e3510c0a 	cmp	r1, #2560	; 0xa00
    b784:	e1a034a1 	lsr	r3, r1, #9
    b788:	2a00003d 	bcs	b884 <_free_r+0x230>
    b78c:	e1a03321 	lsr	r3, r1, #6
    b790:	e2830039 	add	r0, r3, #57	; 0x39
    b794:	e283e038 	add	lr, r3, #56	; 0x38
    b798:	e1a00180 	lsl	r0, r0, #3
    b79c:	e7923000 	ldr	r3, [r2, r0]
    b7a0:	e0820000 	add	r0, r2, r0
    b7a4:	e2400008 	sub	r0, r0, #8
    b7a8:	e1500003 	cmp	r0, r3
    b7ac:	0a000043 	beq	b8c0 <_free_r+0x26c>
    b7b0:	e5932004 	ldr	r2, [r3, #4]
    b7b4:	e3c22003 	bic	r2, r2, #3
    b7b8:	e1520001 	cmp	r2, r1
    b7bc:	9a000002 	bls	b7cc <_free_r+0x178>
    b7c0:	e5933008 	ldr	r3, [r3, #8]
    b7c4:	e1500003 	cmp	r0, r3
    b7c8:	1afffff8 	bne	b7b0 <_free_r+0x15c>
    b7cc:	e593000c 	ldr	r0, [r3, #12]
    b7d0:	e58c000c 	str	r0, [ip, #12]
    b7d4:	e58c3008 	str	r3, [ip, #8]
    b7d8:	e580c008 	str	ip, [r0, #8]
    b7dc:	e1a00005 	mov	r0, r5
    b7e0:	e583c00c 	str	ip, [r3, #12]
    b7e4:	e8bd4070 	pop	{r4, r5, r6, lr}
    b7e8:	eafffc29 	b	a894 <__malloc_unlock>
    b7ec:	e3500000 	cmp	r0, #0
    b7f0:	13813001 	orrne	r3, r1, #1
    b7f4:	158c3004 	strne	r3, [ip, #4]
    b7f8:	158e1000 	strne	r1, [lr]
    b7fc:	1affffc8 	bne	b724 <_free_r+0xd0>
    b800:	e0833001 	add	r3, r3, r1
    b804:	e28e1008 	add	r1, lr, #8
    b808:	e8910006 	ldm	r1, {r1, r2}
    b80c:	e581200c 	str	r2, [r1, #12]
    b810:	e5821008 	str	r1, [r2, #8]
    b814:	e3832001 	orr	r2, r3, #1
    b818:	e1a00005 	mov	r0, r5
    b81c:	e58c2004 	str	r2, [ip, #4]
    b820:	e8bd4070 	pop	{r4, r5, r6, lr}
    b824:	e78c3003 	str	r3, [ip, r3]
    b828:	eafffc19 	b	a894 <__malloc_unlock>
    b82c:	e3100001 	tst	r0, #1
    b830:	e0813003 	add	r3, r1, r3
    b834:	1a000006 	bne	b854 <_free_r+0x200>
    b838:	e5141008 	ldr	r1, [r4, #-8]
    b83c:	e04cc001 	sub	ip, ip, r1
    b840:	e28c0008 	add	r0, ip, #8
    b844:	e0833001 	add	r3, r3, r1
    b848:	e8900003 	ldm	r0, {r0, r1}
    b84c:	e580100c 	str	r1, [r0, #12]
    b850:	e5810008 	str	r0, [r1, #8]
    b854:	e3831001 	orr	r1, r3, #1
    b858:	e58c1004 	str	r1, [ip, #4]
    b85c:	e59f10d0 	ldr	r1, [pc, #208]	; b934 <_free_r+0x2e0>
    b860:	e582c008 	str	ip, [r2, #8]
    b864:	e5912000 	ldr	r2, [r1]
    b868:	e1520003 	cmp	r2, r3
    b86c:	8affffac 	bhi	b724 <_free_r+0xd0>
    b870:	e59f30c0 	ldr	r3, [pc, #192]	; b938 <_free_r+0x2e4>
    b874:	e1a00005 	mov	r0, r5
    b878:	e5931000 	ldr	r1, [r3]
    b87c:	ebffff36 	bl	b55c <_malloc_trim_r>
    b880:	eaffffa7 	b	b724 <_free_r+0xd0>
    b884:	e3530014 	cmp	r3, #20
    b888:	9a000008 	bls	b8b0 <_free_r+0x25c>
    b88c:	e3530054 	cmp	r3, #84	; 0x54
    b890:	8a000016 	bhi	b8f0 <_free_r+0x29c>
    b894:	e1a03621 	lsr	r3, r1, #12
    b898:	e283006f 	add	r0, r3, #111	; 0x6f
    b89c:	e283e06e 	add	lr, r3, #110	; 0x6e
    b8a0:	e1a00180 	lsl	r0, r0, #3
    b8a4:	eaffffbc 	b	b79c <_free_r+0x148>
    b8a8:	e0811003 	add	r1, r1, r3
    b8ac:	eaffffa4 	b	b744 <_free_r+0xf0>
    b8b0:	e283005c 	add	r0, r3, #92	; 0x5c
    b8b4:	e283e05b 	add	lr, r3, #91	; 0x5b
    b8b8:	e1a00180 	lsl	r0, r0, #3
    b8bc:	eaffffb6 	b	b79c <_free_r+0x148>
    b8c0:	e3a04001 	mov	r4, #1
    b8c4:	e5921004 	ldr	r1, [r2, #4]
    b8c8:	e1a0e14e 	asr	lr, lr, #2
    b8cc:	e181ee14 	orr	lr, r1, r4, lsl lr
    b8d0:	e582e004 	str	lr, [r2, #4]
    b8d4:	eaffffbd 	b	b7d0 <_free_r+0x17c>
    b8d8:	e582c014 	str	ip, [r2, #20]
    b8dc:	e582c010 	str	ip, [r2, #16]
    b8e0:	e98c0041 	stmib	ip, {r0, r6}
    b8e4:	e58c600c 	str	r6, [ip, #12]
    b8e8:	e78c1001 	str	r1, [ip, r1]
    b8ec:	eaffff8c 	b	b724 <_free_r+0xd0>
    b8f0:	e3530f55 	cmp	r3, #340	; 0x154
    b8f4:	8a000004 	bhi	b90c <_free_r+0x2b8>
    b8f8:	e1a037a1 	lsr	r3, r1, #15
    b8fc:	e2830078 	add	r0, r3, #120	; 0x78
    b900:	e283e077 	add	lr, r3, #119	; 0x77
    b904:	e1a00180 	lsl	r0, r0, #3
    b908:	eaffffa3 	b	b79c <_free_r+0x148>
    b90c:	e59f0028 	ldr	r0, [pc, #40]	; b93c <_free_r+0x2e8>
    b910:	e1530000 	cmp	r3, r0
    b914:	91a03921 	lsrls	r3, r1, #18
    b918:	9283007d 	addls	r0, r3, #125	; 0x7d
    b91c:	83a00ffe 	movhi	r0, #1016	; 0x3f8
    b920:	83a0e07e 	movhi	lr, #126	; 0x7e
    b924:	9283e07c 	addls	lr, r3, #124	; 0x7c
    b928:	91a00180 	lslls	r0, r0, #3
    b92c:	eaffff9a 	b	b79c <_free_r+0x148>
    b930:	0001c4a0 	.word	0x0001c4a0
    b934:	0001c8ac 	.word	0x0001c8ac
    b938:	0001c984 	.word	0x0001c984
    b93c:	00000554 	.word	0x00000554

0000b940 <_lseek_r>:
    b940:	e92d4030 	push	{r4, r5, lr}
    b944:	e1a0e001 	mov	lr, r1
    b948:	e1a01002 	mov	r1, r2
    b94c:	e3a02000 	mov	r2, #0
    b950:	e59f5028 	ldr	r5, [pc, #40]	; b980 <_lseek_r+0x40>
    b954:	e1a04000 	mov	r4, r0
    b958:	e5852000 	str	r2, [r5]
    b95c:	e1a0000e 	mov	r0, lr
    b960:	e1a02003 	mov	r2, r3
    b964:	ebfff437 	bl	8a48 <_lseek>
    b968:	e3700001 	cmn	r0, #1
    b96c:	18bd8030 	popne	{r4, r5, pc}
    b970:	e5953000 	ldr	r3, [r5]
    b974:	e3530000 	cmp	r3, #0
    b978:	15843000 	strne	r3, [r4]
    b97c:	e8bd8030 	pop	{r4, r5, pc}
    b980:	0001c9b8 	.word	0x0001c9b8

0000b984 <__smakebuf_r>:
    b984:	e92d41f0 	push	{r4, r5, r6, r7, r8, lr}
    b988:	e1d130bc 	ldrh	r3, [r1, #12]
    b98c:	e3130002 	tst	r3, #2
    b990:	e1a04001 	mov	r4, r1
    b994:	e24dd048 	sub	sp, sp, #72	; 0x48
    b998:	0a000006 	beq	b9b8 <__smakebuf_r+0x34>
    b99c:	e3a02001 	mov	r2, #1
    b9a0:	e2813043 	add	r3, r1, #67	; 0x43
    b9a4:	e5813000 	str	r3, [r1]
    b9a8:	e5813010 	str	r3, [r1, #16]
    b9ac:	e5812014 	str	r2, [r1, #20]
    b9b0:	e28dd048 	add	sp, sp, #72	; 0x48
    b9b4:	e8bd81f0 	pop	{r4, r5, r6, r7, r8, pc}
    b9b8:	e1d110fe 	ldrsh	r1, [r1, #14]
    b9bc:	e3510000 	cmp	r1, #0
    b9c0:	e1a06000 	mov	r6, r0
    b9c4:	ba00001e 	blt	ba44 <__smakebuf_r+0xc0>
    b9c8:	e1a0200d 	mov	r2, sp
    b9cc:	eb0000cd 	bl	bd08 <_fstat_r>
    b9d0:	e3500000 	cmp	r0, #0
    b9d4:	ba000019 	blt	ba40 <__smakebuf_r+0xbc>
    b9d8:	e3a08b01 	mov	r8, #1024	; 0x400
    b9dc:	e3a07b02 	mov	r7, #2048	; 0x800
    b9e0:	e59d5004 	ldr	r5, [sp, #4]
    b9e4:	e2055a0f 	and	r5, r5, #61440	; 0xf000
    b9e8:	e2453a02 	sub	r3, r5, #8192	; 0x2000
    b9ec:	e2735000 	rsbs	r5, r3, #0
    b9f0:	e0a55003 	adc	r5, r5, r3
    b9f4:	e1a01008 	mov	r1, r8
    b9f8:	e1a00006 	mov	r0, r6
    b9fc:	ebfff8db 	bl	9d70 <_malloc_r>
    ba00:	e3500000 	cmp	r0, #0
    ba04:	0a000015 	beq	ba60 <__smakebuf_r+0xdc>
    ba08:	e1d430fc 	ldrsh	r3, [r4, #12]
    ba0c:	e59f20a8 	ldr	r2, [pc, #168]	; babc <__smakebuf_r+0x138>
    ba10:	e3833080 	orr	r3, r3, #128	; 0x80
    ba14:	e3550000 	cmp	r5, #0
    ba18:	e586203c 	str	r2, [r6, #60]	; 0x3c
    ba1c:	e5848014 	str	r8, [r4, #20]
    ba20:	e1c430bc 	strh	r3, [r4, #12]
    ba24:	e5840000 	str	r0, [r4]
    ba28:	e5840010 	str	r0, [r4, #16]
    ba2c:	1a000017 	bne	ba90 <__smakebuf_r+0x10c>
    ba30:	e1833007 	orr	r3, r3, r7
    ba34:	e1c430bc 	strh	r3, [r4, #12]
    ba38:	e28dd048 	add	sp, sp, #72	; 0x48
    ba3c:	e8bd81f0 	pop	{r4, r5, r6, r7, r8, pc}
    ba40:	e1d430bc 	ldrh	r3, [r4, #12]
    ba44:	e2135080 	ands	r5, r3, #128	; 0x80
    ba48:	03a08b01 	moveq	r8, #1024	; 0x400
    ba4c:	01a07005 	moveq	r7, r5
    ba50:	13a05000 	movne	r5, #0
    ba54:	13a08040 	movne	r8, #64	; 0x40
    ba58:	11a07005 	movne	r7, r5
    ba5c:	eaffffe4 	b	b9f4 <__smakebuf_r+0x70>
    ba60:	e1d430fc 	ldrsh	r3, [r4, #12]
    ba64:	e3130c02 	tst	r3, #512	; 0x200
    ba68:	1affffd0 	bne	b9b0 <__smakebuf_r+0x2c>
    ba6c:	e3a01001 	mov	r1, #1
    ba70:	e3c33003 	bic	r3, r3, #3
    ba74:	e2842043 	add	r2, r4, #67	; 0x43
    ba78:	e3833002 	orr	r3, r3, #2
    ba7c:	e1c430bc 	strh	r3, [r4, #12]
    ba80:	e5842000 	str	r2, [r4]
    ba84:	e5842010 	str	r2, [r4, #16]
    ba88:	e5841014 	str	r1, [r4, #20]
    ba8c:	eaffffc7 	b	b9b0 <__smakebuf_r+0x2c>
    ba90:	e1a00006 	mov	r0, r6
    ba94:	e1d410fe 	ldrsh	r1, [r4, #14]
    ba98:	eb0000a9 	bl	bd44 <_isatty_r>
    ba9c:	e3500000 	cmp	r0, #0
    baa0:	11d430bc 	ldrhne	r3, [r4, #12]
    baa4:	13c33003 	bicne	r3, r3, #3
    baa8:	13833001 	orrne	r3, r3, #1
    baac:	11a03803 	lslne	r3, r3, #16
    bab0:	01d430fc 	ldrsheq	r3, [r4, #12]
    bab4:	11a03843 	asrne	r3, r3, #16
    bab8:	eaffffdc 	b	ba30 <__smakebuf_r+0xac>
    babc:	00009490 	.word	0x00009490

0000bac0 <__swhatbuf_r>:
    bac0:	e92d4070 	push	{r4, r5, r6, lr}
    bac4:	e1a04001 	mov	r4, r1
    bac8:	e1d110fe 	ldrsh	r1, [r1, #14]
    bacc:	e3510000 	cmp	r1, #0
    bad0:	e1a05002 	mov	r5, r2
    bad4:	e1a06003 	mov	r6, r3
    bad8:	e24dd048 	sub	sp, sp, #72	; 0x48
    badc:	ba00000e 	blt	bb1c <__swhatbuf_r+0x5c>
    bae0:	e1a0200d 	mov	r2, sp
    bae4:	eb000087 	bl	bd08 <_fstat_r>
    bae8:	e3500000 	cmp	r0, #0
    baec:	ba00000a 	blt	bb1c <__swhatbuf_r+0x5c>
    baf0:	e3a03b01 	mov	r3, #1024	; 0x400
    baf4:	e3a00b02 	mov	r0, #2048	; 0x800
    baf8:	e59d2004 	ldr	r2, [sp, #4]
    bafc:	e2022a0f 	and	r2, r2, #61440	; 0xf000
    bb00:	e2421a02 	sub	r1, r2, #8192	; 0x2000
    bb04:	e2712000 	rsbs	r2, r1, #0
    bb08:	e0a22001 	adc	r2, r2, r1
    bb0c:	e5862000 	str	r2, [r6]
    bb10:	e5853000 	str	r3, [r5]
    bb14:	e28dd048 	add	sp, sp, #72	; 0x48
    bb18:	e8bd8070 	pop	{r4, r5, r6, pc}
    bb1c:	e3a03000 	mov	r3, #0
    bb20:	e1d410fc 	ldrsh	r1, [r4, #12]
    bb24:	e2110080 	ands	r0, r1, #128	; 0x80
    bb28:	e5863000 	str	r3, [r6]
    bb2c:	0a000004 	beq	bb44 <__swhatbuf_r+0x84>
    bb30:	e3a02040 	mov	r2, #64	; 0x40
    bb34:	e1a00003 	mov	r0, r3
    bb38:	e5852000 	str	r2, [r5]
    bb3c:	e28dd048 	add	sp, sp, #72	; 0x48
    bb40:	e8bd8070 	pop	{r4, r5, r6, pc}
    bb44:	e3a03b01 	mov	r3, #1024	; 0x400
    bb48:	e5853000 	str	r3, [r5]
    bb4c:	e28dd048 	add	sp, sp, #72	; 0x48
    bb50:	e8bd8070 	pop	{r4, r5, r6, pc}

0000bb54 <_read_r>:
    bb54:	e92d4030 	push	{r4, r5, lr}
    bb58:	e1a0e001 	mov	lr, r1
    bb5c:	e1a01002 	mov	r1, r2
    bb60:	e3a02000 	mov	r2, #0
    bb64:	e59f5028 	ldr	r5, [pc, #40]	; bb94 <_read_r+0x40>
    bb68:	e1a04000 	mov	r4, r0
    bb6c:	e5852000 	str	r2, [r5]
    bb70:	e1a0000e 	mov	r0, lr
    bb74:	e1a02003 	mov	r2, r3
    bb78:	ebfff33c 	bl	8870 <_read>
    bb7c:	e3700001 	cmn	r0, #1
    bb80:	18bd8030 	popne	{r4, r5, pc}
    bb84:	e5953000 	ldr	r3, [r5]
    bb88:	e3530000 	cmp	r3, #0
    bb8c:	15843000 	strne	r3, [r4]
    bb90:	e8bd8030 	pop	{r4, r5, pc}
    bb94:	0001c9b8 	.word	0x0001c9b8

0000bb98 <cleanup_glue>:
    bb98:	e92d41f0 	push	{r4, r5, r6, r7, r8, lr}
    bb9c:	e5916000 	ldr	r6, [r1]
    bba0:	e3560000 	cmp	r6, #0
    bba4:	e1a04001 	mov	r4, r1
    bba8:	e1a05000 	mov	r5, r0
    bbac:	0a000011 	beq	bbf8 <cleanup_glue+0x60>
    bbb0:	e5967000 	ldr	r7, [r6]
    bbb4:	e3570000 	cmp	r7, #0
    bbb8:	0a00000b 	beq	bbec <cleanup_glue+0x54>
    bbbc:	e5978000 	ldr	r8, [r7]
    bbc0:	e3580000 	cmp	r8, #0
    bbc4:	0a000005 	beq	bbe0 <cleanup_glue+0x48>
    bbc8:	e5981000 	ldr	r1, [r8]
    bbcc:	e3510000 	cmp	r1, #0
    bbd0:	1bfffff0 	blne	bb98 <cleanup_glue>
    bbd4:	e1a01008 	mov	r1, r8
    bbd8:	e1a00005 	mov	r0, r5
    bbdc:	ebfffe9c 	bl	b654 <_free_r>
    bbe0:	e1a01007 	mov	r1, r7
    bbe4:	e1a00005 	mov	r0, r5
    bbe8:	ebfffe99 	bl	b654 <_free_r>
    bbec:	e1a01006 	mov	r1, r6
    bbf0:	e1a00005 	mov	r0, r5
    bbf4:	ebfffe96 	bl	b654 <_free_r>
    bbf8:	e1a01004 	mov	r1, r4
    bbfc:	e1a00005 	mov	r0, r5
    bc00:	e8bd41f0 	pop	{r4, r5, r6, r7, r8, lr}
    bc04:	eafffe92 	b	b654 <_free_r>

0000bc08 <_reclaim_reent>:
    bc08:	e59f30f4 	ldr	r3, [pc, #244]	; bd04 <_reclaim_reent+0xfc>
    bc0c:	e5933000 	ldr	r3, [r3]
    bc10:	e1530000 	cmp	r3, r0
    bc14:	012fff1e 	bxeq	lr
    bc18:	e590104c 	ldr	r1, [r0, #76]	; 0x4c
    bc1c:	e3510000 	cmp	r1, #0
    bc20:	e92d4070 	push	{r4, r5, r6, lr}
    bc24:	e1a05000 	mov	r5, r0
    bc28:	0a00000f 	beq	bc6c <_reclaim_reent+0x64>
    bc2c:	e3a06000 	mov	r6, #0
    bc30:	e7914006 	ldr	r4, [r1, r6]
    bc34:	e3540000 	cmp	r4, #0
    bc38:	0a000006 	beq	bc58 <_reclaim_reent+0x50>
    bc3c:	e1a01004 	mov	r1, r4
    bc40:	e5944000 	ldr	r4, [r4]
    bc44:	e1a00005 	mov	r0, r5
    bc48:	ebfffe81 	bl	b654 <_free_r>
    bc4c:	e3540000 	cmp	r4, #0
    bc50:	1afffff9 	bne	bc3c <_reclaim_reent+0x34>
    bc54:	e595104c 	ldr	r1, [r5, #76]	; 0x4c
    bc58:	e2866004 	add	r6, r6, #4
    bc5c:	e3560080 	cmp	r6, #128	; 0x80
    bc60:	1afffff2 	bne	bc30 <_reclaim_reent+0x28>
    bc64:	e1a00005 	mov	r0, r5
    bc68:	ebfffe79 	bl	b654 <_free_r>
    bc6c:	e5951040 	ldr	r1, [r5, #64]	; 0x40
    bc70:	e3510000 	cmp	r1, #0
    bc74:	11a00005 	movne	r0, r5
    bc78:	1bfffe75 	blne	b654 <_free_r>
    bc7c:	e5954148 	ldr	r4, [r5, #328]	; 0x148
    bc80:	e3540000 	cmp	r4, #0
    bc84:	0a000008 	beq	bcac <_reclaim_reent+0xa4>
    bc88:	e2856f53 	add	r6, r5, #332	; 0x14c
    bc8c:	e1540006 	cmp	r4, r6
    bc90:	0a000005 	beq	bcac <_reclaim_reent+0xa4>
    bc94:	e1a01004 	mov	r1, r4
    bc98:	e5944000 	ldr	r4, [r4]
    bc9c:	e1a00005 	mov	r0, r5
    bca0:	ebfffe6b 	bl	b654 <_free_r>
    bca4:	e1560004 	cmp	r6, r4
    bca8:	1afffff9 	bne	bc94 <_reclaim_reent+0x8c>
    bcac:	e5951054 	ldr	r1, [r5, #84]	; 0x54
    bcb0:	e3510000 	cmp	r1, #0
    bcb4:	11a00005 	movne	r0, r5
    bcb8:	1bfffe65 	blne	b654 <_free_r>
    bcbc:	e5953038 	ldr	r3, [r5, #56]	; 0x38
    bcc0:	e3530000 	cmp	r3, #0
    bcc4:	08bd8070 	popeq	{r4, r5, r6, pc}
    bcc8:	e1a00005 	mov	r0, r5
    bccc:	e595303c 	ldr	r3, [r5, #60]	; 0x3c
    bcd0:	e1a0e00f 	mov	lr, pc
    bcd4:	e12fff13 	bx	r3
    bcd8:	e59542e0 	ldr	r4, [r5, #736]	; 0x2e0
    bcdc:	e3540000 	cmp	r4, #0
    bce0:	08bd8070 	popeq	{r4, r5, r6, pc}
    bce4:	e5941000 	ldr	r1, [r4]
    bce8:	e3510000 	cmp	r1, #0
    bcec:	11a00005 	movne	r0, r5
    bcf0:	1bffffa8 	blne	bb98 <cleanup_glue>
    bcf4:	e1a01004 	mov	r1, r4
    bcf8:	e1a00005 	mov	r0, r5
    bcfc:	e8bd4070 	pop	{r4, r5, r6, lr}
    bd00:	eafffe53 	b	b654 <_free_r>
    bd04:	0001c074 	.word	0x0001c074

0000bd08 <_fstat_r>:
    bd08:	e3a0c000 	mov	ip, #0
    bd0c:	e92d4030 	push	{r4, r5, lr}
    bd10:	e59f5028 	ldr	r5, [pc, #40]	; bd40 <_fstat_r+0x38>
    bd14:	e1a04000 	mov	r4, r0
    bd18:	e1a00001 	mov	r0, r1
    bd1c:	e1a01002 	mov	r1, r2
    bd20:	e585c000 	str	ip, [r5]
    bd24:	ebfff475 	bl	8f00 <_fstat>
    bd28:	e3700001 	cmn	r0, #1
    bd2c:	18bd8030 	popne	{r4, r5, pc}
    bd30:	e5953000 	ldr	r3, [r5]
    bd34:	e3530000 	cmp	r3, #0
    bd38:	15843000 	strne	r3, [r4]
    bd3c:	e8bd8030 	pop	{r4, r5, pc}
    bd40:	0001c9b8 	.word	0x0001c9b8

0000bd44 <_isatty_r>:
    bd44:	e3a02000 	mov	r2, #0
    bd48:	e92d4030 	push	{r4, r5, lr}
    bd4c:	e59f5024 	ldr	r5, [pc, #36]	; bd78 <_isatty_r+0x34>
    bd50:	e1a04000 	mov	r4, r0
    bd54:	e1a00001 	mov	r0, r1
    bd58:	e5852000 	str	r2, [r5]
    bd5c:	ebfff4de 	bl	90dc <_isatty>
    bd60:	e3700001 	cmn	r0, #1
    bd64:	18bd8030 	popne	{r4, r5, pc}
    bd68:	e5953000 	ldr	r3, [r5]
    bd6c:	e3530000 	cmp	r3, #0
    bd70:	15843000 	strne	r3, [r4]
    bd74:	e8bd8030 	pop	{r4, r5, pc}
    bd78:	0001c9b8 	.word	0x0001c9b8

0000bd7c <__divsi3>:
    bd7c:	e3510000 	cmp	r1, #0
    bd80:	0a000043 	beq	be94 <.divsi3_skip_div0_test+0x110>

0000bd84 <.divsi3_skip_div0_test>:
    bd84:	e020c001 	eor	ip, r0, r1
    bd88:	42611000 	rsbmi	r1, r1, #0
    bd8c:	e2512001 	subs	r2, r1, #1
    bd90:	0a000027 	beq	be34 <.divsi3_skip_div0_test+0xb0>
    bd94:	e1b03000 	movs	r3, r0
    bd98:	42603000 	rsbmi	r3, r0, #0
    bd9c:	e1530001 	cmp	r3, r1
    bda0:	9a000026 	bls	be40 <.divsi3_skip_div0_test+0xbc>
    bda4:	e1110002 	tst	r1, r2
    bda8:	0a000028 	beq	be50 <.divsi3_skip_div0_test+0xcc>
    bdac:	e311020e 	tst	r1, #-536870912	; 0xe0000000
    bdb0:	01a01181 	lsleq	r1, r1, #3
    bdb4:	03a02008 	moveq	r2, #8
    bdb8:	13a02001 	movne	r2, #1
    bdbc:	e3510201 	cmp	r1, #268435456	; 0x10000000
    bdc0:	31510003 	cmpcc	r1, r3
    bdc4:	31a01201 	lslcc	r1, r1, #4
    bdc8:	31a02202 	lslcc	r2, r2, #4
    bdcc:	3afffffa 	bcc	bdbc <.divsi3_skip_div0_test+0x38>
    bdd0:	e3510102 	cmp	r1, #-2147483648	; 0x80000000
    bdd4:	31510003 	cmpcc	r1, r3
    bdd8:	31a01081 	lslcc	r1, r1, #1
    bddc:	31a02082 	lslcc	r2, r2, #1
    bde0:	3afffffa 	bcc	bdd0 <.divsi3_skip_div0_test+0x4c>
    bde4:	e3a00000 	mov	r0, #0
    bde8:	e1530001 	cmp	r3, r1
    bdec:	20433001 	subcs	r3, r3, r1
    bdf0:	21800002 	orrcs	r0, r0, r2
    bdf4:	e15300a1 	cmp	r3, r1, lsr #1
    bdf8:	204330a1 	subcs	r3, r3, r1, lsr #1
    bdfc:	218000a2 	orrcs	r0, r0, r2, lsr #1
    be00:	e1530121 	cmp	r3, r1, lsr #2
    be04:	20433121 	subcs	r3, r3, r1, lsr #2
    be08:	21800122 	orrcs	r0, r0, r2, lsr #2
    be0c:	e15301a1 	cmp	r3, r1, lsr #3
    be10:	204331a1 	subcs	r3, r3, r1, lsr #3
    be14:	218001a2 	orrcs	r0, r0, r2, lsr #3
    be18:	e3530000 	cmp	r3, #0
    be1c:	11b02222 	lsrsne	r2, r2, #4
    be20:	11a01221 	lsrne	r1, r1, #4
    be24:	1affffef 	bne	bde8 <.divsi3_skip_div0_test+0x64>
    be28:	e35c0000 	cmp	ip, #0
    be2c:	42600000 	rsbmi	r0, r0, #0
    be30:	e12fff1e 	bx	lr
    be34:	e13c0000 	teq	ip, r0
    be38:	42600000 	rsbmi	r0, r0, #0
    be3c:	e12fff1e 	bx	lr
    be40:	33a00000 	movcc	r0, #0
    be44:	01a00fcc 	asreq	r0, ip, #31
    be48:	03800001 	orreq	r0, r0, #1
    be4c:	e12fff1e 	bx	lr
    be50:	e3510801 	cmp	r1, #65536	; 0x10000
    be54:	21a01821 	lsrcs	r1, r1, #16
    be58:	23a02010 	movcs	r2, #16
    be5c:	33a02000 	movcc	r2, #0
    be60:	e3510c01 	cmp	r1, #256	; 0x100
    be64:	21a01421 	lsrcs	r1, r1, #8
    be68:	22822008 	addcs	r2, r2, #8
    be6c:	e3510010 	cmp	r1, #16
    be70:	21a01221 	lsrcs	r1, r1, #4
    be74:	22822004 	addcs	r2, r2, #4
    be78:	e3510004 	cmp	r1, #4
    be7c:	82822003 	addhi	r2, r2, #3
    be80:	908220a1 	addls	r2, r2, r1, lsr #1
    be84:	e35c0000 	cmp	ip, #0
    be88:	e1a00233 	lsr	r0, r3, r2
    be8c:	42600000 	rsbmi	r0, r0, #0
    be90:	e12fff1e 	bx	lr
    be94:	e52de008 	str	lr, [sp, #-8]!
    be98:	eb000009 	bl	bec4 <__div0>
    be9c:	e3a00000 	mov	r0, #0
    bea0:	e49df008 	ldr	pc, [sp], #8

0000bea4 <__aeabi_idivmod>:
    bea4:	e3510000 	cmp	r1, #0
    bea8:	0afffff9 	beq	be94 <.divsi3_skip_div0_test+0x110>
    beac:	e92d4003 	push	{r0, r1, lr}
    beb0:	ebffffb3 	bl	bd84 <.divsi3_skip_div0_test>
    beb4:	e8bd4006 	pop	{r1, r2, lr}
    beb8:	e0030092 	mul	r3, r2, r0
    bebc:	e0411003 	sub	r1, r1, r3
    bec0:	e12fff1e 	bx	lr

0000bec4 <__div0>:
    bec4:	e12fff1e 	bx	lr

0000bec8 <__do_global_ctors_aux>:
    bec8:	e92d4010 	push	{r4, lr}
    becc:	e59f4024 	ldr	r4, [pc, #36]	; bef8 <__do_global_ctors_aux+0x30>
    bed0:	e5143004 	ldr	r3, [r4, #-4]
    bed4:	e3730001 	cmn	r3, #1
    bed8:	08bd8010 	popeq	{r4, pc}
    bedc:	e2444004 	sub	r4, r4, #4
    bee0:	e1a0e00f 	mov	lr, pc
    bee4:	e12fff13 	bx	r3
    bee8:	e5343004 	ldr	r3, [r4, #-4]!
    beec:	e3730001 	cmn	r3, #1
    bef0:	1afffffa 	bne	bee0 <__do_global_ctors_aux+0x18>
    bef4:	e8bd8010 	pop	{r4, pc}
    bef8:	0001bf48 	.word	0x0001bf48

0000befc <call___do_global_ctors_aux>:
    befc:	e52de004 	push	{lr}		; (str lr, [sp, #-4]!)
    bf00:	e49df004 	pop	{pc}		; (ldr pc, [sp], #4)

セクション .fini の逆アセンブル:

0000bf04 <_fini>:
    bf04:	e1a0c00d 	mov	ip, sp
    bf08:	e92ddff8 	push	{r3, r4, r5, r6, r7, r8, r9, sl, fp, ip, lr, pc}
    bf0c:	e24cb004 	sub	fp, ip, #4
    bf10:	ebfff05b 	bl	8084 <__do_global_dtors_aux>
    bf14:	e24bd028 	sub	sp, fp, #40	; 0x28
    bf18:	e89d6ff0 	ldm	sp, {r4, r5, r6, r7, r8, r9, sl, fp, sp, lr}
    bf1c:	e1a0f00e 	mov	pc, lr
