
hello.elf:     file format elf32-ft32
hello.elf
architecture: ft32, flags 0x00000112:
EXEC_P, HAS_SYMS, D_PAGED
start address 0x00000000

Program Header:
    LOAD off    0x00000094 vaddr 0x00000000 paddr 0x00000000 align 2**0
         filesz 0x00004554 memsz 0x00004554 flags r-x
    LOAD off    0x000045e8 vaddr 0x00800000 paddr 0x00004554 align 2**0
         filesz 0x00000850 memsz 0x00000850 flags rw-
    LOAD off    0x00000000 vaddr 0x00800850 paddr 0x00800850 align 2**0
         filesz 0x00000000 memsz 0x00000044 flags rw-

Sections:
Idx Name          Size      VMA       LMA       File off  Algn
  0 .data         00000850  00800000  00004554  000045e8  2**2
                  CONTENTS, ALLOC, LOAD, DATA
  1 .bss          00000044  00800850  00800850  00004e38  2**2
                  ALLOC
  2 .text         00004554  00000000  00000000  00000094  2**2
                  CONTENTS, ALLOC, LOAD, READONLY, CODE
  3 .debug_line   00006ca2  00000000  00000000  00004e38  2**0
                  CONTENTS, READONLY, DEBUGGING, OCTETS
  4 .debug_info   0000f793  00000000  00000000  0000bada  2**0
                  CONTENTS, READONLY, DEBUGGING, OCTETS
  5 .debug_abbrev 000035c3  00000000  00000000  0001b26d  2**0
                  CONTENTS, READONLY, DEBUGGING, OCTETS
  6 .debug_aranges 00000498  00000000  00000000  0001e830  2**3
                  CONTENTS, READONLY, DEBUGGING, OCTETS
  7 .debug_str    000013c5  00000000  00000000  0001ecc8  2**0
                  CONTENTS, READONLY, DEBUGGING, OCTETS
  8 .debug_frame  00000970  00000000  00000000  00020090  2**2
                  CONTENTS, READONLY, DEBUGGING, OCTETS
  9 .comment      00000012  00000000  00000000  00020a00  2**0
                  CONTENTS, READONLY
 10 .debug_ranges 00000030  00000000  00000000  00020a12  2**0
                  CONTENTS, READONLY, DEBUGGING, OCTETS
SYMBOL TABLE:
00800000 l    d  .data	00000000 .data
00800850 l    d  .bss	00000000 .bss
00000000 l    d  .text	00000000 .text
00000000 l    d  .debug_line	00000000 .debug_line
00000000 l    d  .debug_info	00000000 .debug_info
00000000 l    d  .debug_abbrev	00000000 .debug_abbrev
00000000 l    d  .debug_aranges	00000000 .debug_aranges
00000000 l    d  .debug_str	00000000 .debug_str
00000000 l    d  .debug_frame	00000000 .debug_frame
00000000 l    d  .comment	00000000 .comment
00000000 l    d  .debug_ranges	00000000 .debug_ranges
00000000 l    df *ABS*	00000000 start.o
00000000 l       .text	00000000 start
00000054 l       .text	00000000 exit
00000000 l    df *ABS*	00000000 hello.c
00000000 l    df *ABS*	00000000 puts.c
00000000 l    df *ABS*	00000000 strlen.c
00000000 l    df *ABS*	00000000 findfp.c
0000020c l     F .text	000000f0 std
000002fc l     F .text	00000024 stdin_init
00000320 l     F .text	00000024 stdout_init
00000344 l     F .text	00000024 stderr_init
00800850 l     O .bss	00000004 __sfp_recursive_mutex
00800854 l     O .bss	00000004 __sinit_recursive_mutex
000006e0 l     F .text	00000014 __fp_lock
000006f4 l     F .text	00000014 __fp_unlock
00000000 l    df *ABS*	00000000 fvwrite.c
00000000 l    df *ABS*	00000000 fwalk.c
00000000 l    df *ABS*	00000000 impure.c
00800000 l     O .data	00000424 impure_data
00000000 l    df *ABS*	00000000 mallocr.c
00000f64 l     F .text	000003bc malloc_extend_top
00000000 l    df *ABS*	00000000 memchr.c
00000000 l    df *ABS*	00000000 memcpy.c
00000000 l    df *ABS*	00000000 memmove.c
00000000 l    df *ABS*	00000000 memset.c
00000000 l    df *ABS*	00000000 mlock.c
0080088c l     O .bss	00000004 __malloc_recursive_mutex
00000000 l    df *ABS*	00000000 mallocr.c
00000000 l    df *ABS*	00000000 sbrkr.c
00000000 l    df *ABS*	00000000 stdio.c
00000000 l    df *ABS*	00000000 writer.c
00000000 l    df *ABS*	00000000 wsetup.c
00000000 l    df *ABS*	00000000 closer.c
00000000 l    df *ABS*	00000000 fclose.c
00000000 l    df *ABS*	00000000 fflush.c
00000000 l    df *ABS*	00000000 mallocr.c
00000000 l    df *ABS*	00000000 lseekr.c
00000000 l    df *ABS*	00000000 makebuf.c
00000000 l    df *ABS*	00000000 readr.c
00000000 l    df *ABS*	00000000 reent.c
00000000 l    df *ABS*	00000000 fstatr.c
00000000 l    df *ABS*	00000000 isattyr.c
00000000 l    df *ABS*	00000000 fstat.c
00000000 l    df *ABS*	00000000 isatty.c
00000000 l    df *ABS*	00000000 sbrk.c
00000000 l    df *ABS*	00000000 sim-lseek.c
00000000 l    df *ABS*	00000000 errno.c
00004418 g     F .text	00000050 _isatty_r
000041ac g     F .text	00000048 cleanup_glue
00000070 g     F .text	00000138 _puts_r
00003e64 g     F .text	00000060 _lseek_r
00002e34 g     F .text	0000009c __sseek
000005f0 g     F .text	000000b0 __sinit
00000368 g     F .text	00000090 __sfmoreglue
0000208c g     F .text	00000014 __malloc_unlock
00001f24 g     F .text	000000fc memmove
000005d8 g     F .text	00000018 _cleanup
00004544 g     F .text	00000010 __errno
000043c0 g     F .text	00000058 _fstat_r
00800890 g     O .bss	00000004 errno
00002d74 g     F .text	00000020 __seofread
00001eb0 g     F .text	00000074 memcpy
000005b0 g     F .text	00000028 _cleanup_r
00004da4 g       *ABS*	00000000 __data_load_end
000001a8 g     F .text	0000001c puts
00004468 g     F .text	00000030 _fstat
00800850 g       .bss	00000000 _bss_start
00800858 g     O .bss	00000004 __malloc_top_pad
00000748 g     F .text	000006a8 __sfvwrite_r
00002c98 g     F .text	00000050 _sbrk_r
0000414c g     F .text	00000060 _read_r
000031e4 g     F .text	00000148 _fclose_r
0000374c g     F .text	00000034 fflush
0080085c g     O .bss	00000004 __malloc_max_sbrked_mem
00004554 g       *ABS*	00000000 __data_load_start
00004498 g     F .text	00000014 _isatty
0080084c g     O .data	00000004 _global_impure_ptr
000020a0 g     F .text	00000bf8 _realloc_r
00007008 g       .bss	00000000 stack
000044ac g     F .text	00000064 _sbrk
00000708 g     F .text	00000020 __fp_lock_all
00800894 g       .bss	00000000 _bss_end
000041f4 g     F .text	000001cc _reclaim_reent
00004534  w      .text	00000000 write
000006a0 g     F .text	00000010 __sfp_lock_acquire
00001e38 g     F .text	00000078 memchr
00003780 g     F .text	00000550 _free_r
00800834 g     O .data	00000004 __malloc_sbrk_base
00800000 g       .data	00000000 _data_start
00004514 g     F .text	0000001c _lseek
00004530  w      .text	00000000 read
00800864 g     O .bss	00000028 __malloc_current_mallinfo
00003194 g     F .text	00000050 _close_r
00800850 g       .data	00000000 _data_end
00002f64 g     F .text	00000230 __swsetup_r
000003f8 g     F .text	000001b8 __sfp
00800428 g     O .data	00000408 __malloc_av_
000006d0 g     F .text	00000010 __sinit_lock_release
00002ce8 g     F .text	0000008c __sread
00002078 g     F .text	00000014 __malloc_lock
000036d8 g     F .text	00000074 _fflush_r
00800838 g     O .data	00000004 __heap_ptr
00002020 g     F .text	00000058 memset
00000058 g     F .text	00000018 main
00800860 g     O .bss	00000004 __malloc_max_total_mem
00002ed0 g     F .text	00000034 __sclose
0000332c g     F .text	00000018 fclose
00001320 g     F .text	00000b18 _malloc_r
00000df0 g     F .text	000000b8 _fwalk
00003cd0 g     F .text	00000194 _malloc_trim_r
00002f04 g     F .text	00000060 _write_r
00800424 g     O .data	00000004 _impure_ptr
00003344 g     F .text	00000394 __sflush_r
00000728 g     F .text	00000020 __fp_unlock_all
00004060 g     F .text	000000ec __swhatbuf_r
00004534 g     F .text	00000010 _write
00800894 g       .bss	00000000 _end
00002d94 g     F .text	000000a0 __swrite
00800830 g     O .data	00000004 __malloc_trim_threshold
00000ea8 g     F .text	000000bc _fwalk_reent
000006b0 g     F .text	00000010 __sfp_lock_release
00004530 g     F .text	00000004 _read
00003ec4 g     F .text	0000019c __smakebuf_r
000001c4 g     F .text	00000048 strlen
00004510  w      .text	00000000 close
00004510 g     F .text	00000004 _close
000006c0 g     F .text	00000010 __sinit_lock_acquire



Disassembly of section .text:

00000000 <start>:
       0:	54 45 00 64 	64004554 ldk.l $r0,17748
       4:	a4 4d 10 64 	64104da4 ldk.l $r1,19876
       8:	00 00 20 64 	64200000 ldk.l $r2,0
       c:	12 00 e0 5d 	5de00012 cmp.l $r0,$r1
      10:	0a 00 28 00 	0028000a jmpc z,28 <start+0x28>
      14:	00 00 30 c8 	c8300000 lpmi.b $r3,$r0,0
      18:	00 80 21 b0 	b0218000 sti.b $r2,0,$r3
      1c:	10 40 00 44 	44004010 add.l $r0,$r0,1
      20:	10 40 21 44 	44214010 add.l $r2,$r2,1
      24:	03 00 30 00 	00300003 jmp c <start+0xc>
      28:	50 08 00 64 	64000850 ldk.l $r0,2128
      2c:	94 08 10 64 	64100894 ldk.l $r1,2196
      30:	00 00 20 60 	60200000 ldk.b $r2,0
      34:	12 00 e0 5d 	5de00012 cmp.l $r0,$r1
      38:	12 00 28 00 	00280012 jmpc z,48 <start+0x48>
      3c:	00 00 01 b0 	b0010000 sti.b $r0,0,$r2
      40:	10 40 00 44 	44004010 add.l $r0,$r0,1
      44:	0d 00 30 00 	0030000d jmp 34 <start+0x34>
      48:	08 70 f0 65 	65f07008 ldk.l $r31,28680
      4c:	16 00 34 00 	00340016 call 58 <main>
      50:	00 40 00 40 	40004000 nop 

00000054 <exit>:
      54:	16 00 30 00 	00300016 jmp 58 <main>

00000058 <main>:
      58:	00 00 d0 95 	95d00000 link $r29,0
      5c:	3c 08 00 64 	6400083c ldk.l $r0,2108
      60:	6a 00 34 00 	0034006a call 1a8 <puts>
      64:	00 00 00 64 	64000000 ldk.l $r0,0
      68:	00 00 d0 99 	99d00000 unlink $r29
      6c:	00 00 00 a0 	a0000000 return 

00000070 <_puts_r>:
      70:	34 00 d0 95 	95d00034 link $r29,52
      74:	d0 00 d0 b5 	b5d000d0 sti.l $r29,208,$r0
      78:	cc 80 d0 b5 	b5d080cc sti.l $r29,204,$r1
      7c:	cc 80 0e ac 	ac0e80cc ldi.l $r0,$r29,204
      80:	71 00 34 00 	00340071 call 1c4 <strlen>
      84:	fc 00 d0 b5 	b5d000fc sti.l $r29,252,$r0
      88:	40 fd 0e 44 	440efd40 add.l $r0,$r29,-44
      8c:	cc 80 1e ac 	ac1e80cc ldi.l $r1,$r29,204
      90:	00 80 00 b4 	b4008000 sti.l $r0,0,$r1
      94:	40 fd 0e 44 	440efd40 add.l $r0,$r29,-44
      98:	fc 80 1e ac 	ac1e80fc ldi.l $r1,$r29,252
      9c:	04 80 00 b4 	b4008004 sti.l $r0,4,$r1
      a0:	40 fd 0e 44 	440efd40 add.l $r0,$r29,-44
      a4:	48 08 10 64 	64100848 ldk.l $r1,2120
      a8:	08 80 00 b4 	b4008008 sti.l $r0,8,$r1
      ac:	40 fd 0e 44 	440efd40 add.l $r0,$r29,-44
      b0:	01 00 10 64 	64100001 ldk.l $r1,1
      b4:	0c 80 00 b4 	b400800c sti.l $r0,12,$r1
      b8:	fc 80 0e ac 	ac0e80fc ldi.l $r0,$r29,252
      bc:	10 40 10 44 	44104010 add.l $r1,$r0,1
      c0:	40 fe 0e 44 	440efe40 add.l $r0,$r29,-28
      c4:	08 80 00 b4 	b4008008 sti.l $r0,8,$r1
      c8:	40 fe 0e 44 	440efe40 add.l $r0,$r29,-28
      cc:	40 fd 1e 44 	441efd40 add.l $r1,$r29,-44
      d0:	00 80 00 b4 	b4008000 sti.l $r0,0,$r1
      d4:	40 fe 0e 44 	440efe40 add.l $r0,$r29,-28
      d8:	02 00 10 64 	64100002 ldk.l $r1,2
      dc:	04 80 00 b4 	b4008004 sti.l $r0,4,$r1
      e0:	d0 80 0e ac 	ac0e80d0 ldi.l $r0,$r29,208
      e4:	08 00 00 ac 	ac000008 ldi.l $r0,$r0,8
      e8:	f8 00 d0 b5 	b5d000f8 sti.l $r29,248,$r0
      ec:	d0 80 0e ac 	ac0e80d0 ldi.l $r0,$r29,208
      f0:	f4 00 d0 b5 	b5d000f4 sti.l $r29,244,$r0
      f4:	f4 80 0e ac 	ac0e80f4 ldi.l $r0,$r29,244
      f8:	02 40 e0 5d 	5de04002 cmp.l $r0,0
      fc:	46 00 28 00 	00280046 jmpc z,118 <_puts_r+0xa8>
     100:	f4 80 0e ac 	ac0e80f4 ldi.l $r0,$r29,244
     104:	38 00 00 ac 	ac000038 ldi.l $r0,$r0,56
     108:	02 40 e0 5d 	5de04002 cmp.l $r0,0
     10c:	46 00 20 00 	00200046 jmpc nz,118 <_puts_r+0xa8>
     110:	f4 80 0e ac 	ac0e80f4 ldi.l $r0,$r29,244
     114:	7c 01 34 00 	0034017c call 5f0 <__sinit>
     118:	f8 80 0e ac 	ac0e80f8 ldi.l $r0,$r29,248
     11c:	0c 00 10 aa 	aa10000c ldi.s $r1,$r0,12
     120:	0c c0 00 44 	4400c00c bexts.l $r0,$r1,0
     124:	0d 40 00 44 	4400400d bextu.l $r0,$r0,0
     128:	00 20 10 64 	64102000 ldk.l $r1,8192
     12c:	14 00 00 44 	44000014 and.l $r0,$r0,$r1
     130:	02 40 e0 5d 	5de04002 cmp.l $r0,0
     134:	5c 00 20 00 	0020005c jmpc nz,170 <_puts_r+0x100>
     138:	f8 80 0e ac 	ac0e80f8 ldi.l $r0,$r29,248
     13c:	0c 00 10 aa 	aa10000c ldi.s $r1,$r0,12
     140:	0c c0 00 44 	4400c00c bexts.l $r0,$r1,0
     144:	db 62 00 44 	440062db bins.l $r0,$r0,-467
     148:	0c 40 10 44 	4410400c bexts.l $r1,$r0,0
     14c:	f8 80 0e ac 	ac0e80f8 ldi.l $r0,$r29,248
     150:	00 c0 10 42 	4210c000 move.s $r1,$r1
     154:	c0 40 00 44 	440040c0 add.l $r0,$r0,12
     158:	00 80 00 b2 	b2008000 sti.s $r0,0,$r1
     15c:	f8 80 0e ac 	ac0e80f8 ldi.l $r0,$r29,248
     160:	64 00 00 ac 	ac000064 ldi.l $r0,$r0,100
     164:	db 42 10 44 	441042db bins.l $r1,$r0,45
     168:	f8 80 0e ac 	ac0e80f8 ldi.l $r0,$r29,248
     16c:	64 80 00 b4 	b4008064 sti.l $r0,100,$r1
     170:	40 fe 0e 44 	440efe40 add.l $r0,$r29,-28
     174:	00 40 20 44 	44204000 move.l $r2,$r0
     178:	f8 80 1e ac 	ac1e80f8 ldi.l $r1,$r29,248
     17c:	d0 80 0e ac 	ac0e80d0 ldi.l $r0,$r29,208
     180:	d2 01 34 00 	003401d2 call 748 <__sfvwrite_r>
     184:	02 40 e0 5d 	5de04002 cmp.l $r0,0
     188:	65 00 28 00 	00280065 jmpc z,194 <_puts_r+0x124>
     18c:	ff ff 0f 64 	640fffff ldk.l $r0,-1
     190:	66 00 30 00 	00300066 jmp 198 <_puts_r+0x128>
     194:	0a 00 00 64 	6400000a ldk.l $r0,10
     198:	f0 00 d0 b5 	b5d000f0 sti.l $r29,240,$r0
     19c:	f0 80 0e ac 	ac0e80f0 ldi.l $r0,$r29,240
     1a0:	00 00 d0 99 	99d00000 unlink $r29
     1a4:	00 00 00 a0 	a0000000 return 

000001a8 <puts>:
     1a8:	04 00 d0 95 	95d00004 link $r29,4
     1ac:	fc 00 d0 b5 	b5d000fc sti.l $r29,252,$r0
     1b0:	24 04 00 c4 	c4000424 lda.l $r0,800424 <_impure_ptr>
     1b4:	fc 80 1e ac 	ac1e80fc ldi.l $r1,$r29,252
     1b8:	1c 00 34 00 	0034001c call 70 <_puts_r>
     1bc:	00 00 d0 99 	99d00000 unlink $r29
     1c0:	00 00 00 a0 	a0000000 return 

000001c4 <strlen>:
     1c4:	08 00 d0 95 	95d00008 link $r29,8
     1c8:	f8 00 d0 b5 	b5d000f8 sti.l $r29,248,$r0
     1cc:	f8 80 0e ac 	ac0e80f8 ldi.l $r0,$r29,248
     1d0:	fc 00 d0 b5 	b5d000fc sti.l $r29,252,$r0
     1d4:	79 00 30 00 	00300079 jmp 1e4 <strlen+0x20>
     1d8:	f8 80 0e ac 	ac0e80f8 ldi.l $r0,$r29,248
     1dc:	10 40 00 44 	44004010 add.l $r0,$r0,1
     1e0:	f8 00 d0 b5 	b5d000f8 sti.l $r29,248,$r0
     1e4:	f8 80 0e ac 	ac0e80f8 ldi.l $r0,$r29,248
     1e8:	00 00 10 a8 	a8100000 ldi.b $r1,$r0,0
     1ec:	0c d0 00 44 	4400d00c bexts.l $r0,$r1,256
     1f0:	02 40 e0 5d 	5de04002 cmp.l $r0,0
     1f4:	76 00 20 00 	00200076 jmpc nz,1d8 <strlen+0x14>
     1f8:	f8 80 1e ac 	ac1e80f8 ldi.l $r1,$r29,248
     1fc:	fc 80 0e ac 	ac0e80fc ldi.l $r0,$r29,252
     200:	02 80 00 44 	44008002 sub.l $r0,$r1,$r0
     204:	00 00 d0 99 	99d00000 unlink $r29
     208:	00 00 00 a0 	a0000000 return 

0000020c <std>:
     20c:	0c 00 d0 95 	95d0000c link $r29,12
     210:	fc 00 d0 b5 	b5d000fc sti.l $r29,252,$r0
     214:	f8 80 d0 b5 	b5d080f8 sti.l $r29,248,$r1
     218:	f4 00 d1 b5 	b5d100f4 sti.l $r29,244,$r2
     21c:	fc 80 0e ac 	ac0e80fc ldi.l $r0,$r29,252
     220:	00 00 10 64 	64100000 ldk.l $r1,0
     224:	00 80 00 b4 	b4008000 sti.l $r0,0,$r1
     228:	fc 80 0e ac 	ac0e80fc ldi.l $r0,$r29,252
     22c:	00 00 10 64 	64100000 ldk.l $r1,0
     230:	04 80 00 b4 	b4008004 sti.l $r0,4,$r1
     234:	fc 80 0e ac 	ac0e80fc ldi.l $r0,$r29,252
     238:	00 00 10 64 	64100000 ldk.l $r1,0
     23c:	08 80 00 b4 	b4008008 sti.l $r0,8,$r1
     240:	f8 80 0e ac 	ac0e80f8 ldi.l $r0,$r29,248
     244:	0c 40 10 44 	4410400c bexts.l $r1,$r0,0
     248:	fc 80 0e ac 	ac0e80fc ldi.l $r0,$r29,252
     24c:	00 c0 10 42 	4210c000 move.s $r1,$r1
     250:	c0 40 00 44 	440040c0 add.l $r0,$r0,12
     254:	00 80 00 b2 	b2008000 sti.s $r0,0,$r1
     258:	fc 80 0e ac 	ac0e80fc ldi.l $r0,$r29,252
     25c:	00 00 10 64 	64100000 ldk.l $r1,0
     260:	64 80 00 b4 	b4008064 sti.l $r0,100,$r1
     264:	f4 80 0e ac 	ac0e80f4 ldi.l $r0,$r29,244
     268:	0c 40 10 44 	4410400c bexts.l $r1,$r0,0
     26c:	fc 80 0e ac 	ac0e80fc ldi.l $r0,$r29,252
     270:	00 c0 10 42 	4210c000 move.s $r1,$r1
     274:	e0 40 00 44 	440040e0 add.l $r0,$r0,14
     278:	00 80 00 b2 	b2008000 sti.s $r0,0,$r1
     27c:	fc 80 0e ac 	ac0e80fc ldi.l $r0,$r29,252
     280:	00 00 10 64 	64100000 ldk.l $r1,0
     284:	10 80 00 b4 	b4008010 sti.l $r0,16,$r1
     288:	fc 80 0e ac 	ac0e80fc ldi.l $r0,$r29,252
     28c:	00 00 10 64 	64100000 ldk.l $r1,0
     290:	14 80 00 b4 	b4008014 sti.l $r0,20,$r1
     294:	fc 80 0e ac 	ac0e80fc ldi.l $r0,$r29,252
     298:	00 00 10 64 	64100000 ldk.l $r1,0
     29c:	18 80 00 b4 	b4008018 sti.l $r0,24,$r1
     2a0:	fc 80 0e ac 	ac0e80fc ldi.l $r0,$r29,252
     2a4:	c0 45 00 44 	440045c0 add.l $r0,$r0,92
     2a8:	08 00 20 64 	64200008 ldk.l $r2,8
     2ac:	00 00 10 64 	64100000 ldk.l $r1,0
     2b0:	08 08 34 00 	00340808 call 2020 <memset>
     2b4:	fc 80 0e ac 	ac0e80fc ldi.l $r0,$r29,252
     2b8:	fc 80 1e ac 	ac1e80fc ldi.l $r1,$r29,252
     2bc:	1c 80 00 b4 	b400801c sti.l $r0,28,$r1
     2c0:	fc 80 0e ac 	ac0e80fc ldi.l $r0,$r29,252
     2c4:	e8 2c 10 64 	64102ce8 ldk.l $r1,11496
     2c8:	20 80 00 b4 	b4008020 sti.l $r0,32,$r1
     2cc:	fc 80 0e ac 	ac0e80fc ldi.l $r0,$r29,252
     2d0:	94 2d 10 64 	64102d94 ldk.l $r1,11668
     2d4:	24 80 00 b4 	b4008024 sti.l $r0,36,$r1
     2d8:	fc 80 0e ac 	ac0e80fc ldi.l $r0,$r29,252
     2dc:	34 2e 10 64 	64102e34 ldk.l $r1,11828
     2e0:	28 80 00 b4 	b4008028 sti.l $r0,40,$r1
     2e4:	fc 80 0e ac 	ac0e80fc ldi.l $r0,$r29,252
     2e8:	d0 2e 10 64 	64102ed0 ldk.l $r1,11984
     2ec:	2c 80 00 b4 	b400802c sti.l $r0,44,$r1
     2f0:	00 40 00 40 	40004000 nop 
     2f4:	00 00 d0 99 	99d00000 unlink $r29
     2f8:	00 00 00 a0 	a0000000 return 

000002fc <stdin_init>:
     2fc:	04 00 d0 95 	95d00004 link $r29,4
     300:	fc 00 d0 b5 	b5d000fc sti.l $r29,252,$r0
     304:	00 00 20 64 	64200000 ldk.l $r2,0
     308:	04 00 10 64 	64100004 ldk.l $r1,4
     30c:	fc 80 0e ac 	ac0e80fc ldi.l $r0,$r29,252
     310:	83 00 34 00 	00340083 call 20c <std>
     314:	00 40 00 40 	40004000 nop 
     318:	00 00 d0 99 	99d00000 unlink $r29
     31c:	00 00 00 a0 	a0000000 return 

00000320 <stdout_init>:
     320:	04 00 d0 95 	95d00004 link $r29,4
     324:	fc 00 d0 b5 	b5d000fc sti.l $r29,252,$r0
     328:	01 00 20 64 	64200001 ldk.l $r2,1
     32c:	09 00 10 64 	64100009 ldk.l $r1,9
     330:	fc 80 0e ac 	ac0e80fc ldi.l $r0,$r29,252
     334:	83 00 34 00 	00340083 call 20c <std>
     338:	00 40 00 40 	40004000 nop 
     33c:	00 00 d0 99 	99d00000 unlink $r29
     340:	00 00 00 a0 	a0000000 return 

00000344 <stderr_init>:
     344:	04 00 d0 95 	95d00004 link $r29,4
     348:	fc 00 d0 b5 	b5d000fc sti.l $r29,252,$r0
     34c:	02 00 20 64 	64200002 ldk.l $r2,2
     350:	12 00 10 64 	64100012 ldk.l $r1,18
     354:	fc 80 0e ac 	ac0e80fc ldi.l $r0,$r29,252
     358:	83 00 34 00 	00340083 call 20c <std>
     35c:	00 40 00 40 	40004000 nop 
     360:	00 00 d0 99 	99d00000 unlink $r29
     364:	00 00 00 a0 	a0000000 return 

00000368 <__sfmoreglue>:
     368:	00 80 06 84 	84068000 push.l $r13
     36c:	08 00 d0 95 	95d00008 link $r29,8
     370:	f8 00 d0 b5 	b5d000f8 sti.l $r29,248,$r0
     374:	00 c0 d0 44 	44d0c000 move.l $r13,$r1
     378:	f0 ff 06 44 	4406fff0 add.l $r0,$r13,-1
     37c:	88 46 00 f4 	f4004688 mul.l $r0,$r0,104
     380:	40 47 00 44 	44004740 add.l $r0,$r0,116
     384:	00 40 10 44 	44104000 move.l $r1,$r0
     388:	f8 80 0e ac 	ac0e80f8 ldi.l $r0,$r29,248
     38c:	c8 04 34 00 	003404c8 call 1320 <_malloc_r>
     390:	fc 00 d0 b5 	b5d000fc sti.l $r29,252,$r0
     394:	fc 80 0e ac 	ac0e80fc ldi.l $r0,$r29,252
     398:	02 40 e0 5d 	5de04002 cmp.l $r0,0
     39c:	ea 00 20 00 	002000ea jmpc nz,3a8 <__sfmoreglue+0x40>
     3a0:	00 00 00 64 	64000000 ldk.l $r0,0
     3a4:	fb 00 30 00 	003000fb jmp 3ec <__sfmoreglue+0x84>
     3a8:	fc 80 0e ac 	ac0e80fc ldi.l $r0,$r29,252
     3ac:	00 00 10 64 	64100000 ldk.l $r1,0
     3b0:	00 80 00 b4 	b4008000 sti.l $r0,0,$r1
     3b4:	fc 80 0e ac 	ac0e80fc ldi.l $r0,$r29,252
     3b8:	04 80 06 b4 	b4068004 sti.l $r0,4,$r13
     3bc:	fc 80 0e ac 	ac0e80fc ldi.l $r0,$r29,252
     3c0:	c0 40 10 44 	441040c0 add.l $r1,$r0,12
     3c4:	fc 80 0e ac 	ac0e80fc ldi.l $r0,$r29,252
     3c8:	08 80 00 b4 	b4008008 sti.l $r0,8,$r1
     3cc:	fc 80 0e ac 	ac0e80fc ldi.l $r0,$r29,252
     3d0:	c0 40 00 44 	440040c0 add.l $r0,$r0,12
     3d4:	00 c0 16 44 	4416c000 move.l $r1,$r13
     3d8:	88 c6 10 f4 	f410c688 mul.l $r1,$r1,104
     3dc:	00 c0 20 44 	4420c000 move.l $r2,$r1
     3e0:	00 00 10 64 	64100000 ldk.l $r1,0
     3e4:	08 08 34 00 	00340808 call 2020 <memset>
     3e8:	fc 80 0e ac 	ac0e80fc ldi.l $r0,$r29,252
     3ec:	00 00 d0 99 	99d00000 unlink $r29
     3f0:	00 00 d0 8c 	8cd00000 pop.l $r13
     3f4:	00 00 00 a0 	a0000000 return 

000003f8 <__sfp>:
     3f8:	10 00 d0 95 	95d00010 link $r29,16
     3fc:	f0 00 d0 b5 	b5d000f0 sti.l $r29,240,$r0
     400:	a8 01 34 00 	003401a8 call 6a0 <__sfp_lock_acquire>
     404:	4c 08 00 c4 	c400084c lda.l $r0,80084c <_global_impure_ptr>
     408:	38 00 00 ac 	ac000038 ldi.l $r0,$r0,56
     40c:	02 40 e0 5d 	5de04002 cmp.l $r0,0
     410:	07 01 20 00 	00200107 jmpc nz,41c <__sfp+0x24>
     414:	4c 08 00 c4 	c400084c lda.l $r0,80084c <_global_impure_ptr>
     418:	7c 01 34 00 	0034017c call 5f0 <__sinit>
     41c:	4c 08 10 c4 	c410084c lda.l $r1,80084c <_global_impure_ptr>
     420:	e0 02 00 64 	640002e0 ldk.l $r0,736
     424:	00 80 00 44 	44008000 add.l $r0,$r1,$r0
     428:	f4 00 d0 b5 	b5d000f4 sti.l $r29,244,$r0
     42c:	f4 80 0e ac 	ac0e80f4 ldi.l $r0,$r29,244
     430:	08 00 00 ac 	ac000008 ldi.l $r0,$r0,8
     434:	fc 00 d0 b5 	b5d000fc sti.l $r29,252,$r0
     438:	f4 80 0e ac 	ac0e80f4 ldi.l $r0,$r29,244
     43c:	04 00 00 ac 	ac000004 ldi.l $r0,$r0,4
     440:	f8 00 d0 b5 	b5d000f8 sti.l $r29,248,$r0
     444:	1a 01 30 00 	0030011a jmp 468 <__sfp+0x70>
     448:	fc 80 0e ac 	ac0e80fc ldi.l $r0,$r29,252
     44c:	0c 00 10 aa 	aa10000c ldi.s $r1,$r0,12
     450:	0c c0 00 44 	4400c00c bexts.l $r0,$r1,0
     454:	02 40 e0 5d 	5de04002 cmp.l $r0,0
     458:	39 01 28 00 	00280139 jmpc z,4e4 <__sfp+0xec>
     45c:	fc 80 0e ac 	ac0e80fc ldi.l $r0,$r29,252
     460:	80 46 00 44 	44004680 add.l $r0,$r0,104
     464:	fc 00 d0 b5 	b5d000fc sti.l $r29,252,$r0
     468:	f8 80 0e ac 	ac0e80f8 ldi.l $r0,$r29,248
     46c:	f0 7f 00 44 	44007ff0 add.l $r0,$r0,-1
     470:	f8 00 d0 b5 	b5d000f8 sti.l $r29,248,$r0
     474:	f8 80 0e ac 	ac0e80f8 ldi.l $r0,$r29,248
     478:	02 40 e0 5d 	5de04002 cmp.l $r0,0
     47c:	12 01 28 01 	01280112 jmpc gte,448 <__sfp+0x50>
     480:	f4 80 0e ac 	ac0e80f4 ldi.l $r0,$r29,244
     484:	00 00 00 ac 	ac000000 ldi.l $r0,$r0,0
     488:	02 40 e0 5d 	5de04002 cmp.l $r0,0
     48c:	2e 01 20 00 	0020012e jmpc nz,4b8 <__sfp+0xc0>
     490:	04 00 10 64 	64100004 ldk.l $r1,4
     494:	f0 80 0e ac 	ac0e80f0 ldi.l $r0,$r29,240
     498:	da 00 34 00 	003400da call 368 <__sfmoreglue>
     49c:	00 40 10 44 	44104000 move.l $r1,$r0
     4a0:	f4 80 0e ac 	ac0e80f4 ldi.l $r0,$r29,244
     4a4:	00 80 00 b4 	b4008000 sti.l $r0,0,$r1
     4a8:	f4 80 0e ac 	ac0e80f4 ldi.l $r0,$r29,244
     4ac:	00 00 00 ac 	ac000000 ldi.l $r0,$r0,0
     4b0:	02 40 e0 5d 	5de04002 cmp.l $r0,0
     4b4:	32 01 28 00 	00280132 jmpc z,4c8 <__sfp+0xd0>
     4b8:	f4 80 0e ac 	ac0e80f4 ldi.l $r0,$r29,244
     4bc:	00 00 00 ac 	ac000000 ldi.l $r0,$r0,0
     4c0:	f4 00 d0 b5 	b5d000f4 sti.l $r29,244,$r0
     4c4:	0b 01 30 00 	0030010b jmp 42c <__sfp+0x34>
     4c8:	00 40 00 40 	40004000 nop 
     4cc:	ac 01 34 00 	003401ac call 6b0 <__sfp_lock_release>
     4d0:	f0 80 0e ac 	ac0e80f0 ldi.l $r0,$r29,240
     4d4:	0c 00 10 64 	6410000c ldk.l $r1,12
     4d8:	00 80 00 b4 	b4008000 sti.l $r0,0,$r1
     4dc:	00 00 00 64 	64000000 ldk.l $r0,0
     4e0:	6a 01 30 00 	0030016a jmp 5a8 <__sfp+0x1b0>
     4e4:	00 40 00 40 	40004000 nop 
     4e8:	fc 80 0e ac 	ac0e80fc ldi.l $r0,$r29,252
     4ec:	ff ff 1f 62 	621fffff ldk.s $r1,-1
     4f0:	e0 40 00 44 	440040e0 add.l $r0,$r0,14
     4f4:	00 80 00 b2 	b2008000 sti.s $r0,0,$r1
     4f8:	fc 80 0e ac 	ac0e80fc ldi.l $r0,$r29,252
     4fc:	01 00 10 62 	62100001 ldk.s $r1,1
     500:	c0 40 00 44 	440040c0 add.l $r0,$r0,12
     504:	00 80 00 b2 	b2008000 sti.s $r0,0,$r1
     508:	fc 80 0e ac 	ac0e80fc ldi.l $r0,$r29,252
     50c:	00 00 10 64 	64100000 ldk.l $r1,0
     510:	64 80 00 b4 	b4008064 sti.l $r0,100,$r1
     514:	ac 01 34 00 	003401ac call 6b0 <__sfp_lock_release>
     518:	fc 80 0e ac 	ac0e80fc ldi.l $r0,$r29,252
     51c:	00 00 10 64 	64100000 ldk.l $r1,0
     520:	00 80 00 b4 	b4008000 sti.l $r0,0,$r1
     524:	fc 80 0e ac 	ac0e80fc ldi.l $r0,$r29,252
     528:	00 00 10 64 	64100000 ldk.l $r1,0
     52c:	08 80 00 b4 	b4008008 sti.l $r0,8,$r1
     530:	fc 80 0e ac 	ac0e80fc ldi.l $r0,$r29,252
     534:	00 00 10 64 	64100000 ldk.l $r1,0
     538:	04 80 00 b4 	b4008004 sti.l $r0,4,$r1
     53c:	fc 80 0e ac 	ac0e80fc ldi.l $r0,$r29,252
     540:	00 00 10 64 	64100000 ldk.l $r1,0
     544:	10 80 00 b4 	b4008010 sti.l $r0,16,$r1
     548:	fc 80 0e ac 	ac0e80fc ldi.l $r0,$r29,252
     54c:	00 00 10 64 	64100000 ldk.l $r1,0
     550:	14 80 00 b4 	b4008014 sti.l $r0,20,$r1
     554:	fc 80 0e ac 	ac0e80fc ldi.l $r0,$r29,252
     558:	00 00 10 64 	64100000 ldk.l $r1,0
     55c:	18 80 00 b4 	b4008018 sti.l $r0,24,$r1
     560:	fc 80 0e ac 	ac0e80fc ldi.l $r0,$r29,252
     564:	c0 45 00 44 	440045c0 add.l $r0,$r0,92
     568:	08 00 20 64 	64200008 ldk.l $r2,8
     56c:	00 00 10 64 	64100000 ldk.l $r1,0
     570:	08 08 34 00 	00340808 call 2020 <memset>
     574:	fc 80 0e ac 	ac0e80fc ldi.l $r0,$r29,252
     578:	00 00 10 64 	64100000 ldk.l $r1,0
     57c:	30 80 00 b4 	b4008030 sti.l $r0,48,$r1
     580:	fc 80 0e ac 	ac0e80fc ldi.l $r0,$r29,252
     584:	00 00 10 64 	64100000 ldk.l $r1,0
     588:	34 80 00 b4 	b4008034 sti.l $r0,52,$r1
     58c:	fc 80 0e ac 	ac0e80fc ldi.l $r0,$r29,252
     590:	00 00 10 64 	64100000 ldk.l $r1,0
     594:	44 80 00 b4 	b4008044 sti.l $r0,68,$r1
     598:	fc 80 0e ac 	ac0e80fc ldi.l $r0,$r29,252
     59c:	00 00 10 64 	64100000 ldk.l $r1,0
     5a0:	48 80 00 b4 	b4008048 sti.l $r0,72,$r1
     5a4:	fc 80 0e ac 	ac0e80fc ldi.l $r0,$r29,252
     5a8:	00 00 d0 99 	99d00000 unlink $r29
     5ac:	00 00 00 a0 	a0000000 return 

000005b0 <_cleanup_r>:
     5b0:	08 00 d0 95 	95d00008 link $r29,8
     5b4:	f8 00 d0 b5 	b5d000f8 sti.l $r29,248,$r0
     5b8:	e4 31 00 64 	640031e4 ldk.l $r0,12772
     5bc:	fc 00 d0 b5 	b5d000fc sti.l $r29,252,$r0
     5c0:	fc 80 1e ac 	ac1e80fc ldi.l $r1,$r29,252
     5c4:	f8 80 0e ac 	ac0e80f8 ldi.l $r0,$r29,248
     5c8:	aa 03 34 00 	003403aa call ea8 <_fwalk_reent>
     5cc:	00 40 00 40 	40004000 nop 
     5d0:	00 00 d0 99 	99d00000 unlink $r29
     5d4:	00 00 00 a0 	a0000000 return 

000005d8 <_cleanup>:
     5d8:	00 00 d0 95 	95d00000 link $r29,0
     5dc:	4c 08 00 c4 	c400084c lda.l $r0,80084c <_global_impure_ptr>
     5e0:	6c 01 34 00 	0034016c call 5b0 <_cleanup_r>
     5e4:	00 40 00 40 	40004000 nop 
     5e8:	00 00 d0 99 	99d00000 unlink $r29
     5ec:	00 00 00 a0 	a0000000 return 

000005f0 <__sinit>:
     5f0:	04 00 d0 95 	95d00004 link $r29,4
     5f4:	fc 00 d0 b5 	b5d000fc sti.l $r29,252,$r0
     5f8:	b0 01 34 00 	003401b0 call 6c0 <__sinit_lock_acquire>
     5fc:	fc 80 0e ac 	ac0e80fc ldi.l $r0,$r29,252
     600:	38 00 00 ac 	ac000038 ldi.l $r0,$r0,56
     604:	02 40 e0 5d 	5de04002 cmp.l $r0,0
     608:	85 01 28 00 	00280185 jmpc z,614 <__sinit+0x24>
     60c:	b4 01 34 00 	003401b4 call 6d0 <__sinit_lock_release>
     610:	a6 01 30 00 	003001a6 jmp 698 <__sinit+0xa8>
     614:	fc 80 0e ac 	ac0e80fc ldi.l $r0,$r29,252
     618:	b0 05 10 64 	641005b0 ldk.l $r1,1456
     61c:	3c 80 00 b4 	b400803c sti.l $r0,60,$r1
     620:	fc 80 1e ac 	ac1e80fc ldi.l $r1,$r29,252
     624:	e0 02 00 64 	640002e0 ldk.l $r0,736
     628:	00 80 00 44 	44008000 add.l $r0,$r1,$r0
     62c:	00 00 10 64 	64100000 ldk.l $r1,0
     630:	00 80 00 b4 	b4008000 sti.l $r0,0,$r1
     634:	fc 80 1e ac 	ac1e80fc ldi.l $r1,$r29,252
     638:	e4 02 00 64 	640002e4 ldk.l $r0,740
     63c:	00 80 00 44 	44008000 add.l $r0,$r1,$r0
     640:	03 00 10 64 	64100003 ldk.l $r1,3
     644:	00 80 00 b4 	b4008000 sti.l $r0,0,$r1
     648:	fc 80 1e ac 	ac1e80fc ldi.l $r1,$r29,252
     64c:	ec 02 00 64 	640002ec ldk.l $r0,748
     650:	00 80 10 44 	44108000 add.l $r1,$r1,$r0
     654:	fc 80 2e ac 	ac2e80fc ldi.l $r2,$r29,252
     658:	e8 02 00 64 	640002e8 ldk.l $r0,744
     65c:	00 00 01 44 	44010000 add.l $r0,$r2,$r0
     660:	00 80 00 b4 	b4008000 sti.l $r0,0,$r1
     664:	fc 80 0e ac 	ac0e80fc ldi.l $r0,$r29,252
     668:	04 00 00 ac 	ac000004 ldi.l $r0,$r0,4
     66c:	bf 00 34 00 	003400bf call 2fc <stdin_init>
     670:	fc 80 0e ac 	ac0e80fc ldi.l $r0,$r29,252
     674:	08 00 00 ac 	ac000008 ldi.l $r0,$r0,8
     678:	c8 00 34 00 	003400c8 call 320 <stdout_init>
     67c:	fc 80 0e ac 	ac0e80fc ldi.l $r0,$r29,252
     680:	0c 00 00 ac 	ac00000c ldi.l $r0,$r0,12
     684:	d1 00 34 00 	003400d1 call 344 <stderr_init>
     688:	fc 80 0e ac 	ac0e80fc ldi.l $r0,$r29,252
     68c:	01 00 10 64 	64100001 ldk.l $r1,1
     690:	38 80 00 b4 	b4008038 sti.l $r0,56,$r1
     694:	b4 01 34 00 	003401b4 call 6d0 <__sinit_lock_release>
     698:	00 00 d0 99 	99d00000 unlink $r29
     69c:	00 00 00 a0 	a0000000 return 

000006a0 <__sfp_lock_acquire>:
     6a0:	00 00 d0 95 	95d00000 link $r29,0
     6a4:	00 40 00 40 	40004000 nop 
     6a8:	00 00 d0 99 	99d00000 unlink $r29
     6ac:	00 00 00 a0 	a0000000 return 

000006b0 <__sfp_lock_release>:
     6b0:	00 00 d0 95 	95d00000 link $r29,0
     6b4:	00 40 00 40 	40004000 nop 
     6b8:	00 00 d0 99 	99d00000 unlink $r29
     6bc:	00 00 00 a0 	a0000000 return 

000006c0 <__sinit_lock_acquire>:
     6c0:	00 00 d0 95 	95d00000 link $r29,0
     6c4:	00 40 00 40 	40004000 nop 
     6c8:	00 00 d0 99 	99d00000 unlink $r29
     6cc:	00 00 00 a0 	a0000000 return 

000006d0 <__sinit_lock_release>:
     6d0:	00 00 d0 95 	95d00000 link $r29,0
     6d4:	00 40 00 40 	40004000 nop 
     6d8:	00 00 d0 99 	99d00000 unlink $r29
     6dc:	00 00 00 a0 	a0000000 return 

000006e0 <__fp_lock>:
     6e0:	04 00 d0 95 	95d00004 link $r29,4
     6e4:	fc 00 d0 b5 	b5d000fc sti.l $r29,252,$r0
     6e8:	00 00 00 64 	64000000 ldk.l $r0,0
     6ec:	00 00 d0 99 	99d00000 unlink $r29
     6f0:	00 00 00 a0 	a0000000 return 

000006f4 <__fp_unlock>:
     6f4:	04 00 d0 95 	95d00004 link $r29,4
     6f8:	fc 00 d0 b5 	b5d000fc sti.l $r29,252,$r0
     6fc:	00 00 00 64 	64000000 ldk.l $r0,0
     700:	00 00 d0 99 	99d00000 unlink $r29
     704:	00 00 00 a0 	a0000000 return 

00000708 <__fp_lock_all>:
     708:	00 00 d0 95 	95d00000 link $r29,0
     70c:	a8 01 34 00 	003401a8 call 6a0 <__sfp_lock_acquire>
     710:	24 04 00 c4 	c4000424 lda.l $r0,800424 <_impure_ptr>
     714:	e0 06 10 64 	641006e0 ldk.l $r1,1760
     718:	7c 03 34 00 	0034037c call df0 <_fwalk>
     71c:	00 40 00 40 	40004000 nop 
     720:	00 00 d0 99 	99d00000 unlink $r29
     724:	00 00 00 a0 	a0000000 return 

00000728 <__fp_unlock_all>:
     728:	00 00 d0 95 	95d00000 link $r29,0
     72c:	24 04 00 c4 	c4000424 lda.l $r0,800424 <_impure_ptr>
     730:	f4 06 10 64 	641006f4 ldk.l $r1,1780
     734:	7c 03 34 00 	0034037c call df0 <_fwalk>
     738:	ac 01 34 00 	003401ac call 6b0 <__sfp_lock_release>
     73c:	00 40 00 40 	40004000 nop 
     740:	00 00 d0 99 	99d00000 unlink $r29
     744:	00 00 00 a0 	a0000000 return 

00000748 <__sfvwrite_r>:
     748:	00 80 06 84 	84068000 push.l $r13
     74c:	00 00 07 84 	84070000 push.l $r14
     750:	00 80 07 84 	84078000 push.l $r15
     754:	00 00 08 84 	84080000 push.l $r16
     758:	00 80 08 84 	84088000 push.l $r17
     75c:	00 00 09 84 	84090000 push.l $r18
     760:	00 80 09 84 	84098000 push.l $r19
     764:	1c 00 d0 95 	95d0001c link $r29,28
     768:	e4 00 d0 b5 	b5d000e4 sti.l $r29,228,$r0
     76c:	00 c0 d0 44 	44d0c000 move.l $r13,$r1
     770:	00 40 21 45 	45214000 move.l $r18,$r2
     774:	00 00 00 65 	65000000 ldk.l $r16,0
     778:	08 00 f9 ac 	acf90008 ldi.l $r15,$r18,8
     77c:	02 c0 e7 5d 	5de7c002 cmp.l $r15,0
     780:	e3 01 20 00 	002001e3 jmpc nz,78c <__sfvwrite_r+0x44>
     784:	00 00 00 64 	64000000 ldk.l $r0,0
     788:	73 03 30 00 	00300373 jmp dcc <__sfvwrite_r+0x684>
     78c:	0c 80 16 aa 	aa16800c ldi.s $r1,$r13,12
     790:	0c c0 00 44 	4400c00c bexts.l $r0,$r1,0
     794:	0d 40 00 44 	4400400d bextu.l $r0,$r0,0
     798:	84 40 00 44 	44004084 and.l $r0,$r0,8
     79c:	02 40 e0 5d 	5de04002 cmp.l $r0,0
     7a0:	ec 01 28 00 	002801ec jmpc z,7b0 <__sfvwrite_r+0x68>
     7a4:	10 80 06 ac 	ac068010 ldi.l $r0,$r13,16
     7a8:	02 40 e0 5d 	5de04002 cmp.l $r0,0
     7ac:	f3 01 20 00 	002001f3 jmpc nz,7cc <__sfvwrite_r+0x84>
     7b0:	00 c0 16 44 	4416c000 move.l $r1,$r13
     7b4:	e4 80 0e ac 	ac0e80e4 ldi.l $r0,$r29,228
     7b8:	d9 0b 34 00 	00340bd9 call 2f64 <__swsetup_r>
     7bc:	02 40 e0 5d 	5de04002 cmp.l $r0,0
     7c0:	f3 01 28 00 	002801f3 jmpc z,7cc <__sfvwrite_r+0x84>
     7c4:	ff ff 0f 64 	640fffff ldk.l $r0,-1
     7c8:	73 03 30 00 	00300373 jmp dcc <__sfvwrite_r+0x684>
     7cc:	00 00 19 ad 	ad190000 ldi.l $r17,$r18,0
     7d0:	00 00 f0 64 	64f00000 ldk.l $r15,0
     7d4:	0c 80 16 aa 	aa16800c ldi.s $r1,$r13,12
     7d8:	0c c0 00 44 	4400c00c bexts.l $r0,$r1,0
     7dc:	0d 40 00 44 	4400400d bextu.l $r0,$r0,0
     7e0:	24 40 00 44 	44004024 and.l $r0,$r0,2
     7e4:	02 40 e0 5d 	5de04002 cmp.l $r0,0
     7e8:	1e 02 28 00 	0028021e jmpc z,878 <__sfvwrite_r+0x130>
     7ec:	ff 01 30 00 	003001ff jmp 7fc <__sfvwrite_r+0xb4>
     7f0:	00 80 08 ad 	ad088000 ldi.l $r16,$r17,0
     7f4:	04 80 f8 ac 	acf88004 ldi.l $r15,$r17,4
     7f8:	80 c0 18 45 	4518c080 add.l $r17,$r17,8
     7fc:	02 c0 e7 5d 	5de7c002 cmp.l $r15,0
     800:	fc 01 28 00 	002801fc jmpc z,7f0 <__sfvwrite_r+0xa8>
     804:	24 80 46 ac 	ac468024 ldi.l $r4,$r13,36
     808:	1c 80 66 ac 	ac66801c ldi.l $r6,$r13,28
     80c:	00 c0 07 44 	4407c000 move.l $r0,$r15
     810:	00 f8 1f 64 	641ff800 ldk.l $r1,-2048
     814:	11 c0 10 44 	4410c011 ror.l $r1,$r1,1
     818:	12 00 e0 5d 	5de00012 cmp.l $r0,$r1
     81c:	0a 02 a0 01 	01a0020a jmpc be,828 <__sfvwrite_r+0xe0>
     820:	00 f8 0f 64 	640ff800 ldk.l $r0,-2048
     824:	11 40 00 44 	44004011 ror.l $r0,$r0,1
     828:	00 40 30 44 	44304000 move.l $r3,$r0
     82c:	00 40 28 44 	44284000 move.l $r2,$r16
     830:	00 40 13 44 	44134000 move.l $r1,$r6
     834:	e4 80 0e ac 	ac0e80e4 ldi.l $r0,$r29,228
     838:	40 00 34 08 	08340040 calli $r4
     83c:	00 40 e0 44 	44e04000 move.l $r14,$r0
     840:	02 40 e7 5d 	5de74002 cmp.l $r14,0
     844:	66 03 60 01 	01600366 jmpc lte,d98 <__sfvwrite_r+0x650>
     848:	00 40 07 44 	44074000 move.l $r0,$r14
     84c:	00 00 08 45 	45080000 add.l $r16,$r16,$r0
     850:	00 40 07 44 	44074000 move.l $r0,$r14
     854:	02 80 f7 44 	44f78002 sub.l $r15,$r15,$r0
     858:	08 00 09 ac 	ac090008 ldi.l $r0,$r18,8
     85c:	00 40 17 44 	44174000 move.l $r1,$r14
     860:	12 00 00 44 	44000012 sub.l $r0,$r0,$r1
     864:	08 00 20 b5 	b5200008 sti.l $r18,8,$r0
     868:	08 00 09 ac 	ac090008 ldi.l $r0,$r18,8
     86c:	02 40 e0 5d 	5de04002 cmp.l $r0,0
     870:	ff 01 20 00 	002001ff jmpc nz,7fc <__sfvwrite_r+0xb4>
     874:	64 03 30 00 	00300364 jmp d90 <__sfvwrite_r+0x648>
     878:	0c 80 16 aa 	aa16800c ldi.s $r1,$r13,12
     87c:	0c c0 00 44 	4400c00c bexts.l $r0,$r1,0
     880:	0d 40 00 44 	4400400d bextu.l $r0,$r0,0
     884:	14 40 00 44 	44004014 and.l $r0,$r0,1
     888:	02 40 e0 5d 	5de04002 cmp.l $r0,0
     88c:	f4 02 20 00 	002002f4 jmpc nz,bd0 <__sfvwrite_r+0x488>
     890:	28 02 30 00 	00300228 jmp 8a0 <__sfvwrite_r+0x158>
     894:	00 80 08 ad 	ad088000 ldi.l $r16,$r17,0
     898:	04 80 f8 ac 	acf88004 ldi.l $r15,$r17,4
     89c:	80 c0 18 45 	4518c080 add.l $r17,$r17,8
     8a0:	02 c0 e7 5d 	5de7c002 cmp.l $r15,0
     8a4:	25 02 28 00 	00280225 jmpc z,894 <__sfvwrite_r+0x14c>
     8a8:	08 80 e6 ac 	ace68008 ldi.l $r14,$r13,8
     8ac:	0c 80 16 aa 	aa16800c ldi.s $r1,$r13,12
     8b0:	0c c0 00 44 	4400c00c bexts.l $r0,$r1,0
     8b4:	0d 40 00 44 	4400400d bextu.l $r0,$r0,0
     8b8:	00 02 10 64 	64100200 ldk.l $r1,512
     8bc:	14 00 00 44 	44000014 and.l $r0,$r0,$r1
     8c0:	02 40 e0 5d 	5de04002 cmp.l $r0,0
     8c4:	ae 02 28 00 	002802ae jmpc z,ab8 <__sfvwrite_r+0x370>
     8c8:	00 40 07 44 	44074000 move.l $r0,$r14
     8cc:	02 80 e7 5d 	5de78002 cmp.l $r15,$r0
     8d0:	9c 02 68 00 	0068029c jmpc b,a70 <__sfvwrite_r+0x328>
     8d4:	0c 80 16 aa 	aa16800c ldi.s $r1,$r13,12
     8d8:	0c c0 00 44 	4400c00c bexts.l $r0,$r1,0
     8dc:	0d 40 00 44 	4400400d bextu.l $r0,$r0,0
     8e0:	80 04 10 64 	64100480 ldk.l $r1,1152
     8e4:	14 00 00 44 	44000014 and.l $r0,$r0,$r1
     8e8:	02 40 e0 5d 	5de04002 cmp.l $r0,0
     8ec:	9c 02 28 00 	0028029c jmpc z,a70 <__sfvwrite_r+0x328>
     8f0:	00 80 16 ac 	ac168000 ldi.l $r1,$r13,0
     8f4:	10 80 06 ac 	ac068010 ldi.l $r0,$r13,16
     8f8:	02 80 00 44 	44008002 sub.l $r0,$r1,$r0
     8fc:	e8 00 d0 b5 	b5d000e8 sti.l $r29,232,$r0
     900:	14 80 16 ac 	ac168014 ldi.l $r1,$r13,20
     904:	00 c0 00 44 	4400c000 move.l $r0,$r1
     908:	00 00 00 44 	44000000 add.l $r0,$r0,$r0
     90c:	10 00 00 44 	44000010 add.l $r0,$r0,$r1
     910:	f9 41 10 44 	441041f9 lshr.l $r1,$r0,31
     914:	00 80 00 44 	44008000 add.l $r0,$r1,$r0
     918:	1a 40 00 44 	4400401a ashr.l $r0,$r0,1
     91c:	f0 00 d0 b5 	b5d000f0 sti.l $r29,240,$r0
     920:	e8 80 0e ac 	ac0e80e8 ldi.l $r0,$r29,232
     924:	00 80 07 44 	44078000 add.l $r0,$r15,$r0
     928:	10 40 10 44 	44104010 add.l $r1,$r0,1
     92c:	f0 80 0e ac 	ac0e80f0 ldi.l $r0,$r29,240
     930:	02 80 e0 5d 	5de08002 cmp.l $r1,$r0
     934:	52 02 a0 01 	01a00252 jmpc be,948 <__sfvwrite_r+0x200>
     938:	e8 80 0e ac 	ac0e80e8 ldi.l $r0,$r29,232
     93c:	00 80 07 44 	44078000 add.l $r0,$r15,$r0
     940:	10 40 00 44 	44004010 add.l $r0,$r0,1
     944:	f0 00 d0 b5 	b5d000f0 sti.l $r29,240,$r0
     948:	0c 80 16 aa 	aa16800c ldi.s $r1,$r13,12
     94c:	0c c0 00 44 	4400c00c bexts.l $r0,$r1,0
     950:	0d 40 00 44 	4400400d bextu.l $r0,$r0,0
     954:	00 04 10 64 	64100400 ldk.l $r1,1024
     958:	14 00 00 44 	44000014 and.l $r0,$r0,$r1
     95c:	02 40 e0 5d 	5de04002 cmp.l $r0,0
     960:	76 02 28 00 	00280276 jmpc z,9d8 <__sfvwrite_r+0x290>
     964:	f0 80 0e ac 	ac0e80f0 ldi.l $r0,$r29,240
     968:	00 40 10 44 	44104000 move.l $r1,$r0
     96c:	e4 80 0e ac 	ac0e80e4 ldi.l $r0,$r29,228
     970:	c8 04 34 00 	003404c8 call 1320 <_malloc_r>
     974:	f4 00 d0 b5 	b5d000f4 sti.l $r29,244,$r0
     978:	f4 80 0e ac 	ac0e80f4 ldi.l $r0,$r29,244
     97c:	02 40 e0 5d 	5de04002 cmp.l $r0,0
     980:	65 02 20 00 	00200265 jmpc nz,994 <__sfvwrite_r+0x24c>
     984:	e4 80 0e ac 	ac0e80e4 ldi.l $r0,$r29,228
     988:	0c 00 10 64 	6410000c ldk.l $r1,12
     98c:	00 80 00 b4 	b4008000 sti.l $r0,0,$r1
     990:	6b 03 30 00 	0030036b jmp dac <__sfvwrite_r+0x664>
     994:	10 80 06 ac 	ac068010 ldi.l $r0,$r13,16
     998:	e8 80 1e ac 	ac1e80e8 ldi.l $r1,$r29,232
     99c:	00 c0 20 44 	4420c000 move.l $r2,$r1
     9a0:	00 40 10 44 	44104000 move.l $r1,$r0
     9a4:	f4 80 0e ac 	ac0e80f4 ldi.l $r0,$r29,244
     9a8:	ac 07 34 00 	003407ac call 1eb0 <memcpy>
     9ac:	0c 80 16 aa 	aa16800c ldi.s $r1,$r13,12
     9b0:	0c c0 00 44 	4400c00c bexts.l $r0,$r1,0
     9b4:	7f fb 1f 64 	641ffb7f ldk.l $r1,-1153
     9b8:	14 00 00 44 	44000014 and.l $r0,$r0,$r1
     9bc:	0c 40 00 44 	4400400c bexts.l $r0,$r0,0
     9c0:	7b 62 00 44 	4400627b bins.l $r0,$r0,-473
     9c4:	0c 40 00 44 	4400400c bexts.l $r0,$r0,0
     9c8:	00 40 10 42 	42104000 move.s $r1,$r0
     9cc:	c0 c0 06 44 	4406c0c0 add.l $r0,$r13,12
     9d0:	00 80 00 b2 	b2008000 sti.s $r0,0,$r1
     9d4:	8f 02 30 00 	0030028f jmp a3c <__sfvwrite_r+0x2f4>
     9d8:	10 80 06 ac 	ac068010 ldi.l $r0,$r13,16
     9dc:	f0 80 1e ac 	ac1e80f0 ldi.l $r1,$r29,240
     9e0:	00 c0 20 44 	4420c000 move.l $r2,$r1
     9e4:	00 40 10 44 	44104000 move.l $r1,$r0
     9e8:	e4 80 0e ac 	ac0e80e4 ldi.l $r0,$r29,228
     9ec:	28 08 34 00 	00340828 call 20a0 <_realloc_r>
     9f0:	f4 00 d0 b5 	b5d000f4 sti.l $r29,244,$r0
     9f4:	f4 80 0e ac 	ac0e80f4 ldi.l $r0,$r29,244
     9f8:	02 40 e0 5d 	5de04002 cmp.l $r0,0
     9fc:	8f 02 20 00 	0020028f jmpc nz,a3c <__sfvwrite_r+0x2f4>
     a00:	10 80 06 ac 	ac068010 ldi.l $r0,$r13,16
     a04:	00 40 10 44 	44104000 move.l $r1,$r0
     a08:	e4 80 0e ac 	ac0e80e4 ldi.l $r0,$r29,228
     a0c:	e0 0d 34 00 	00340de0 call 3780 <_free_r>
     a10:	0c 80 16 aa 	aa16800c ldi.s $r1,$r13,12
     a14:	0c c0 00 44 	4400c00c bexts.l $r0,$r1,0
     a18:	7b 42 00 44 	4400427b bins.l $r0,$r0,39
     a1c:	0c 40 00 44 	4400400c bexts.l $r0,$r0,0
     a20:	00 40 10 42 	42104000 move.s $r1,$r0
     a24:	c0 c0 06 44 	4406c0c0 add.l $r0,$r13,12
     a28:	00 80 00 b2 	b2008000 sti.s $r0,0,$r1
     a2c:	e4 80 0e ac 	ac0e80e4 ldi.l $r0,$r29,228
     a30:	0c 00 10 64 	6410000c ldk.l $r1,12
     a34:	00 80 00 b4 	b4008000 sti.l $r0,0,$r1
     a38:	6b 03 30 00 	0030036b jmp dac <__sfvwrite_r+0x664>
     a3c:	f4 80 0e ac 	ac0e80f4 ldi.l $r0,$r29,244
     a40:	10 00 d0 b4 	b4d00010 sti.l $r13,16,$r0
     a44:	e8 80 0e ac 	ac0e80e8 ldi.l $r0,$r29,232
     a48:	f4 80 1e ac 	ac1e80f4 ldi.l $r1,$r29,244
     a4c:	00 80 00 44 	44008000 add.l $r0,$r1,$r0
     a50:	00 00 d0 b4 	b4d00000 sti.l $r13,0,$r0
     a54:	f0 80 0e ac 	ac0e80f0 ldi.l $r0,$r29,240
     a58:	14 00 d0 b4 	b4d00014 sti.l $r13,20,$r0
     a5c:	00 c0 e7 44 	44e7c000 move.l $r14,$r15
     a60:	f0 80 1e ac 	ac1e80f0 ldi.l $r1,$r29,240
     a64:	e8 80 0e ac 	ac0e80e8 ldi.l $r0,$r29,232
     a68:	02 80 00 44 	44008002 sub.l $r0,$r1,$r0
     a6c:	08 00 d0 b4 	b4d00008 sti.l $r13,8,$r0
     a70:	00 40 07 44 	44074000 move.l $r0,$r14
     a74:	02 80 e7 5d 	5de78002 cmp.l $r15,$r0
     a78:	a0 02 60 00 	006002a0 jmpc ae,a80 <__sfvwrite_r+0x338>
     a7c:	00 c0 e7 44 	44e7c000 move.l $r14,$r15
     a80:	00 80 06 ac 	ac068000 ldi.l $r0,$r13,0
     a84:	00 40 17 44 	44174000 move.l $r1,$r14
     a88:	00 c0 20 44 	4420c000 move.l $r2,$r1
     a8c:	00 40 18 44 	44184000 move.l $r1,$r16
     a90:	c9 07 34 00 	003407c9 call 1f24 <memmove>
     a94:	08 80 06 ac 	ac068008 ldi.l $r0,$r13,8
     a98:	e2 00 00 44 	440000e2 sub.l $r0,$r0,$r14
     a9c:	08 00 d0 b4 	b4d00008 sti.l $r13,8,$r0
     aa0:	00 80 06 ac 	ac068000 ldi.l $r0,$r13,0
     aa4:	00 40 17 44 	44174000 move.l $r1,$r14
     aa8:	10 00 00 44 	44000010 add.l $r0,$r0,$r1
     aac:	00 00 d0 b4 	b4d00000 sti.l $r13,0,$r0
     ab0:	00 c0 e7 44 	44e7c000 move.l $r14,$r15
     ab4:	e8 02 30 00 	003002e8 jmp ba0 <__sfvwrite_r+0x458>
     ab8:	00 80 16 ac 	ac168000 ldi.l $r1,$r13,0
     abc:	10 80 06 ac 	ac068010 ldi.l $r0,$r13,16
     ac0:	02 80 e0 5d 	5de08002 cmp.l $r1,$r0
     ac4:	b5 02 a8 01 	01a802b5 jmpc a,ad4 <__sfvwrite_r+0x38c>
     ac8:	14 80 06 ac 	ac068014 ldi.l $r0,$r13,20
     acc:	02 80 e7 5d 	5de78002 cmp.l $r15,$r0
     ad0:	d0 02 60 00 	006002d0 jmpc ae,b40 <__sfvwrite_r+0x3f8>
     ad4:	00 40 17 44 	44174000 move.l $r1,$r14
     ad8:	00 c0 07 44 	4407c000 move.l $r0,$r15
     adc:	12 00 e0 5d 	5de00012 cmp.l $r0,$r1
     ae0:	ba 02 a0 01 	01a002ba jmpc be,ae8 <__sfvwrite_r+0x3a0>
     ae4:	00 c0 00 44 	4400c000 move.l $r0,$r1
     ae8:	00 40 e0 44 	44e04000 move.l $r14,$r0
     aec:	00 80 06 ac 	ac068000 ldi.l $r0,$r13,0
     af0:	00 40 17 44 	44174000 move.l $r1,$r14
     af4:	00 c0 20 44 	4420c000 move.l $r2,$r1
     af8:	00 40 18 44 	44184000 move.l $r1,$r16
     afc:	c9 07 34 00 	003407c9 call 1f24 <memmove>
     b00:	08 80 06 ac 	ac068008 ldi.l $r0,$r13,8
     b04:	e2 00 00 44 	440000e2 sub.l $r0,$r0,$r14
     b08:	08 00 d0 b4 	b4d00008 sti.l $r13,8,$r0
     b0c:	00 80 06 ac 	ac068000 ldi.l $r0,$r13,0
     b10:	00 40 17 44 	44174000 move.l $r1,$r14
     b14:	10 00 00 44 	44000010 add.l $r0,$r0,$r1
     b18:	00 00 d0 b4 	b4d00000 sti.l $r13,0,$r0
     b1c:	08 80 06 ac 	ac068008 ldi.l $r0,$r13,8
     b20:	02 40 e0 5d 	5de04002 cmp.l $r0,0
     b24:	e7 02 20 00 	002002e7 jmpc nz,b9c <__sfvwrite_r+0x454>
     b28:	00 c0 16 44 	4416c000 move.l $r1,$r13
     b2c:	e4 80 0e ac 	ac0e80e4 ldi.l $r0,$r29,228
     b30:	b6 0d 34 00 	00340db6 call 36d8 <_fflush_r>
     b34:	02 40 e0 5d 	5de04002 cmp.l $r0,0
     b38:	e7 02 28 00 	002802e7 jmpc z,b9c <__sfvwrite_r+0x454>
     b3c:	6b 03 30 00 	0030036b jmp dac <__sfvwrite_r+0x664>
     b40:	fc ff 0f 64 	640ffffc ldk.l $r0,-4
     b44:	11 40 00 44 	44004011 ror.l $r0,$r0,1
     b48:	02 80 e7 5d 	5de78002 cmp.l $r15,$r0
     b4c:	d6 02 a8 01 	01a802d6 jmpc a,b58 <__sfvwrite_r+0x410>
     b50:	00 c0 07 44 	4407c000 move.l $r0,$r15
     b54:	d8 02 30 00 	003002d8 jmp b60 <__sfvwrite_r+0x418>
     b58:	fe ff 0f 64 	640ffffe ldk.l $r0,-2
     b5c:	11 40 00 44 	44004011 ror.l $r0,$r0,1
     b60:	14 80 16 ac 	ac168014 ldi.l $r1,$r13,20
     b64:	12 00 10 f4 	f4100012 div.l $r1,$r0,$r1
     b68:	14 80 06 ac 	ac068014 ldi.l $r0,$r13,20
     b6c:	08 80 e0 f4 	f4e08008 mul.l $r14,$r1,$r0
     b70:	24 80 46 ac 	ac468024 ldi.l $r4,$r13,36
     b74:	1c 80 06 ac 	ac06801c ldi.l $r0,$r13,28
     b78:	00 40 37 44 	44374000 move.l $r3,$r14
     b7c:	00 40 28 44 	44284000 move.l $r2,$r16
     b80:	00 40 10 44 	44104000 move.l $r1,$r0
     b84:	e4 80 0e ac 	ac0e80e4 ldi.l $r0,$r29,228
     b88:	40 00 34 08 	08340040 calli $r4
     b8c:	00 40 e0 44 	44e04000 move.l $r14,$r0
     b90:	02 40 e7 5d 	5de74002 cmp.l $r14,0
     b94:	68 03 60 01 	01600368 jmpc lte,da0 <__sfvwrite_r+0x658>
     b98:	e8 02 30 00 	003002e8 jmp ba0 <__sfvwrite_r+0x458>
     b9c:	00 40 00 40 	40004000 nop 
     ba0:	00 40 07 44 	44074000 move.l $r0,$r14
     ba4:	00 00 08 45 	45080000 add.l $r16,$r16,$r0
     ba8:	00 40 07 44 	44074000 move.l $r0,$r14
     bac:	02 80 f7 44 	44f78002 sub.l $r15,$r15,$r0
     bb0:	08 00 09 ac 	ac090008 ldi.l $r0,$r18,8
     bb4:	00 40 17 44 	44174000 move.l $r1,$r14
     bb8:	12 00 00 44 	44000012 sub.l $r0,$r0,$r1
     bbc:	08 00 20 b5 	b5200008 sti.l $r18,8,$r0
     bc0:	08 00 09 ac 	ac090008 ldi.l $r0,$r18,8
     bc4:	02 40 e0 5d 	5de04002 cmp.l $r0,0
     bc8:	28 02 20 00 	00200228 jmpc nz,8a0 <__sfvwrite_r+0x158>
     bcc:	64 03 30 00 	00300364 jmp d90 <__sfvwrite_r+0x648>
     bd0:	00 00 00 64 	64000000 ldk.l $r0,0
     bd4:	fc 00 d0 b5 	b5d000fc sti.l $r29,252,$r0
     bd8:	00 00 00 64 	64000000 ldk.l $r0,0
     bdc:	f8 00 d0 b5 	b5d000f8 sti.l $r29,248,$r0
     be0:	fe 02 30 00 	003002fe jmp bf8 <__sfvwrite_r+0x4b0>
     be4:	00 00 00 64 	64000000 ldk.l $r0,0
     be8:	fc 00 d0 b5 	b5d000fc sti.l $r29,252,$r0
     bec:	00 80 08 ad 	ad088000 ldi.l $r16,$r17,0
     bf0:	04 80 f8 ac 	acf88004 ldi.l $r15,$r17,4
     bf4:	80 c0 18 45 	4518c080 add.l $r17,$r17,8
     bf8:	02 c0 e7 5d 	5de7c002 cmp.l $r15,0
     bfc:	f9 02 28 00 	002802f9 jmpc z,be4 <__sfvwrite_r+0x49c>
     c00:	fc 80 0e ac 	ac0e80fc ldi.l $r0,$r29,252
     c04:	02 40 e0 5d 	5de04002 cmp.l $r0,0
     c08:	13 03 20 00 	00200313 jmpc nz,c4c <__sfvwrite_r+0x504>
     c0c:	00 c0 27 44 	4427c000 move.l $r2,$r15
     c10:	0a 00 10 64 	6410000a ldk.l $r1,10
     c14:	00 40 08 44 	44084000 move.l $r0,$r16
     c18:	8e 07 34 00 	0034078e call 1e38 <memchr>
     c1c:	ec 00 d0 b5 	b5d000ec sti.l $r29,236,$r0
     c20:	ec 80 0e ac 	ac0e80ec ldi.l $r0,$r29,236
     c24:	02 40 e0 5d 	5de04002 cmp.l $r0,0
     c28:	0f 03 28 00 	0028030f jmpc z,c3c <__sfvwrite_r+0x4f4>
     c2c:	ec 80 0e ac 	ac0e80ec ldi.l $r0,$r29,236
     c30:	10 40 00 44 	44004010 add.l $r0,$r0,1
     c34:	02 01 00 44 	44000102 sub.l $r0,$r0,$r16
     c38:	10 03 30 00 	00300310 jmp c40 <__sfvwrite_r+0x4f8>
     c3c:	10 c0 07 44 	4407c010 add.l $r0,$r15,1
     c40:	f8 00 d0 b5 	b5d000f8 sti.l $r29,248,$r0
     c44:	01 00 00 64 	64000001 ldk.l $r0,1
     c48:	fc 00 d0 b5 	b5d000fc sti.l $r29,252,$r0
     c4c:	f8 80 1e ac 	ac1e80f8 ldi.l $r1,$r29,248
     c50:	00 c0 07 44 	4407c000 move.l $r0,$r15
     c54:	12 00 e0 5d 	5de00012 cmp.l $r0,$r1
     c58:	18 03 a0 01 	01a00318 jmpc be,c60 <__sfvwrite_r+0x518>
     c5c:	00 c0 00 44 	4400c000 move.l $r0,$r1
     c60:	00 40 30 45 	45304000 move.l $r19,$r0
     c64:	08 80 16 ac 	ac168008 ldi.l $r1,$r13,8
     c68:	14 80 06 ac 	ac068014 ldi.l $r0,$r13,20
     c6c:	00 80 e0 44 	44e08000 add.l $r14,$r1,$r0
     c70:	00 80 16 ac 	ac168000 ldi.l $r1,$r13,0
     c74:	10 80 06 ac 	ac068010 ldi.l $r0,$r13,16
     c78:	02 80 e0 5d 	5de08002 cmp.l $r1,$r0
     c7c:	31 03 a0 01 	01a00331 jmpc be,cc4 <__sfvwrite_r+0x57c>
     c80:	e2 80 e9 5d 	5de980e2 cmp.l $r19,$r14
     c84:	31 03 60 01 	01600331 jmpc lte,cc4 <__sfvwrite_r+0x57c>
     c88:	00 80 06 ac 	ac068000 ldi.l $r0,$r13,0
     c8c:	00 40 17 44 	44174000 move.l $r1,$r14
     c90:	00 c0 20 44 	4420c000 move.l $r2,$r1
     c94:	00 40 18 44 	44184000 move.l $r1,$r16
     c98:	c9 07 34 00 	003407c9 call 1f24 <memmove>
     c9c:	00 80 06 ac 	ac068000 ldi.l $r0,$r13,0
     ca0:	00 40 17 44 	44174000 move.l $r1,$r14
     ca4:	10 00 00 44 	44000010 add.l $r0,$r0,$r1
     ca8:	00 00 d0 b4 	b4d00000 sti.l $r13,0,$r0
     cac:	00 c0 16 44 	4416c000 move.l $r1,$r13
     cb0:	e4 80 0e ac 	ac0e80e4 ldi.l $r0,$r29,228
     cb4:	b6 0d 34 00 	00340db6 call 36d8 <_fflush_r>
     cb8:	02 40 e0 5d 	5de04002 cmp.l $r0,0
     cbc:	4c 03 28 00 	0028034c jmpc z,d30 <__sfvwrite_r+0x5e8>
     cc0:	6b 03 30 00 	0030036b jmp dac <__sfvwrite_r+0x664>
     cc4:	14 80 e6 ac 	ace68014 ldi.l $r14,$r13,20
     cc8:	32 01 e7 5d 	5de70132 cmp.l $r14,$r19
     ccc:	3f 03 68 01 	0168033f jmpc gt,cfc <__sfvwrite_r+0x5b4>
     cd0:	24 80 46 ac 	ac468024 ldi.l $r4,$r13,36
     cd4:	1c 80 06 ac 	ac06801c ldi.l $r0,$r13,28
     cd8:	00 40 37 44 	44374000 move.l $r3,$r14
     cdc:	00 40 28 44 	44284000 move.l $r2,$r16
     ce0:	00 40 10 44 	44104000 move.l $r1,$r0
     ce4:	e4 80 0e ac 	ac0e80e4 ldi.l $r0,$r29,228
     ce8:	40 00 34 08 	08340040 calli $r4
     cec:	00 40 e0 44 	44e04000 move.l $r14,$r0
     cf0:	02 40 e7 5d 	5de74002 cmp.l $r14,0
     cf4:	4c 03 68 01 	0168034c jmpc gt,d30 <__sfvwrite_r+0x5e8>
     cf8:	6b 03 30 00 	0030036b jmp dac <__sfvwrite_r+0x664>
     cfc:	00 c0 e9 44 	44e9c000 move.l $r14,$r19
     d00:	00 80 06 ac 	ac068000 ldi.l $r0,$r13,0
     d04:	00 40 17 44 	44174000 move.l $r1,$r14
     d08:	00 c0 20 44 	4420c000 move.l $r2,$r1
     d0c:	00 40 18 44 	44184000 move.l $r1,$r16
     d10:	c9 07 34 00 	003407c9 call 1f24 <memmove>
     d14:	08 80 06 ac 	ac068008 ldi.l $r0,$r13,8
     d18:	e2 00 00 44 	440000e2 sub.l $r0,$r0,$r14
     d1c:	08 00 d0 b4 	b4d00008 sti.l $r13,8,$r0
     d20:	00 80 06 ac 	ac068000 ldi.l $r0,$r13,0
     d24:	00 40 17 44 	44174000 move.l $r1,$r14
     d28:	10 00 00 44 	44000010 add.l $r0,$r0,$r1
     d2c:	00 00 d0 b4 	b4d00000 sti.l $r13,0,$r0
     d30:	f8 80 0e ac 	ac0e80f8 ldi.l $r0,$r29,248
     d34:	e2 00 00 44 	440000e2 sub.l $r0,$r0,$r14
     d38:	f8 00 d0 b5 	b5d000f8 sti.l $r29,248,$r0
     d3c:	f8 80 0e ac 	ac0e80f8 ldi.l $r0,$r29,248
     d40:	02 40 e0 5d 	5de04002 cmp.l $r0,0
     d44:	59 03 20 00 	00200359 jmpc nz,d64 <__sfvwrite_r+0x61c>
     d48:	00 c0 16 44 	4416c000 move.l $r1,$r13
     d4c:	e4 80 0e ac 	ac0e80e4 ldi.l $r0,$r29,228
     d50:	b6 0d 34 00 	00340db6 call 36d8 <_fflush_r>
     d54:	02 40 e0 5d 	5de04002 cmp.l $r0,0
     d58:	6a 03 20 00 	0020036a jmpc nz,da8 <__sfvwrite_r+0x660>
     d5c:	00 00 00 64 	64000000 ldk.l $r0,0
     d60:	fc 00 d0 b5 	b5d000fc sti.l $r29,252,$r0
     d64:	00 40 07 44 	44074000 move.l $r0,$r14
     d68:	00 00 08 45 	45080000 add.l $r16,$r16,$r0
     d6c:	00 40 07 44 	44074000 move.l $r0,$r14
     d70:	02 80 f7 44 	44f78002 sub.l $r15,$r15,$r0
     d74:	08 00 09 ac 	ac090008 ldi.l $r0,$r18,8
     d78:	00 40 17 44 	44174000 move.l $r1,$r14
     d7c:	12 00 00 44 	44000012 sub.l $r0,$r0,$r1
     d80:	08 00 20 b5 	b5200008 sti.l $r18,8,$r0
     d84:	08 00 09 ac 	ac090008 ldi.l $r0,$r18,8
     d88:	02 40 e0 5d 	5de04002 cmp.l $r0,0
     d8c:	fe 02 20 00 	002002fe jmpc nz,bf8 <__sfvwrite_r+0x4b0>
     d90:	00 00 00 64 	64000000 ldk.l $r0,0
     d94:	73 03 30 00 	00300373 jmp dcc <__sfvwrite_r+0x684>
     d98:	00 40 00 40 	40004000 nop 
     d9c:	6b 03 30 00 	0030036b jmp dac <__sfvwrite_r+0x664>
     da0:	00 40 00 40 	40004000 nop 
     da4:	6b 03 30 00 	0030036b jmp dac <__sfvwrite_r+0x664>
     da8:	00 40 00 40 	40004000 nop 
     dac:	0c 80 16 aa 	aa16800c ldi.s $r1,$r13,12
     db0:	0c c0 00 44 	4400c00c bexts.l $r0,$r1,0
     db4:	6b 62 00 44 	4400626b bins.l $r0,$r0,-474
     db8:	0c 40 00 44 	4400400c bexts.l $r0,$r0,0
     dbc:	00 40 10 42 	42104000 move.s $r1,$r0
     dc0:	c0 c0 06 44 	4406c0c0 add.l $r0,$r13,12
     dc4:	00 80 00 b2 	b2008000 sti.s $r0,0,$r1
     dc8:	ff ff 0f 64 	640fffff ldk.l $r0,-1
     dcc:	00 00 d0 99 	99d00000 unlink $r29
     dd0:	00 00 30 8d 	8d300000 pop.l $r19
     dd4:	00 00 20 8d 	8d200000 pop.l $r18
     dd8:	00 00 10 8d 	8d100000 pop.l $r17
     ddc:	00 00 00 8d 	8d000000 pop.l $r16
     de0:	00 00 f0 8c 	8cf00000 pop.l $r15
     de4:	00 00 e0 8c 	8ce00000 pop.l $r14
     de8:	00 00 d0 8c 	8cd00000 pop.l $r13
     dec:	00 00 00 a0 	a0000000 return 

00000df0 <_fwalk>:
     df0:	00 80 06 84 	84068000 push.l $r13
     df4:	00 00 07 84 	84070000 push.l $r14
     df8:	00 80 07 84 	84078000 push.l $r15
     dfc:	00 00 08 84 	84080000 push.l $r16
     e00:	00 80 08 84 	84088000 push.l $r17
     e04:	04 00 d0 95 	95d00004 link $r29,4
     e08:	fc 00 d0 b5 	b5d000fc sti.l $r29,252,$r0
     e0c:	00 c0 10 45 	4510c000 move.l $r17,$r1
     e10:	00 00 00 65 	65000000 ldk.l $r16,0
     e14:	fc 80 1e ac 	ac1e80fc ldi.l $r1,$r29,252
     e18:	e0 02 00 64 	640002e0 ldk.l $r0,736
     e1c:	00 80 e0 44 	44e08000 add.l $r14,$r1,$r0
     e20:	a0 03 30 00 	003003a0 jmp e80 <_fwalk+0x90>
     e24:	08 00 d7 ac 	acd70008 ldi.l $r13,$r14,8
     e28:	04 00 f7 ac 	acf70004 ldi.l $r15,$r14,4
     e2c:	9c 03 30 00 	0030039c jmp e70 <_fwalk+0x80>
     e30:	0c 80 16 aa 	aa16800c ldi.s $r1,$r13,12
     e34:	0c c0 00 44 	4400c00c bexts.l $r0,$r1,0
     e38:	02 40 e0 5d 	5de04002 cmp.l $r0,0
     e3c:	9b 03 28 00 	0028039b jmpc z,e6c <_fwalk+0x7c>
     e40:	0c 80 16 aa 	aa16800c ldi.s $r1,$r13,12
     e44:	0c c0 00 44 	4400c00c bexts.l $r0,$r1,0
     e48:	12 40 e0 5d 	5de04012 cmp.l $r0,1
     e4c:	9b 03 28 00 	0028039b jmpc z,e6c <_fwalk+0x7c>
     e50:	0e 80 16 aa 	aa16800e ldi.s $r1,$r13,14
     e54:	0c c0 00 44 	4400c00c bexts.l $r0,$r1,0
     e58:	f2 7f e0 5d 	5de07ff2 cmp.l $r0,-1
     e5c:	9b 03 28 00 	0028039b jmpc z,e6c <_fwalk+0x7c>
     e60:	00 c0 06 44 	4406c000 move.l $r0,$r13
     e64:	10 01 34 08 	08340110 calli $r17
     e68:	05 00 08 45 	45080005 or.l $r16,$r16,$r0
     e6c:	80 c6 d6 44 	44d6c680 add.l $r13,$r13,104
     e70:	f0 ff f7 44 	44f7fff0 add.l $r15,$r15,-1
     e74:	02 c0 e7 5d 	5de7c002 cmp.l $r15,0
     e78:	8c 03 28 01 	0128038c jmpc gte,e30 <_fwalk+0x40>
     e7c:	00 00 e7 ac 	ace70000 ldi.l $r14,$r14,0
     e80:	02 40 e7 5d 	5de74002 cmp.l $r14,0
     e84:	89 03 20 00 	00200389 jmpc nz,e24 <_fwalk+0x34>
     e88:	00 40 08 44 	44084000 move.l $r0,$r16
     e8c:	00 00 d0 99 	99d00000 unlink $r29
     e90:	00 00 10 8d 	8d100000 pop.l $r17
     e94:	00 00 00 8d 	8d000000 pop.l $r16
     e98:	00 00 f0 8c 	8cf00000 pop.l $r15
     e9c:	00 00 e0 8c 	8ce00000 pop.l $r14
     ea0:	00 00 d0 8c 	8cd00000 pop.l $r13
     ea4:	00 00 00 a0 	a0000000 return 

00000ea8 <_fwalk_reent>:
     ea8:	00 80 06 84 	84068000 push.l $r13
     eac:	00 00 07 84 	84070000 push.l $r14
     eb0:	00 80 07 84 	84078000 push.l $r15
     eb4:	00 00 08 84 	84080000 push.l $r16
     eb8:	00 80 08 84 	84088000 push.l $r17
     ebc:	04 00 d0 95 	95d00004 link $r29,4
     ec0:	fc 00 d0 b5 	b5d000fc sti.l $r29,252,$r0
     ec4:	00 c0 10 45 	4510c000 move.l $r17,$r1
     ec8:	00 00 00 65 	65000000 ldk.l $r16,0
     ecc:	fc 80 1e ac 	ac1e80fc ldi.l $r1,$r29,252
     ed0:	e0 02 00 64 	640002e0 ldk.l $r0,736
     ed4:	00 80 e0 44 	44e08000 add.l $r14,$r1,$r0
     ed8:	cf 03 30 00 	003003cf jmp f3c <_fwalk_reent+0x94>
     edc:	08 00 d7 ac 	acd70008 ldi.l $r13,$r14,8
     ee0:	04 00 f7 ac 	acf70004 ldi.l $r15,$r14,4
     ee4:	cb 03 30 00 	003003cb jmp f2c <_fwalk_reent+0x84>
     ee8:	0c 80 16 aa 	aa16800c ldi.s $r1,$r13,12
     eec:	0c c0 00 44 	4400c00c bexts.l $r0,$r1,0
     ef0:	02 40 e0 5d 	5de04002 cmp.l $r0,0
     ef4:	ca 03 28 00 	002803ca jmpc z,f28 <_fwalk_reent+0x80>
     ef8:	0c 80 16 aa 	aa16800c ldi.s $r1,$r13,12
     efc:	0c c0 00 44 	4400c00c bexts.l $r0,$r1,0
     f00:	12 40 e0 5d 	5de04012 cmp.l $r0,1
     f04:	ca 03 28 00 	002803ca jmpc z,f28 <_fwalk_reent+0x80>
     f08:	0e 80 16 aa 	aa16800e ldi.s $r1,$r13,14
     f0c:	0c c0 00 44 	4400c00c bexts.l $r0,$r1,0
     f10:	f2 7f e0 5d 	5de07ff2 cmp.l $r0,-1
     f14:	ca 03 28 00 	002803ca jmpc z,f28 <_fwalk_reent+0x80>
     f18:	00 c0 16 44 	4416c000 move.l $r1,$r13
     f1c:	fc 80 0e ac 	ac0e80fc ldi.l $r0,$r29,252
     f20:	10 01 34 08 	08340110 calli $r17
     f24:	05 00 08 45 	45080005 or.l $r16,$r16,$r0
     f28:	80 c6 d6 44 	44d6c680 add.l $r13,$r13,104
     f2c:	f0 ff f7 44 	44f7fff0 add.l $r15,$r15,-1
     f30:	02 c0 e7 5d 	5de7c002 cmp.l $r15,0
     f34:	ba 03 28 01 	012803ba jmpc gte,ee8 <_fwalk_reent+0x40>
     f38:	00 00 e7 ac 	ace70000 ldi.l $r14,$r14,0
     f3c:	02 40 e7 5d 	5de74002 cmp.l $r14,0
     f40:	b7 03 20 00 	002003b7 jmpc nz,edc <_fwalk_reent+0x34>
     f44:	00 40 08 44 	44084000 move.l $r0,$r16
     f48:	00 00 d0 99 	99d00000 unlink $r29
     f4c:	00 00 10 8d 	8d100000 pop.l $r17
     f50:	00 00 00 8d 	8d000000 pop.l $r16
     f54:	00 00 f0 8c 	8cf00000 pop.l $r15
     f58:	00 00 e0 8c 	8ce00000 pop.l $r14
     f5c:	00 00 d0 8c 	8cd00000 pop.l $r13
     f60:	00 00 00 a0 	a0000000 return 

00000f64 <malloc_extend_top>:
     f64:	34 00 d0 95 	95d00034 link $r29,52
     f68:	d0 00 d0 b5 	b5d000d0 sti.l $r29,208,$r0
     f6c:	cc 80 d0 b5 	b5d080cc sti.l $r29,204,$r1
     f70:	00 00 00 64 	64000000 ldk.l $r0,0
     f74:	ec 00 d0 b5 	b5d000ec sti.l $r29,236,$r0
     f78:	28 04 00 64 	64000428 ldk.l $r0,1064
     f7c:	08 00 00 ac 	ac000008 ldi.l $r0,$r0,8
     f80:	e8 00 d0 b5 	b5d000e8 sti.l $r29,232,$r0
     f84:	e8 80 0e ac 	ac0e80e8 ldi.l $r0,$r29,232
     f88:	04 00 00 ac 	ac000004 ldi.l $r0,$r0,4
     f8c:	0b 44 00 44 	4400440b bins.l $r0,$r0,64
     f90:	e4 00 d0 b5 	b5d000e4 sti.l $r29,228,$r0
     f94:	e8 80 1e ac 	ac1e80e8 ldi.l $r1,$r29,232
     f98:	e4 80 0e ac 	ac0e80e4 ldi.l $r0,$r29,228
     f9c:	00 80 00 44 	44008000 add.l $r0,$r1,$r0
     fa0:	e0 00 d0 b5 	b5d000e0 sti.l $r29,224,$r0
     fa4:	58 08 10 c4 	c4100858 lda.l $r1,800858 <__malloc_top_pad>
     fa8:	cc 80 0e ac 	ac0e80cc ldi.l $r0,$r29,204
     fac:	00 80 00 44 	44008000 add.l $r0,$r1,$r0
     fb0:	00 41 00 44 	44004100 add.l $r0,$r0,16
     fb4:	f0 00 d0 b5 	b5d000f0 sti.l $r29,240,$r0
     fb8:	00 10 00 64 	64001000 ldk.l $r0,4096
     fbc:	dc 00 d0 b5 	b5d000dc sti.l $r29,220,$r0
     fc0:	34 08 00 c4 	c4000834 lda.l $r0,800834 <__malloc_sbrk_base>
     fc4:	f2 7f e0 5d 	5de07ff2 cmp.l $r0,-1
     fc8:	fc 03 28 00 	002803fc jmpc z,ff0 <malloc_extend_top+0x8c>
     fcc:	dc 80 1e ac 	ac1e80dc ldi.l $r1,$r29,220
     fd0:	f0 80 0e ac 	ac0e80f0 ldi.l $r0,$r29,240
     fd4:	00 80 00 44 	44008000 add.l $r0,$r1,$r0
     fd8:	f0 7f 10 44 	44107ff0 add.l $r1,$r0,-1
     fdc:	00 00 20 64 	64200000 ldk.l $r2,0
     fe0:	dc 80 0e ac 	ac0e80dc ldi.l $r0,$r29,220
     fe4:	02 00 01 44 	44010002 sub.l $r0,$r2,$r0
     fe8:	04 80 00 44 	44008004 and.l $r0,$r1,$r0
     fec:	f0 00 d0 b5 	b5d000f0 sti.l $r29,240,$r0
     ff0:	f0 80 0e ac 	ac0e80f0 ldi.l $r0,$r29,240
     ff4:	00 40 10 44 	44104000 move.l $r1,$r0
     ff8:	d0 80 0e ac 	ac0e80d0 ldi.l $r0,$r29,208
     ffc:	26 0b 34 00 	00340b26 call 2c98 <_sbrk_r>
    1000:	fc 00 d0 b5 	b5d000fc sti.l $r29,252,$r0
    1004:	fc 80 0e ac 	ac0e80fc ldi.l $r0,$r29,252
    1008:	f2 7f e0 5d 	5de07ff2 cmp.l $r0,-1
    100c:	c5 04 28 00 	002804c5 jmpc z,1314 <malloc_extend_top+0x3b0>
    1010:	fc 80 1e ac 	ac1e80fc ldi.l $r1,$r29,252
    1014:	e0 80 0e ac 	ac0e80e0 ldi.l $r0,$r29,224
    1018:	02 80 e0 5d 	5de08002 cmp.l $r1,$r0
    101c:	0c 04 60 00 	0060040c jmpc ae,1030 <malloc_extend_top+0xcc>
    1020:	28 04 00 64 	64000428 ldk.l $r0,1064
    1024:	e8 80 1e ac 	ac1e80e8 ldi.l $r1,$r29,232
    1028:	02 80 e0 5d 	5de08002 cmp.l $r1,$r0
    102c:	c5 04 20 00 	002004c5 jmpc nz,1314 <malloc_extend_top+0x3b0>
    1030:	64 08 00 64 	64000864 ldk.l $r0,2148
    1034:	00 00 00 ac 	ac000000 ldi.l $r0,$r0,0
    1038:	00 40 10 44 	44104000 move.l $r1,$r0
    103c:	f0 80 0e ac 	ac0e80f0 ldi.l $r0,$r29,240
    1040:	00 80 00 44 	44008000 add.l $r0,$r1,$r0
    1044:	00 40 10 44 	44104000 move.l $r1,$r0
    1048:	64 08 00 64 	64000864 ldk.l $r0,2148
    104c:	00 80 00 b4 	b4008000 sti.l $r0,0,$r1
    1050:	fc 80 1e ac 	ac1e80fc ldi.l $r1,$r29,252
    1054:	e0 80 0e ac 	ac0e80e0 ldi.l $r0,$r29,224
    1058:	02 80 e0 5d 	5de08002 cmp.l $r1,$r0
    105c:	28 04 20 00 	00200428 jmpc nz,10a0 <malloc_extend_top+0x13c>
    1060:	dc 80 0e ac 	ac0e80dc ldi.l $r0,$r29,220
    1064:	f0 7f 10 44 	44107ff0 add.l $r1,$r0,-1
    1068:	e0 80 0e ac 	ac0e80e0 ldi.l $r0,$r29,224
    106c:	04 80 00 44 	44008004 and.l $r0,$r1,$r0
    1070:	02 40 e0 5d 	5de04002 cmp.l $r0,0
    1074:	28 04 20 00 	00200428 jmpc nz,10a0 <malloc_extend_top+0x13c>
    1078:	f0 80 1e ac 	ac1e80f0 ldi.l $r1,$r29,240
    107c:	e4 80 0e ac 	ac0e80e4 ldi.l $r0,$r29,228
    1080:	00 80 00 44 	44008000 add.l $r0,$r1,$r0
    1084:	d8 00 d0 b5 	b5d000d8 sti.l $r29,216,$r0
    1088:	28 04 00 64 	64000428 ldk.l $r0,1064
    108c:	08 00 00 ac 	ac000008 ldi.l $r0,$r0,8
    1090:	d8 80 1e ac 	ac1e80d8 ldi.l $r1,$r29,216
    1094:	0b e2 10 44 	4410e20b bins.l $r1,$r1,-480
    1098:	04 80 00 b4 	b4008004 sti.l $r0,4,$r1
    109c:	b2 04 30 00 	003004b2 jmp 12c8 <malloc_extend_top+0x364>
    10a0:	34 08 00 c4 	c4000834 lda.l $r0,800834 <__malloc_sbrk_base>
    10a4:	f2 7f e0 5d 	5de07ff2 cmp.l $r0,-1
    10a8:	2e 04 20 00 	0020042e jmpc nz,10b8 <malloc_extend_top+0x154>
    10ac:	fc 80 0e ac 	ac0e80fc ldi.l $r0,$r29,252
    10b0:	34 08 00 bc 	bc000834 sta.l 800834 <__malloc_sbrk_base>,$r0
    10b4:	36 04 30 00 	00300436 jmp 10d8 <malloc_extend_top+0x174>
    10b8:	64 08 00 64 	64000864 ldk.l $r0,2148
    10bc:	00 00 10 ac 	ac100000 ldi.l $r1,$r0,0
    10c0:	fc 80 2e ac 	ac2e80fc ldi.l $r2,$r29,252
    10c4:	e0 80 0e ac 	ac0e80e0 ldi.l $r0,$r29,224
    10c8:	02 00 01 44 	44010002 sub.l $r0,$r2,$r0
    10cc:	00 80 10 44 	44108000 add.l $r1,$r1,$r0
    10d0:	64 08 00 64 	64000864 ldk.l $r0,2148
    10d4:	00 80 00 b4 	b4008000 sti.l $r0,0,$r1
    10d8:	fc 80 0e ac 	ac0e80fc ldi.l $r0,$r29,252
    10dc:	80 40 00 44 	44004080 add.l $r0,$r0,8
    10e0:	74 40 00 44 	44004074 and.l $r0,$r0,7
    10e4:	d4 00 d0 b5 	b5d000d4 sti.l $r29,212,$r0
    10e8:	d4 80 0e ac 	ac0e80d4 ldi.l $r0,$r29,212
    10ec:	02 40 e0 5d 	5de04002 cmp.l $r0,0
    10f0:	46 04 28 00 	00280446 jmpc z,1118 <malloc_extend_top+0x1b4>
    10f4:	08 00 10 64 	64100008 ldk.l $r1,8
    10f8:	d4 80 0e ac 	ac0e80d4 ldi.l $r0,$r29,212
    10fc:	02 80 00 44 	44008002 sub.l $r0,$r1,$r0
    1100:	f8 00 d0 b5 	b5d000f8 sti.l $r29,248,$r0
    1104:	fc 80 1e ac 	ac1e80fc ldi.l $r1,$r29,252
    1108:	f8 80 0e ac 	ac0e80f8 ldi.l $r0,$r29,248
    110c:	00 80 00 44 	44008000 add.l $r0,$r1,$r0
    1110:	fc 00 d0 b5 	b5d000fc sti.l $r29,252,$r0
    1114:	48 04 30 00 	00300448 jmp 1120 <malloc_extend_top+0x1bc>
    1118:	00 00 00 64 	64000000 ldk.l $r0,0
    111c:	f8 00 d0 b5 	b5d000f8 sti.l $r29,248,$r0
    1120:	fc 80 1e ac 	ac1e80fc ldi.l $r1,$r29,252
    1124:	f0 80 0e ac 	ac0e80f0 ldi.l $r0,$r29,240
    1128:	00 80 00 44 	44008000 add.l $r0,$r1,$r0
    112c:	00 40 10 44 	44104000 move.l $r1,$r0
    1130:	dc 80 0e ac 	ac0e80dc ldi.l $r0,$r29,220
    1134:	f0 7f 00 44 	44007ff0 add.l $r0,$r0,-1
    1138:	04 80 00 44 	44008004 and.l $r0,$r1,$r0
    113c:	dc 80 1e ac 	ac1e80dc ldi.l $r1,$r29,220
    1140:	02 80 00 44 	44008002 sub.l $r0,$r1,$r0
    1144:	f8 80 1e ac 	ac1e80f8 ldi.l $r1,$r29,248
    1148:	00 80 00 44 	44008000 add.l $r0,$r1,$r0
    114c:	f8 00 d0 b5 	b5d000f8 sti.l $r29,248,$r0
    1150:	dc 80 0e ac 	ac0e80dc ldi.l $r0,$r29,220
    1154:	f0 7f 00 44 	44007ff0 add.l $r0,$r0,-1
    1158:	f8 80 1e ac 	ac1e80f8 ldi.l $r1,$r29,248
    115c:	04 80 00 44 	44008004 and.l $r0,$r1,$r0
    1160:	f8 00 d0 b5 	b5d000f8 sti.l $r29,248,$r0
    1164:	f8 80 0e ac 	ac0e80f8 ldi.l $r0,$r29,248
    1168:	00 40 10 44 	44104000 move.l $r1,$r0
    116c:	d0 80 0e ac 	ac0e80d0 ldi.l $r0,$r29,208
    1170:	26 0b 34 00 	00340b26 call 2c98 <_sbrk_r>
    1174:	f4 00 d0 b5 	b5d000f4 sti.l $r29,244,$r0
    1178:	f4 80 0e ac 	ac0e80f4 ldi.l $r0,$r29,244
    117c:	f2 7f e0 5d 	5de07ff2 cmp.l $r0,-1
    1180:	71 04 20 00 	00200471 jmpc nz,11c4 <malloc_extend_top+0x260>
    1184:	00 00 00 64 	64000000 ldk.l $r0,0
    1188:	f8 00 d0 b5 	b5d000f8 sti.l $r29,248,$r0
    118c:	01 00 00 64 	64000001 ldk.l $r0,1
    1190:	ec 00 d0 b5 	b5d000ec sti.l $r29,236,$r0
    1194:	fc 80 1e ac 	ac1e80fc ldi.l $r1,$r29,252
    1198:	f0 80 0e ac 	ac0e80f0 ldi.l $r0,$r29,240
    119c:	00 80 00 44 	44008000 add.l $r0,$r1,$r0
    11a0:	f4 00 d0 b5 	b5d000f4 sti.l $r29,244,$r0
    11a4:	d4 80 0e ac 	ac0e80d4 ldi.l $r0,$r29,212
    11a8:	02 40 e0 5d 	5de04002 cmp.l $r0,0
    11ac:	71 04 28 00 	00280471 jmpc z,11c4 <malloc_extend_top+0x260>
    11b0:	d4 80 0e ac 	ac0e80d4 ldi.l $r0,$r29,212
    11b4:	80 7f 00 44 	44007f80 add.l $r0,$r0,-8
    11b8:	f4 80 1e ac 	ac1e80f4 ldi.l $r1,$r29,244
    11bc:	00 80 00 44 	44008000 add.l $r0,$r1,$r0
    11c0:	f4 00 d0 b5 	b5d000f4 sti.l $r29,244,$r0
    11c4:	64 08 00 64 	64000864 ldk.l $r0,2148
    11c8:	00 00 00 ac 	ac000000 ldi.l $r0,$r0,0
    11cc:	00 40 10 44 	44104000 move.l $r1,$r0
    11d0:	f8 80 0e ac 	ac0e80f8 ldi.l $r0,$r29,248
    11d4:	00 80 00 44 	44008000 add.l $r0,$r1,$r0
    11d8:	00 40 10 44 	44104000 move.l $r1,$r0
    11dc:	64 08 00 64 	64000864 ldk.l $r0,2148
    11e0:	00 80 00 b4 	b4008000 sti.l $r0,0,$r1
    11e4:	28 04 00 64 	64000428 ldk.l $r0,1064
    11e8:	fc 80 1e ac 	ac1e80fc ldi.l $r1,$r29,252
    11ec:	08 80 00 b4 	b4008008 sti.l $r0,8,$r1
    11f0:	f4 80 1e ac 	ac1e80f4 ldi.l $r1,$r29,244
    11f4:	fc 80 0e ac 	ac0e80fc ldi.l $r0,$r29,252
    11f8:	02 80 00 44 	44008002 sub.l $r0,$r1,$r0
    11fc:	00 40 10 44 	44104000 move.l $r1,$r0
    1200:	f8 80 0e ac 	ac0e80f8 ldi.l $r0,$r29,248
    1204:	10 00 00 44 	44000010 add.l $r0,$r0,$r1
    1208:	d8 00 d0 b5 	b5d000d8 sti.l $r29,216,$r0
    120c:	28 04 00 64 	64000428 ldk.l $r0,1064
    1210:	08 00 00 ac 	ac000008 ldi.l $r0,$r0,8
    1214:	d8 80 1e ac 	ac1e80d8 ldi.l $r1,$r29,216
    1218:	0b e2 10 44 	4410e20b bins.l $r1,$r1,-480
    121c:	04 80 00 b4 	b4008004 sti.l $r0,4,$r1
    1220:	28 04 00 64 	64000428 ldk.l $r0,1064
    1224:	e8 80 1e ac 	ac1e80e8 ldi.l $r1,$r29,232
    1228:	02 80 e0 5d 	5de08002 cmp.l $r1,$r0
    122c:	b2 04 28 00 	002804b2 jmpc z,12c8 <malloc_extend_top+0x364>
    1230:	e4 80 0e ac 	ac0e80e4 ldi.l $r0,$r29,228
    1234:	f2 40 e0 5d 	5de040f2 cmp.l $r0,15
    1238:	94 04 a8 01 	01a80494 jmpc a,1250 <malloc_extend_top+0x2ec>
    123c:	28 04 00 64 	64000428 ldk.l $r0,1064
    1240:	08 00 00 ac 	ac000008 ldi.l $r0,$r0,8
    1244:	01 00 10 64 	64100001 ldk.l $r1,1
    1248:	04 80 00 b4 	b4008004 sti.l $r0,4,$r1
    124c:	c6 04 30 00 	003004c6 jmp 1318 <malloc_extend_top+0x3b4>
    1250:	e4 80 0e ac 	ac0e80e4 ldi.l $r0,$r29,228
    1254:	40 7f 00 44 	44007f40 add.l $r0,$r0,-12
    1258:	0b 46 00 44 	4400460b bins.l $r0,$r0,96
    125c:	e4 00 d0 b5 	b5d000e4 sti.l $r29,228,$r0
    1260:	e8 80 0e ac 	ac0e80e8 ldi.l $r0,$r29,232
    1264:	04 00 00 ac 	ac000004 ldi.l $r0,$r0,4
    1268:	14 40 00 44 	44004014 and.l $r0,$r0,1
    126c:	e4 80 2e ac 	ac2e80e4 ldi.l $r2,$r29,228
    1270:	25 00 10 44 	44100025 or.l $r1,$r0,$r2
    1274:	e8 80 0e ac 	ac0e80e8 ldi.l $r0,$r29,232
    1278:	04 80 00 b4 	b4008004 sti.l $r0,4,$r1
    127c:	e8 80 1e ac 	ac1e80e8 ldi.l $r1,$r29,232
    1280:	e4 80 0e ac 	ac0e80e4 ldi.l $r0,$r29,228
    1284:	00 80 00 44 	44008000 add.l $r0,$r1,$r0
    1288:	05 00 10 64 	64100005 ldk.l $r1,5
    128c:	04 80 00 b4 	b4008004 sti.l $r0,4,$r1
    1290:	e4 80 0e ac 	ac0e80e4 ldi.l $r0,$r29,228
    1294:	40 40 00 44 	44004040 add.l $r0,$r0,4
    1298:	e8 80 1e ac 	ac1e80e8 ldi.l $r1,$r29,232
    129c:	00 80 00 44 	44008000 add.l $r0,$r1,$r0
    12a0:	05 00 10 64 	64100005 ldk.l $r1,5
    12a4:	04 80 00 b4 	b4008004 sti.l $r0,4,$r1
    12a8:	e4 80 0e ac 	ac0e80e4 ldi.l $r0,$r29,228
    12ac:	f2 40 e0 5d 	5de040f2 cmp.l $r0,15
    12b0:	b2 04 a0 01 	01a004b2 jmpc be,12c8 <malloc_extend_top+0x364>
    12b4:	e8 80 0e ac 	ac0e80e8 ldi.l $r0,$r29,232
    12b8:	80 40 00 44 	44004080 add.l $r0,$r0,8
    12bc:	00 40 10 44 	44104000 move.l $r1,$r0
    12c0:	d0 80 0e ac 	ac0e80d0 ldi.l $r0,$r29,208
    12c4:	e0 0d 34 00 	00340de0 call 3780 <_free_r>
    12c8:	64 08 00 64 	64000864 ldk.l $r0,2148
    12cc:	00 00 00 ac 	ac000000 ldi.l $r0,$r0,0
    12d0:	00 40 10 44 	44104000 move.l $r1,$r0
    12d4:	5c 08 00 c4 	c400085c lda.l $r0,80085c <__malloc_max_sbrked_mem>
    12d8:	02 80 e0 5d 	5de08002 cmp.l $r1,$r0
    12dc:	bb 04 a0 01 	01a004bb jmpc be,12ec <malloc_extend_top+0x388>
    12e0:	64 08 00 64 	64000864 ldk.l $r0,2148
    12e4:	00 00 00 ac 	ac000000 ldi.l $r0,$r0,0
    12e8:	5c 08 00 bc 	bc00085c sta.l 80085c <__malloc_max_sbrked_mem>,$r0
    12ec:	64 08 00 64 	64000864 ldk.l $r0,2148
    12f0:	00 00 00 ac 	ac000000 ldi.l $r0,$r0,0
    12f4:	00 40 10 44 	44104000 move.l $r1,$r0
    12f8:	60 08 00 c4 	c4000860 lda.l $r0,800860 <__malloc_max_total_mem>
    12fc:	02 80 e0 5d 	5de08002 cmp.l $r1,$r0
    1300:	c6 04 a0 01 	01a004c6 jmpc be,1318 <malloc_extend_top+0x3b4>
    1304:	64 08 00 64 	64000864 ldk.l $r0,2148
    1308:	00 00 00 ac 	ac000000 ldi.l $r0,$r0,0
    130c:	60 08 00 bc 	bc000860 sta.l 800860 <__malloc_max_total_mem>,$r0
    1310:	c6 04 30 00 	003004c6 jmp 1318 <malloc_extend_top+0x3b4>
    1314:	00 40 00 40 	40004000 nop 
    1318:	00 00 d0 99 	99d00000 unlink $r29
    131c:	00 00 00 a0 	a0000000 return 

00001320 <_malloc_r>:
    1320:	3c 00 d0 95 	95d0003c link $r29,60
    1324:	c8 00 d0 b5 	b5d000c8 sti.l $r29,200,$r0
    1328:	c4 80 d0 b5 	b5d080c4 sti.l $r29,196,$r1
    132c:	c4 80 0e ac 	ac0e80c4 ldi.l $r0,$r29,196
    1330:	b0 40 00 44 	440040b0 add.l $r0,$r0,11
    1334:	62 41 e0 5d 	5de04162 cmp.l $r0,22
    1338:	d3 04 a0 01 	01a004d3 jmpc be,134c <_malloc_r+0x2c>
    133c:	c4 80 0e ac 	ac0e80c4 ldi.l $r0,$r29,196
    1340:	b0 40 00 44 	440040b0 add.l $r0,$r0,11
    1344:	0b 46 00 44 	4400460b bins.l $r0,$r0,96
    1348:	d4 04 30 00 	003004d4 jmp 1350 <_malloc_r+0x30>
    134c:	10 00 00 64 	64000010 ldk.l $r0,16
    1350:	d8 00 d0 b5 	b5d000d8 sti.l $r29,216,$r0
    1354:	d8 80 0e ac 	ac0e80d8 ldi.l $r0,$r29,216
    1358:	02 40 e0 5d 	5de04002 cmp.l $r0,0
    135c:	dc 04 20 01 	012004dc jmpc lt,1370 <_malloc_r+0x50>
    1360:	d8 80 1e ac 	ac1e80d8 ldi.l $r1,$r29,216
    1364:	c4 80 0e ac 	ac0e80c4 ldi.l $r0,$r29,196
    1368:	02 80 e0 5d 	5de08002 cmp.l $r1,$r0
    136c:	e1 04 60 00 	006004e1 jmpc ae,1384 <_malloc_r+0x64>
    1370:	c8 80 0e ac 	ac0e80c8 ldi.l $r0,$r29,200
    1374:	0c 00 10 64 	6410000c ldk.l $r1,12
    1378:	00 80 00 b4 	b4008000 sti.l $r0,0,$r1
    137c:	00 00 00 64 	64000000 ldk.l $r0,0
    1380:	8c 07 30 00 	0030078c jmp 1e30 <_malloc_r+0xb10>
    1384:	c8 80 0e ac 	ac0e80c8 ldi.l $r0,$r29,200
    1388:	1e 08 34 00 	0034081e call 2078 <__malloc_lock>
    138c:	d8 80 0e ac 	ac0e80d8 ldi.l $r0,$r29,216
    1390:	72 5f e0 5d 	5de05f72 cmp.l $r0,503
    1394:	24 05 a8 01 	01a80524 jmpc a,1490 <_malloc_r+0x170>
    1398:	d8 80 0e ac 	ac0e80d8 ldi.l $r0,$r29,216
    139c:	39 40 00 44 	44004039 lshr.l $r0,$r0,3
    13a0:	f8 00 d0 b5 	b5d000f8 sti.l $r29,248,$r0
    13a4:	f8 80 0e ac 	ac0e80f8 ldi.l $r0,$r29,248
    13a8:	10 40 00 44 	44004010 add.l $r0,$r0,1
    13ac:	00 00 00 44 	44000000 add.l $r0,$r0,$r0
    13b0:	28 40 10 44 	44104028 ashl.l $r1,$r0,2
    13b4:	28 04 00 64 	64000428 ldk.l $r0,1064
    13b8:	00 80 00 44 	44008000 add.l $r0,$r1,$r0
    13bc:	80 7f 00 44 	44007f80 add.l $r0,$r0,-8
    13c0:	dc 00 d0 b5 	b5d000dc sti.l $r29,220,$r0
    13c4:	dc 80 0e ac 	ac0e80dc ldi.l $r0,$r29,220
    13c8:	0c 00 00 ac 	ac00000c ldi.l $r0,$r0,12
    13cc:	fc 00 d0 b5 	b5d000fc sti.l $r29,252,$r0
    13d0:	fc 80 1e ac 	ac1e80fc ldi.l $r1,$r29,252
    13d4:	dc 80 0e ac 	ac0e80dc ldi.l $r0,$r29,220
    13d8:	02 80 e0 5d 	5de08002 cmp.l $r1,$r0
    13dc:	fe 04 20 00 	002004fe jmpc nz,13f8 <_malloc_r+0xd8>
    13e0:	dc 80 0e ac 	ac0e80dc ldi.l $r0,$r29,220
    13e4:	80 40 00 44 	44004080 add.l $r0,$r0,8
    13e8:	dc 00 d0 b5 	b5d000dc sti.l $r29,220,$r0
    13ec:	dc 80 0e ac 	ac0e80dc ldi.l $r0,$r29,220
    13f0:	0c 00 00 ac 	ac00000c ldi.l $r0,$r0,12
    13f4:	fc 00 d0 b5 	b5d000fc sti.l $r29,252,$r0
    13f8:	fc 80 1e ac 	ac1e80fc ldi.l $r1,$r29,252
    13fc:	dc 80 0e ac 	ac0e80dc ldi.l $r0,$r29,220
    1400:	02 80 e0 5d 	5de08002 cmp.l $r1,$r0
    1404:	20 05 28 00 	00280520 jmpc z,1480 <_malloc_r+0x160>
    1408:	fc 80 0e ac 	ac0e80fc ldi.l $r0,$r29,252
    140c:	04 00 00 ac 	ac000004 ldi.l $r0,$r0,4
    1410:	0b 44 00 44 	4400440b bins.l $r0,$r0,64
    1414:	d4 00 d0 b5 	b5d000d4 sti.l $r29,212,$r0
    1418:	fc 80 0e ac 	ac0e80fc ldi.l $r0,$r29,252
    141c:	0c 00 00 ac 	ac00000c ldi.l $r0,$r0,12
    1420:	e0 00 d0 b5 	b5d000e0 sti.l $r29,224,$r0
    1424:	fc 80 0e ac 	ac0e80fc ldi.l $r0,$r29,252
    1428:	08 00 00 ac 	ac000008 ldi.l $r0,$r0,8
    142c:	e4 00 d0 b5 	b5d000e4 sti.l $r29,228,$r0
    1430:	e4 80 0e ac 	ac0e80e4 ldi.l $r0,$r29,228
    1434:	e0 80 1e ac 	ac1e80e0 ldi.l $r1,$r29,224
    1438:	0c 80 00 b4 	b400800c sti.l $r0,12,$r1
    143c:	e0 80 0e ac 	ac0e80e0 ldi.l $r0,$r29,224
    1440:	e4 80 1e ac 	ac1e80e4 ldi.l $r1,$r29,228
    1444:	08 80 00 b4 	b4008008 sti.l $r0,8,$r1
    1448:	fc 80 1e ac 	ac1e80fc ldi.l $r1,$r29,252
    144c:	d4 80 0e ac 	ac0e80d4 ldi.l $r0,$r29,212
    1450:	00 80 00 44 	44008000 add.l $r0,$r1,$r0
    1454:	04 00 10 ac 	ac100004 ldi.l $r1,$r0,4
    1458:	fc 80 2e ac 	ac2e80fc ldi.l $r2,$r29,252
    145c:	d4 80 0e ac 	ac0e80d4 ldi.l $r0,$r29,212
    1460:	00 00 01 44 	44010000 add.l $r0,$r2,$r0
    1464:	0b e2 10 44 	4410e20b bins.l $r1,$r1,-480
    1468:	04 80 00 b4 	b4008004 sti.l $r0,4,$r1
    146c:	c8 80 0e ac 	ac0e80c8 ldi.l $r0,$r29,200
    1470:	23 08 34 00 	00340823 call 208c <__malloc_unlock>
    1474:	fc 80 0e ac 	ac0e80fc ldi.l $r0,$r29,252
    1478:	80 40 00 44 	44004080 add.l $r0,$r0,8
    147c:	8c 07 30 00 	0030078c jmp 1e30 <_malloc_r+0xb10>
    1480:	f8 80 0e ac 	ac0e80f8 ldi.l $r0,$r29,248
    1484:	20 40 00 44 	44004020 add.l $r0,$r0,2
    1488:	f8 00 d0 b5 	b5d000f8 sti.l $r29,248,$r0
    148c:	98 05 30 00 	00300598 jmp 1660 <_malloc_r+0x340>
    1490:	d8 80 0e ac 	ac0e80d8 ldi.l $r0,$r29,216
    1494:	99 40 00 44 	44004099 lshr.l $r0,$r0,9
    1498:	02 40 e0 5d 	5de04002 cmp.l $r0,0
    149c:	2b 05 20 00 	0020052b jmpc nz,14ac <_malloc_r+0x18c>
    14a0:	d8 80 0e ac 	ac0e80d8 ldi.l $r0,$r29,216
    14a4:	39 40 00 44 	44004039 lshr.l $r0,$r0,3
    14a8:	55 05 30 00 	00300555 jmp 1554 <_malloc_r+0x234>
    14ac:	d8 80 0e ac 	ac0e80d8 ldi.l $r0,$r29,216
    14b0:	99 40 00 44 	44004099 lshr.l $r0,$r0,9
    14b4:	42 40 e0 5d 	5de04042 cmp.l $r0,4
    14b8:	33 05 a8 01 	01a80533 jmpc a,14cc <_malloc_r+0x1ac>
    14bc:	d8 80 0e ac 	ac0e80d8 ldi.l $r0,$r29,216
    14c0:	69 40 00 44 	44004069 lshr.l $r0,$r0,6
    14c4:	80 43 00 44 	44004380 add.l $r0,$r0,56
    14c8:	55 05 30 00 	00300555 jmp 1554 <_malloc_r+0x234>
    14cc:	d8 80 0e ac 	ac0e80d8 ldi.l $r0,$r29,216
    14d0:	99 40 00 44 	44004099 lshr.l $r0,$r0,9
    14d4:	42 41 e0 5d 	5de04142 cmp.l $r0,20
    14d8:	3b 05 a8 01 	01a8053b jmpc a,14ec <_malloc_r+0x1cc>
    14dc:	d8 80 0e ac 	ac0e80d8 ldi.l $r0,$r29,216
    14e0:	99 40 00 44 	44004099 lshr.l $r0,$r0,9
    14e4:	b0 45 00 44 	440045b0 add.l $r0,$r0,91
    14e8:	55 05 30 00 	00300555 jmp 1554 <_malloc_r+0x234>
    14ec:	d8 80 0e ac 	ac0e80d8 ldi.l $r0,$r29,216
    14f0:	99 40 00 44 	44004099 lshr.l $r0,$r0,9
    14f4:	42 45 e0 5d 	5de04542 cmp.l $r0,84
    14f8:	43 05 a8 01 	01a80543 jmpc a,150c <_malloc_r+0x1ec>
    14fc:	d8 80 0e ac 	ac0e80d8 ldi.l $r0,$r29,216
    1500:	c9 40 00 44 	440040c9 lshr.l $r0,$r0,12
    1504:	e0 46 00 44 	440046e0 add.l $r0,$r0,110
    1508:	55 05 30 00 	00300555 jmp 1554 <_malloc_r+0x234>
    150c:	d8 80 0e ac 	ac0e80d8 ldi.l $r0,$r29,216
    1510:	99 40 00 44 	44004099 lshr.l $r0,$r0,9
    1514:	42 55 e0 5d 	5de05542 cmp.l $r0,340
    1518:	4b 05 a8 01 	01a8054b jmpc a,152c <_malloc_r+0x20c>
    151c:	d8 80 0e ac 	ac0e80d8 ldi.l $r0,$r29,216
    1520:	f9 40 00 44 	440040f9 lshr.l $r0,$r0,15
    1524:	70 47 00 44 	44004770 add.l $r0,$r0,119
    1528:	55 05 30 00 	00300555 jmp 1554 <_malloc_r+0x234>
    152c:	d8 80 0e ac 	ac0e80d8 ldi.l $r0,$r29,216
    1530:	99 40 10 44 	44104099 lshr.l $r1,$r0,9
    1534:	54 05 00 64 	64000554 ldk.l $r0,1364
    1538:	02 80 e0 5d 	5de08002 cmp.l $r1,$r0
    153c:	54 05 a8 01 	01a80554 jmpc a,1550 <_malloc_r+0x230>
    1540:	d8 80 0e ac 	ac0e80d8 ldi.l $r0,$r29,216
    1544:	29 41 00 44 	44004129 lshr.l $r0,$r0,18
    1548:	c0 47 00 44 	440047c0 add.l $r0,$r0,124
    154c:	55 05 30 00 	00300555 jmp 1554 <_malloc_r+0x234>
    1550:	7e 00 00 64 	6400007e ldk.l $r0,126
    1554:	f8 00 d0 b5 	b5d000f8 sti.l $r29,248,$r0
    1558:	f8 80 0e ac 	ac0e80f8 ldi.l $r0,$r29,248
    155c:	10 40 00 44 	44004010 add.l $r0,$r0,1
    1560:	00 00 00 44 	44000000 add.l $r0,$r0,$r0
    1564:	28 40 10 44 	44104028 ashl.l $r1,$r0,2
    1568:	28 04 00 64 	64000428 ldk.l $r0,1064
    156c:	00 80 00 44 	44008000 add.l $r0,$r1,$r0
    1570:	80 7f 00 44 	44007f80 add.l $r0,$r0,-8
    1574:	f4 00 d0 b5 	b5d000f4 sti.l $r29,244,$r0
    1578:	f4 80 0e ac 	ac0e80f4 ldi.l $r0,$r29,244
    157c:	0c 00 00 ac 	ac00000c ldi.l $r0,$r0,12
    1580:	fc 00 d0 b5 	b5d000fc sti.l $r29,252,$r0
    1584:	91 05 30 00 	00300591 jmp 1644 <_malloc_r+0x324>
    1588:	fc 80 0e ac 	ac0e80fc ldi.l $r0,$r29,252
    158c:	04 00 00 ac 	ac000004 ldi.l $r0,$r0,4
    1590:	0b 44 00 44 	4400440b bins.l $r0,$r0,64
    1594:	d4 00 d0 b5 	b5d000d4 sti.l $r29,212,$r0
    1598:	d4 80 1e ac 	ac1e80d4 ldi.l $r1,$r29,212
    159c:	d8 80 0e ac 	ac0e80d8 ldi.l $r0,$r29,216
    15a0:	02 80 00 44 	44008002 sub.l $r0,$r1,$r0
    15a4:	f0 00 d0 b5 	b5d000f0 sti.l $r29,240,$r0
    15a8:	f0 80 0e ac 	ac0e80f0 ldi.l $r0,$r29,240
    15ac:	f2 40 e0 5d 	5de040f2 cmp.l $r0,15
    15b0:	71 05 60 01 	01600571 jmpc lte,15c4 <_malloc_r+0x2a4>
    15b4:	f8 80 0e ac 	ac0e80f8 ldi.l $r0,$r29,248
    15b8:	f0 7f 00 44 	44007ff0 add.l $r0,$r0,-1
    15bc:	f8 00 d0 b5 	b5d000f8 sti.l $r29,248,$r0
    15c0:	95 05 30 00 	00300595 jmp 1654 <_malloc_r+0x334>
    15c4:	f0 80 0e ac 	ac0e80f0 ldi.l $r0,$r29,240
    15c8:	02 40 e0 5d 	5de04002 cmp.l $r0,0
    15cc:	8e 05 20 01 	0120058e jmpc lt,1638 <_malloc_r+0x318>
    15d0:	fc 80 0e ac 	ac0e80fc ldi.l $r0,$r29,252
    15d4:	0c 00 00 ac 	ac00000c ldi.l $r0,$r0,12
    15d8:	e0 00 d0 b5 	b5d000e0 sti.l $r29,224,$r0
    15dc:	fc 80 0e ac 	ac0e80fc ldi.l $r0,$r29,252
    15e0:	08 00 00 ac 	ac000008 ldi.l $r0,$r0,8
    15e4:	e4 00 d0 b5 	b5d000e4 sti.l $r29,228,$r0
    15e8:	e4 80 0e ac 	ac0e80e4 ldi.l $r0,$r29,228
    15ec:	e0 80 1e ac 	ac1e80e0 ldi.l $r1,$r29,224
    15f0:	0c 80 00 b4 	b400800c sti.l $r0,12,$r1
    15f4:	e0 80 0e ac 	ac0e80e0 ldi.l $r0,$r29,224
    15f8:	e4 80 1e ac 	ac1e80e4 ldi.l $r1,$r29,228
    15fc:	08 80 00 b4 	b4008008 sti.l $r0,8,$r1
    1600:	fc 80 1e ac 	ac1e80fc ldi.l $r1,$r29,252
    1604:	d4 80 0e ac 	ac0e80d4 ldi.l $r0,$r29,212
    1608:	00 80 00 44 	44008000 add.l $r0,$r1,$r0
    160c:	04 00 10 ac 	ac100004 ldi.l $r1,$r0,4
    1610:	fc 80 2e ac 	ac2e80fc ldi.l $r2,$r29,252
    1614:	d4 80 0e ac 	ac0e80d4 ldi.l $r0,$r29,212
    1618:	00 00 01 44 	44010000 add.l $r0,$r2,$r0
    161c:	0b e2 10 44 	4410e20b bins.l $r1,$r1,-480
    1620:	04 80 00 b4 	b4008004 sti.l $r0,4,$r1
    1624:	c8 80 0e ac 	ac0e80c8 ldi.l $r0,$r29,200
    1628:	23 08 34 00 	00340823 call 208c <__malloc_unlock>
    162c:	fc 80 0e ac 	ac0e80fc ldi.l $r0,$r29,252
    1630:	80 40 00 44 	44004080 add.l $r0,$r0,8
    1634:	8c 07 30 00 	0030078c jmp 1e30 <_malloc_r+0xb10>
    1638:	fc 80 0e ac 	ac0e80fc ldi.l $r0,$r29,252
    163c:	0c 00 00 ac 	ac00000c ldi.l $r0,$r0,12
    1640:	fc 00 d0 b5 	b5d000fc sti.l $r29,252,$r0
    1644:	fc 80 1e ac 	ac1e80fc ldi.l $r1,$r29,252
    1648:	f4 80 0e ac 	ac0e80f4 ldi.l $r0,$r29,244
    164c:	02 80 e0 5d 	5de08002 cmp.l $r1,$r0
    1650:	62 05 20 00 	00200562 jmpc nz,1588 <_malloc_r+0x268>
    1654:	f8 80 0e ac 	ac0e80f8 ldi.l $r0,$r29,248
    1658:	10 40 00 44 	44004010 add.l $r0,$r0,1
    165c:	f8 00 d0 b5 	b5d000f8 sti.l $r29,248,$r0
    1660:	30 04 00 64 	64000430 ldk.l $r0,1072
    1664:	08 00 00 ac 	ac000008 ldi.l $r0,$r0,8
    1668:	fc 00 d0 b5 	b5d000fc sti.l $r29,252,$r0
    166c:	30 04 00 64 	64000430 ldk.l $r0,1072
    1670:	fc 80 1e ac 	ac1e80fc ldi.l $r1,$r29,252
    1674:	02 80 e0 5d 	5de08002 cmp.l $r1,$r0
    1678:	7d 06 28 00 	0028067d jmpc z,19f4 <_malloc_r+0x6d4>
    167c:	fc 80 0e ac 	ac0e80fc ldi.l $r0,$r29,252
    1680:	04 00 00 ac 	ac000004 ldi.l $r0,$r0,4
    1684:	0b 44 00 44 	4400440b bins.l $r0,$r0,64
    1688:	d4 00 d0 b5 	b5d000d4 sti.l $r29,212,$r0
    168c:	d4 80 1e ac 	ac1e80d4 ldi.l $r1,$r29,212
    1690:	d8 80 0e ac 	ac0e80d8 ldi.l $r0,$r29,216
    1694:	02 80 00 44 	44008002 sub.l $r0,$r1,$r0
    1698:	f0 00 d0 b5 	b5d000f0 sti.l $r29,240,$r0
    169c:	f0 80 0e ac 	ac0e80f0 ldi.l $r0,$r29,240
    16a0:	f2 40 e0 5d 	5de040f2 cmp.l $r0,15
    16a4:	ce 05 60 01 	016005ce jmpc lte,1738 <_malloc_r+0x418>
    16a8:	fc 80 1e ac 	ac1e80fc ldi.l $r1,$r29,252
    16ac:	d8 80 0e ac 	ac0e80d8 ldi.l $r0,$r29,216
    16b0:	00 80 00 44 	44008000 add.l $r0,$r1,$r0
    16b4:	cc 00 d0 b5 	b5d000cc sti.l $r29,204,$r0
    16b8:	d8 80 0e ac 	ac0e80d8 ldi.l $r0,$r29,216
    16bc:	0b 62 10 44 	4410620b bins.l $r1,$r0,-480
    16c0:	fc 80 0e ac 	ac0e80fc ldi.l $r0,$r29,252
    16c4:	04 80 00 b4 	b4008004 sti.l $r0,4,$r1
    16c8:	30 04 00 64 	64000430 ldk.l $r0,1072
    16cc:	cc 80 1e ac 	ac1e80cc ldi.l $r1,$r29,204
    16d0:	0c 80 00 b4 	b400800c sti.l $r0,12,$r1
    16d4:	30 04 10 64 	64100430 ldk.l $r1,1072
    16d8:	0c 00 00 ac 	ac00000c ldi.l $r0,$r0,12
    16dc:	08 00 10 b4 	b4100008 sti.l $r1,8,$r0
    16e0:	30 04 10 64 	64100430 ldk.l $r1,1072
    16e4:	cc 80 0e ac 	ac0e80cc ldi.l $r0,$r29,204
    16e8:	0c 80 00 b4 	b400800c sti.l $r0,12,$r1
    16ec:	cc 80 0e ac 	ac0e80cc ldi.l $r0,$r29,204
    16f0:	0c 00 10 ac 	ac10000c ldi.l $r1,$r0,12
    16f4:	cc 80 0e ac 	ac0e80cc ldi.l $r0,$r29,204
    16f8:	08 80 00 b4 	b4008008 sti.l $r0,8,$r1
    16fc:	f0 80 0e ac 	ac0e80f0 ldi.l $r0,$r29,240
    1700:	0b 62 00 44 	4400620b bins.l $r0,$r0,-480
    1704:	00 40 10 44 	44104000 move.l $r1,$r0
    1708:	cc 80 0e ac 	ac0e80cc ldi.l $r0,$r29,204
    170c:	04 80 00 b4 	b4008004 sti.l $r0,4,$r1
    1710:	f0 80 0e ac 	ac0e80f0 ldi.l $r0,$r29,240
    1714:	cc 80 1e ac 	ac1e80cc ldi.l $r1,$r29,204
    1718:	00 80 00 44 	44008000 add.l $r0,$r1,$r0
    171c:	f0 80 1e ac 	ac1e80f0 ldi.l $r1,$r29,240
    1720:	00 80 00 b4 	b4008000 sti.l $r0,0,$r1
    1724:	c8 80 0e ac 	ac0e80c8 ldi.l $r0,$r29,200
    1728:	23 08 34 00 	00340823 call 208c <__malloc_unlock>
    172c:	fc 80 0e ac 	ac0e80fc ldi.l $r0,$r29,252
    1730:	80 40 00 44 	44004080 add.l $r0,$r0,8
    1734:	8c 07 30 00 	0030078c jmp 1e30 <_malloc_r+0xb10>
    1738:	30 04 00 64 	64000430 ldk.l $r0,1072
    173c:	30 04 10 64 	64100430 ldk.l $r1,1072
    1740:	0c 80 00 b4 	b400800c sti.l $r0,12,$r1
    1744:	30 04 10 64 	64100430 ldk.l $r1,1072
    1748:	0c 00 00 ac 	ac00000c ldi.l $r0,$r0,12
    174c:	08 00 10 b4 	b4100008 sti.l $r1,8,$r0
    1750:	f0 80 0e ac 	ac0e80f0 ldi.l $r0,$r29,240
    1754:	02 40 e0 5d 	5de04002 cmp.l $r0,0
    1758:	e5 05 20 01 	012005e5 jmpc lt,1794 <_malloc_r+0x474>
    175c:	fc 80 1e ac 	ac1e80fc ldi.l $r1,$r29,252
    1760:	d4 80 0e ac 	ac0e80d4 ldi.l $r0,$r29,212
    1764:	00 80 00 44 	44008000 add.l $r0,$r1,$r0
    1768:	04 00 10 ac 	ac100004 ldi.l $r1,$r0,4
    176c:	fc 80 2e ac 	ac2e80fc ldi.l $r2,$r29,252
    1770:	d4 80 0e ac 	ac0e80d4 ldi.l $r0,$r29,212
    1774:	00 00 01 44 	44010000 add.l $r0,$r2,$r0
    1778:	0b e2 10 44 	4410e20b bins.l $r1,$r1,-480
    177c:	04 80 00 b4 	b4008004 sti.l $r0,4,$r1
    1780:	c8 80 0e ac 	ac0e80c8 ldi.l $r0,$r29,200
    1784:	23 08 34 00 	00340823 call 208c <__malloc_unlock>
    1788:	fc 80 0e ac 	ac0e80fc ldi.l $r0,$r29,252
    178c:	80 40 00 44 	44004080 add.l $r0,$r0,8
    1790:	8c 07 30 00 	0030078c jmp 1e30 <_malloc_r+0xb10>
    1794:	d4 80 0e ac 	ac0e80d4 ldi.l $r0,$r29,212
    1798:	f2 5f e0 5d 	5de05ff2 cmp.l $r0,511
    179c:	11 06 a8 01 	01a80611 jmpc a,1844 <_malloc_r+0x524>
    17a0:	d4 80 0e ac 	ac0e80d4 ldi.l $r0,$r29,212
    17a4:	39 40 00 44 	44004039 lshr.l $r0,$r0,3
    17a8:	d0 00 d0 b5 	b5d000d0 sti.l $r29,208,$r0
    17ac:	28 04 00 64 	64000428 ldk.l $r0,1064
    17b0:	04 00 20 ac 	ac200004 ldi.l $r2,$r0,4
    17b4:	d0 80 0e ac 	ac0e80d0 ldi.l $r0,$r29,208
    17b8:	fa 41 10 44 	441041fa ashr.l $r1,$r0,31
    17bc:	34 c0 10 44 	4410c034 and.l $r1,$r1,3
    17c0:	00 80 00 44 	44008000 add.l $r0,$r1,$r0
    17c4:	2a 40 00 44 	4400402a ashr.l $r0,$r0,2
    17c8:	00 40 10 44 	44104000 move.l $r1,$r0
    17cc:	01 00 00 64 	64000001 ldk.l $r0,1
    17d0:	18 00 10 44 	44100018 ashl.l $r1,$r0,$r1
    17d4:	28 04 00 64 	64000428 ldk.l $r0,1064
    17d8:	15 00 11 44 	44110015 or.l $r1,$r2,$r1
    17dc:	04 80 00 b4 	b4008004 sti.l $r0,4,$r1
    17e0:	d0 80 0e ac 	ac0e80d0 ldi.l $r0,$r29,208
    17e4:	10 40 00 44 	44004010 add.l $r0,$r0,1
    17e8:	00 00 00 44 	44000000 add.l $r0,$r0,$r0
    17ec:	28 40 10 44 	44104028 ashl.l $r1,$r0,2
    17f0:	28 04 00 64 	64000428 ldk.l $r0,1064
    17f4:	00 80 00 44 	44008000 add.l $r0,$r1,$r0
    17f8:	80 7f 00 44 	44007f80 add.l $r0,$r0,-8
    17fc:	e0 00 d0 b5 	b5d000e0 sti.l $r29,224,$r0
    1800:	e0 80 0e ac 	ac0e80e0 ldi.l $r0,$r29,224
    1804:	08 00 00 ac 	ac000008 ldi.l $r0,$r0,8
    1808:	e4 00 d0 b5 	b5d000e4 sti.l $r29,228,$r0
    180c:	fc 80 0e ac 	ac0e80fc ldi.l $r0,$r29,252
    1810:	e0 80 1e ac 	ac1e80e0 ldi.l $r1,$r29,224
    1814:	0c 80 00 b4 	b400800c sti.l $r0,12,$r1
    1818:	fc 80 0e ac 	ac0e80fc ldi.l $r0,$r29,252
    181c:	e4 80 1e ac 	ac1e80e4 ldi.l $r1,$r29,228
    1820:	08 80 00 b4 	b4008008 sti.l $r0,8,$r1
    1824:	e0 80 0e ac 	ac0e80e0 ldi.l $r0,$r29,224
    1828:	fc 80 1e ac 	ac1e80fc ldi.l $r1,$r29,252
    182c:	08 80 00 b4 	b4008008 sti.l $r0,8,$r1
    1830:	e0 80 0e ac 	ac0e80e0 ldi.l $r0,$r29,224
    1834:	08 00 10 ac 	ac100008 ldi.l $r1,$r0,8
    1838:	e4 80 0e ac 	ac0e80e4 ldi.l $r0,$r29,228
    183c:	0c 80 00 b4 	b400800c sti.l $r0,12,$r1
    1840:	7d 06 30 00 	0030067d jmp 19f4 <_malloc_r+0x6d4>
    1844:	d4 80 0e ac 	ac0e80d4 ldi.l $r0,$r29,212
    1848:	99 40 00 44 	44004099 lshr.l $r0,$r0,9
    184c:	02 40 e0 5d 	5de04002 cmp.l $r0,0
    1850:	18 06 20 00 	00200618 jmpc nz,1860 <_malloc_r+0x540>
    1854:	d4 80 0e ac 	ac0e80d4 ldi.l $r0,$r29,212
    1858:	39 40 00 44 	44004039 lshr.l $r0,$r0,3
    185c:	42 06 30 00 	00300642 jmp 1908 <_malloc_r+0x5e8>
    1860:	d4 80 0e ac 	ac0e80d4 ldi.l $r0,$r29,212
    1864:	99 40 00 44 	44004099 lshr.l $r0,$r0,9
    1868:	42 40 e0 5d 	5de04042 cmp.l $r0,4
    186c:	20 06 a8 01 	01a80620 jmpc a,1880 <_malloc_r+0x560>
    1870:	d4 80 0e ac 	ac0e80d4 ldi.l $r0,$r29,212
    1874:	69 40 00 44 	44004069 lshr.l $r0,$r0,6
    1878:	80 43 00 44 	44004380 add.l $r0,$r0,56
    187c:	42 06 30 00 	00300642 jmp 1908 <_malloc_r+0x5e8>
    1880:	d4 80 0e ac 	ac0e80d4 ldi.l $r0,$r29,212
    1884:	99 40 00 44 	44004099 lshr.l $r0,$r0,9
    1888:	42 41 e0 5d 	5de04142 cmp.l $r0,20
    188c:	28 06 a8 01 	01a80628 jmpc a,18a0 <_malloc_r+0x580>
    1890:	d4 80 0e ac 	ac0e80d4 ldi.l $r0,$r29,212
    1894:	99 40 00 44 	44004099 lshr.l $r0,$r0,9
    1898:	b0 45 00 44 	440045b0 add.l $r0,$r0,91
    189c:	42 06 30 00 	00300642 jmp 1908 <_malloc_r+0x5e8>
    18a0:	d4 80 0e ac 	ac0e80d4 ldi.l $r0,$r29,212
    18a4:	99 40 00 44 	44004099 lshr.l $r0,$r0,9
    18a8:	42 45 e0 5d 	5de04542 cmp.l $r0,84
    18ac:	30 06 a8 01 	01a80630 jmpc a,18c0 <_malloc_r+0x5a0>
    18b0:	d4 80 0e ac 	ac0e80d4 ldi.l $r0,$r29,212
    18b4:	c9 40 00 44 	440040c9 lshr.l $r0,$r0,12
    18b8:	e0 46 00 44 	440046e0 add.l $r0,$r0,110
    18bc:	42 06 30 00 	00300642 jmp 1908 <_malloc_r+0x5e8>
    18c0:	d4 80 0e ac 	ac0e80d4 ldi.l $r0,$r29,212
    18c4:	99 40 00 44 	44004099 lshr.l $r0,$r0,9
    18c8:	42 55 e0 5d 	5de05542 cmp.l $r0,340
    18cc:	38 06 a8 01 	01a80638 jmpc a,18e0 <_malloc_r+0x5c0>
    18d0:	d4 80 0e ac 	ac0e80d4 ldi.l $r0,$r29,212
    18d4:	f9 40 00 44 	440040f9 lshr.l $r0,$r0,15
    18d8:	70 47 00 44 	44004770 add.l $r0,$r0,119
    18dc:	42 06 30 00 	00300642 jmp 1908 <_malloc_r+0x5e8>
    18e0:	d4 80 0e ac 	ac0e80d4 ldi.l $r0,$r29,212
    18e4:	99 40 10 44 	44104099 lshr.l $r1,$r0,9
    18e8:	54 05 00 64 	64000554 ldk.l $r0,1364
    18ec:	02 80 e0 5d 	5de08002 cmp.l $r1,$r0
    18f0:	41 06 a8 01 	01a80641 jmpc a,1904 <_malloc_r+0x5e4>
    18f4:	d4 80 0e ac 	ac0e80d4 ldi.l $r0,$r29,212
    18f8:	29 41 00 44 	44004129 lshr.l $r0,$r0,18
    18fc:	c0 47 00 44 	440047c0 add.l $r0,$r0,124
    1900:	42 06 30 00 	00300642 jmp 1908 <_malloc_r+0x5e8>
    1904:	7e 00 00 64 	6400007e ldk.l $r0,126
    1908:	d0 00 d0 b5 	b5d000d0 sti.l $r29,208,$r0
    190c:	d0 80 0e ac 	ac0e80d0 ldi.l $r0,$r29,208
    1910:	10 40 00 44 	44004010 add.l $r0,$r0,1
    1914:	00 00 00 44 	44000000 add.l $r0,$r0,$r0
    1918:	28 40 10 44 	44104028 ashl.l $r1,$r0,2
    191c:	28 04 00 64 	64000428 ldk.l $r0,1064
    1920:	00 80 00 44 	44008000 add.l $r0,$r1,$r0
    1924:	80 7f 00 44 	44007f80 add.l $r0,$r0,-8
    1928:	e0 00 d0 b5 	b5d000e0 sti.l $r29,224,$r0
    192c:	e0 80 0e ac 	ac0e80e0 ldi.l $r0,$r29,224
    1930:	08 00 00 ac 	ac000008 ldi.l $r0,$r0,8
    1934:	e4 00 d0 b5 	b5d000e4 sti.l $r29,228,$r0
    1938:	e4 80 1e ac 	ac1e80e4 ldi.l $r1,$r29,228
    193c:	e0 80 0e ac 	ac0e80e0 ldi.l $r0,$r29,224
    1940:	02 80 e0 5d 	5de08002 cmp.l $r1,$r0
    1944:	63 06 20 00 	00200663 jmpc nz,198c <_malloc_r+0x66c>
    1948:	28 04 00 64 	64000428 ldk.l $r0,1064
    194c:	04 00 20 ac 	ac200004 ldi.l $r2,$r0,4
    1950:	d0 80 0e ac 	ac0e80d0 ldi.l $r0,$r29,208
    1954:	fa 41 10 44 	441041fa ashr.l $r1,$r0,31
    1958:	34 c0 10 44 	4410c034 and.l $r1,$r1,3
    195c:	00 80 00 44 	44008000 add.l $r0,$r1,$r0
    1960:	2a 40 00 44 	4400402a ashr.l $r0,$r0,2
    1964:	00 40 10 44 	44104000 move.l $r1,$r0
    1968:	01 00 00 64 	64000001 ldk.l $r0,1
    196c:	18 00 10 44 	44100018 ashl.l $r1,$r0,$r1
    1970:	28 04 00 64 	64000428 ldk.l $r0,1064
    1974:	15 00 11 44 	44110015 or.l $r1,$r2,$r1
    1978:	04 80 00 b4 	b4008004 sti.l $r0,4,$r1
    197c:	70 06 30 00 	00300670 jmp 19c0 <_malloc_r+0x6a0>
    1980:	e4 80 0e ac 	ac0e80e4 ldi.l $r0,$r29,228
    1984:	08 00 00 ac 	ac000008 ldi.l $r0,$r0,8
    1988:	e4 00 d0 b5 	b5d000e4 sti.l $r29,228,$r0
    198c:	e4 80 1e ac 	ac1e80e4 ldi.l $r1,$r29,228
    1990:	e0 80 0e ac 	ac0e80e0 ldi.l $r0,$r29,224
    1994:	02 80 e0 5d 	5de08002 cmp.l $r1,$r0
    1998:	6d 06 28 00 	0028066d jmpc z,19b4 <_malloc_r+0x694>
    199c:	e4 80 0e ac 	ac0e80e4 ldi.l $r0,$r29,228
    19a0:	04 00 00 ac 	ac000004 ldi.l $r0,$r0,4
    19a4:	0b 44 00 44 	4400440b bins.l $r0,$r0,64
    19a8:	d4 80 1e ac 	ac1e80d4 ldi.l $r1,$r29,212
    19ac:	02 80 e0 5d 	5de08002 cmp.l $r1,$r0
    19b0:	60 06 68 00 	00680660 jmpc b,1980 <_malloc_r+0x660>
    19b4:	e4 80 0e ac 	ac0e80e4 ldi.l $r0,$r29,228
    19b8:	0c 00 00 ac 	ac00000c ldi.l $r0,$r0,12
    19bc:	e0 00 d0 b5 	b5d000e0 sti.l $r29,224,$r0
    19c0:	fc 80 0e ac 	ac0e80fc ldi.l $r0,$r29,252
    19c4:	e0 80 1e ac 	ac1e80e0 ldi.l $r1,$r29,224
    19c8:	0c 80 00 b4 	b400800c sti.l $r0,12,$r1
    19cc:	fc 80 0e ac 	ac0e80fc ldi.l $r0,$r29,252
    19d0:	e4 80 1e ac 	ac1e80e4 ldi.l $r1,$r29,228
    19d4:	08 80 00 b4 	b4008008 sti.l $r0,8,$r1
    19d8:	e0 80 0e ac 	ac0e80e0 ldi.l $r0,$r29,224
    19dc:	fc 80 1e ac 	ac1e80fc ldi.l $r1,$r29,252
    19e0:	08 80 00 b4 	b4008008 sti.l $r0,8,$r1
    19e4:	e0 80 0e ac 	ac0e80e0 ldi.l $r0,$r29,224
    19e8:	08 00 10 ac 	ac100008 ldi.l $r1,$r0,8
    19ec:	e4 80 0e ac 	ac0e80e4 ldi.l $r0,$r29,228
    19f0:	0c 80 00 b4 	b400800c sti.l $r0,12,$r1
    19f4:	f8 80 0e ac 	ac0e80f8 ldi.l $r0,$r29,248
    19f8:	fa 41 10 44 	441041fa ashr.l $r1,$r0,31
    19fc:	34 c0 10 44 	4410c034 and.l $r1,$r1,3
    1a00:	00 80 00 44 	44008000 add.l $r0,$r1,$r0
    1a04:	2a 40 00 44 	4400402a ashr.l $r0,$r0,2
    1a08:	00 40 10 44 	44104000 move.l $r1,$r0
    1a0c:	01 00 00 64 	64000001 ldk.l $r0,1
    1a10:	18 00 00 44 	44000018 ashl.l $r0,$r0,$r1
    1a14:	ec 00 d0 b5 	b5d000ec sti.l $r29,236,$r0
    1a18:	28 04 00 64 	64000428 ldk.l $r0,1064
    1a1c:	04 00 00 ac 	ac000004 ldi.l $r0,$r0,4
    1a20:	ec 80 1e ac 	ac1e80ec ldi.l $r1,$r29,236
    1a24:	02 80 e0 5d 	5de08002 cmp.l $r1,$r0
    1a28:	4e 07 a8 01 	01a8074e jmpc a,1d38 <_malloc_r+0xa18>
    1a2c:	28 04 00 64 	64000428 ldk.l $r0,1064
    1a30:	04 00 00 ac 	ac000004 ldi.l $r0,$r0,4
    1a34:	ec 80 1e ac 	ac1e80ec ldi.l $r1,$r29,236
    1a38:	14 00 00 44 	44000014 and.l $r0,$r0,$r1
    1a3c:	02 40 e0 5d 	5de04002 cmp.l $r0,0
    1a40:	a5 06 20 00 	002006a5 jmpc nz,1a94 <_malloc_r+0x774>
    1a44:	f8 80 0e ac 	ac0e80f8 ldi.l $r0,$r29,248
    1a48:	0b 44 00 44 	4400440b bins.l $r0,$r0,64
    1a4c:	40 40 00 44 	44004040 add.l $r0,$r0,4
    1a50:	f8 00 d0 b5 	b5d000f8 sti.l $r29,248,$r0
    1a54:	ec 80 0e ac 	ac0e80ec ldi.l $r0,$r29,236
    1a58:	00 00 00 44 	44000000 add.l $r0,$r0,$r0
    1a5c:	ec 00 d0 b5 	b5d000ec sti.l $r29,236,$r0
    1a60:	9f 06 30 00 	0030069f jmp 1a7c <_malloc_r+0x75c>
    1a64:	f8 80 0e ac 	ac0e80f8 ldi.l $r0,$r29,248
    1a68:	40 40 00 44 	44004040 add.l $r0,$r0,4
    1a6c:	f8 00 d0 b5 	b5d000f8 sti.l $r29,248,$r0
    1a70:	ec 80 0e ac 	ac0e80ec ldi.l $r0,$r29,236
    1a74:	00 00 00 44 	44000000 add.l $r0,$r0,$r0
    1a78:	ec 00 d0 b5 	b5d000ec sti.l $r29,236,$r0
    1a7c:	28 04 00 64 	64000428 ldk.l $r0,1064
    1a80:	04 00 00 ac 	ac000004 ldi.l $r0,$r0,4
    1a84:	ec 80 1e ac 	ac1e80ec ldi.l $r1,$r29,236
    1a88:	14 00 00 44 	44000014 and.l $r0,$r0,$r1
    1a8c:	02 40 e0 5d 	5de04002 cmp.l $r0,0
    1a90:	99 06 28 00 	00280699 jmpc z,1a64 <_malloc_r+0x744>
    1a94:	f8 80 0e ac 	ac0e80f8 ldi.l $r0,$r29,248
    1a98:	e8 00 d0 b5 	b5d000e8 sti.l $r29,232,$r0
    1a9c:	f8 80 0e ac 	ac0e80f8 ldi.l $r0,$r29,248
    1aa0:	10 40 00 44 	44004010 add.l $r0,$r0,1
    1aa4:	00 00 00 44 	44000000 add.l $r0,$r0,$r0
    1aa8:	28 40 10 44 	44104028 ashl.l $r1,$r0,2
    1aac:	28 04 00 64 	64000428 ldk.l $r0,1064
    1ab0:	00 80 00 44 	44008000 add.l $r0,$r1,$r0
    1ab4:	80 7f 00 44 	44007f80 add.l $r0,$r0,-8
    1ab8:	f4 00 d0 b5 	b5d000f4 sti.l $r29,244,$r0
    1abc:	f4 80 0e ac 	ac0e80f4 ldi.l $r0,$r29,244
    1ac0:	dc 00 d0 b5 	b5d000dc sti.l $r29,220,$r0
    1ac4:	f4 80 0e ac 	ac0e80f4 ldi.l $r0,$r29,244
    1ac8:	0c 00 00 ac 	ac00000c ldi.l $r0,$r0,12
    1acc:	fc 00 d0 b5 	b5d000fc sti.l $r29,252,$r0
    1ad0:	10 07 30 00 	00300710 jmp 1c40 <_malloc_r+0x920>
    1ad4:	fc 80 0e ac 	ac0e80fc ldi.l $r0,$r29,252
    1ad8:	04 00 00 ac 	ac000004 ldi.l $r0,$r0,4
    1adc:	0b 44 00 44 	4400440b bins.l $r0,$r0,64
    1ae0:	d4 00 d0 b5 	b5d000d4 sti.l $r29,212,$r0
    1ae4:	d4 80 1e ac 	ac1e80d4 ldi.l $r1,$r29,212
    1ae8:	d8 80 0e ac 	ac0e80d8 ldi.l $r0,$r29,216
    1aec:	02 80 00 44 	44008002 sub.l $r0,$r1,$r0
    1af0:	f0 00 d0 b5 	b5d000f0 sti.l $r29,240,$r0
    1af4:	f0 80 0e ac 	ac0e80f0 ldi.l $r0,$r29,240
    1af8:	f2 40 e0 5d 	5de040f2 cmp.l $r0,15
    1afc:	f0 06 60 01 	016006f0 jmpc lte,1bc0 <_malloc_r+0x8a0>
    1b00:	fc 80 1e ac 	ac1e80fc ldi.l $r1,$r29,252
    1b04:	d8 80 0e ac 	ac0e80d8 ldi.l $r0,$r29,216
    1b08:	00 80 00 44 	44008000 add.l $r0,$r1,$r0
    1b0c:	cc 00 d0 b5 	b5d000cc sti.l $r29,204,$r0
    1b10:	d8 80 0e ac 	ac0e80d8 ldi.l $r0,$r29,216
    1b14:	0b 62 10 44 	4410620b bins.l $r1,$r0,-480
    1b18:	fc 80 0e ac 	ac0e80fc ldi.l $r0,$r29,252
    1b1c:	04 80 00 b4 	b4008004 sti.l $r0,4,$r1
    1b20:	fc 80 0e ac 	ac0e80fc ldi.l $r0,$r29,252
    1b24:	0c 00 00 ac 	ac00000c ldi.l $r0,$r0,12
    1b28:	e0 00 d0 b5 	b5d000e0 sti.l $r29,224,$r0
    1b2c:	fc 80 0e ac 	ac0e80fc ldi.l $r0,$r29,252
    1b30:	08 00 00 ac 	ac000008 ldi.l $r0,$r0,8
    1b34:	e4 00 d0 b5 	b5d000e4 sti.l $r29,228,$r0
    1b38:	e4 80 0e ac 	ac0e80e4 ldi.l $r0,$r29,228
    1b3c:	e0 80 1e ac 	ac1e80e0 ldi.l $r1,$r29,224
    1b40:	0c 80 00 b4 	b400800c sti.l $r0,12,$r1
    1b44:	e0 80 0e ac 	ac0e80e0 ldi.l $r0,$r29,224
    1b48:	e4 80 1e ac 	ac1e80e4 ldi.l $r1,$r29,228
    1b4c:	08 80 00 b4 	b4008008 sti.l $r0,8,$r1
    1b50:	30 04 00 64 	64000430 ldk.l $r0,1072
    1b54:	cc 80 1e ac 	ac1e80cc ldi.l $r1,$r29,204
    1b58:	0c 80 00 b4 	b400800c sti.l $r0,12,$r1
    1b5c:	30 04 10 64 	64100430 ldk.l $r1,1072
    1b60:	0c 00 00 ac 	ac00000c ldi.l $r0,$r0,12
    1b64:	08 00 10 b4 	b4100008 sti.l $r1,8,$r0
    1b68:	30 04 10 64 	64100430 ldk.l $r1,1072
    1b6c:	cc 80 0e ac 	ac0e80cc ldi.l $r0,$r29,204
    1b70:	0c 80 00 b4 	b400800c sti.l $r0,12,$r1
    1b74:	cc 80 0e ac 	ac0e80cc ldi.l $r0,$r29,204
    1b78:	0c 00 10 ac 	ac10000c ldi.l $r1,$r0,12
    1b7c:	cc 80 0e ac 	ac0e80cc ldi.l $r0,$r29,204
    1b80:	08 80 00 b4 	b4008008 sti.l $r0,8,$r1
    1b84:	f0 80 0e ac 	ac0e80f0 ldi.l $r0,$r29,240
    1b88:	0b 62 00 44 	4400620b bins.l $r0,$r0,-480
    1b8c:	00 40 10 44 	44104000 move.l $r1,$r0
    1b90:	cc 80 0e ac 	ac0e80cc ldi.l $r0,$r29,204
    1b94:	04 80 00 b4 	b4008004 sti.l $r0,4,$r1
    1b98:	f0 80 0e ac 	ac0e80f0 ldi.l $r0,$r29,240
    1b9c:	cc 80 1e ac 	ac1e80cc ldi.l $r1,$r29,204
    1ba0:	00 80 00 44 	44008000 add.l $r0,$r1,$r0
    1ba4:	f0 80 1e ac 	ac1e80f0 ldi.l $r1,$r29,240
    1ba8:	00 80 00 b4 	b4008000 sti.l $r0,0,$r1
    1bac:	c8 80 0e ac 	ac0e80c8 ldi.l $r0,$r29,200
    1bb0:	23 08 34 00 	00340823 call 208c <__malloc_unlock>
    1bb4:	fc 80 0e ac 	ac0e80fc ldi.l $r0,$r29,252
    1bb8:	80 40 00 44 	44004080 add.l $r0,$r0,8
    1bbc:	8c 07 30 00 	0030078c jmp 1e30 <_malloc_r+0xb10>
    1bc0:	f0 80 0e ac 	ac0e80f0 ldi.l $r0,$r29,240
    1bc4:	02 40 e0 5d 	5de04002 cmp.l $r0,0
    1bc8:	0d 07 20 01 	0120070d jmpc lt,1c34 <_malloc_r+0x914>
    1bcc:	fc 80 1e ac 	ac1e80fc ldi.l $r1,$r29,252
    1bd0:	d4 80 0e ac 	ac0e80d4 ldi.l $r0,$r29,212
    1bd4:	00 80 00 44 	44008000 add.l $r0,$r1,$r0
    1bd8:	04 00 10 ac 	ac100004 ldi.l $r1,$r0,4
    1bdc:	fc 80 2e ac 	ac2e80fc ldi.l $r2,$r29,252
    1be0:	d4 80 0e ac 	ac0e80d4 ldi.l $r0,$r29,212
    1be4:	00 00 01 44 	44010000 add.l $r0,$r2,$r0
    1be8:	0b e2 10 44 	4410e20b bins.l $r1,$r1,-480
    1bec:	04 80 00 b4 	b4008004 sti.l $r0,4,$r1
    1bf0:	fc 80 0e ac 	ac0e80fc ldi.l $r0,$r29,252
    1bf4:	0c 00 00 ac 	ac00000c ldi.l $r0,$r0,12
    1bf8:	e0 00 d0 b5 	b5d000e0 sti.l $r29,224,$r0
    1bfc:	fc 80 0e ac 	ac0e80fc ldi.l $r0,$r29,252
    1c00:	08 00 00 ac 	ac000008 ldi.l $r0,$r0,8
    1c04:	e4 00 d0 b5 	b5d000e4 sti.l $r29,228,$r0
    1c08:	e4 80 0e ac 	ac0e80e4 ldi.l $r0,$r29,228
    1c0c:	e0 80 1e ac 	ac1e80e0 ldi.l $r1,$r29,224
    1c10:	0c 80 00 b4 	b400800c sti.l $r0,12,$r1
    1c14:	e0 80 0e ac 	ac0e80e0 ldi.l $r0,$r29,224
    1c18:	e4 80 1e ac 	ac1e80e4 ldi.l $r1,$r29,228
    1c1c:	08 80 00 b4 	b4008008 sti.l $r0,8,$r1
    1c20:	c8 80 0e ac 	ac0e80c8 ldi.l $r0,$r29,200
    1c24:	23 08 34 00 	00340823 call 208c <__malloc_unlock>
    1c28:	fc 80 0e ac 	ac0e80fc ldi.l $r0,$r29,252
    1c2c:	80 40 00 44 	44004080 add.l $r0,$r0,8
    1c30:	8c 07 30 00 	0030078c jmp 1e30 <_malloc_r+0xb10>
    1c34:	fc 80 0e ac 	ac0e80fc ldi.l $r0,$r29,252
    1c38:	0c 00 00 ac 	ac00000c ldi.l $r0,$r0,12
    1c3c:	fc 00 d0 b5 	b5d000fc sti.l $r29,252,$r0
    1c40:	fc 80 1e ac 	ac1e80fc ldi.l $r1,$r29,252
    1c44:	f4 80 0e ac 	ac0e80f4 ldi.l $r0,$r29,244
    1c48:	02 80 e0 5d 	5de08002 cmp.l $r1,$r0
    1c4c:	b5 06 20 00 	002006b5 jmpc nz,1ad4 <_malloc_r+0x7b4>
    1c50:	f4 80 0e ac 	ac0e80f4 ldi.l $r0,$r29,244
    1c54:	80 40 00 44 	44004080 add.l $r0,$r0,8
    1c58:	f4 00 d0 b5 	b5d000f4 sti.l $r29,244,$r0
    1c5c:	f8 80 0e ac 	ac0e80f8 ldi.l $r0,$r29,248
    1c60:	10 40 00 44 	44004010 add.l $r0,$r0,1
    1c64:	f8 00 d0 b5 	b5d000f8 sti.l $r29,248,$r0
    1c68:	f8 80 0e ac 	ac0e80f8 ldi.l $r0,$r29,248
    1c6c:	34 40 00 44 	44004034 and.l $r0,$r0,3
    1c70:	02 40 e0 5d 	5de04002 cmp.l $r0,0
    1c74:	b1 06 20 00 	002006b1 jmpc nz,1ac4 <_malloc_r+0x7a4>
    1c78:	e8 80 0e ac 	ac0e80e8 ldi.l $r0,$r29,232
    1c7c:	34 40 00 44 	44004034 and.l $r0,$r0,3
    1c80:	02 40 e0 5d 	5de04002 cmp.l $r0,0
    1c84:	2a 07 20 00 	0020072a jmpc nz,1ca8 <_malloc_r+0x988>
    1c88:	28 04 00 64 	64000428 ldk.l $r0,1064
    1c8c:	04 00 20 ac 	ac200004 ldi.l $r2,$r0,4
    1c90:	ec 80 0e ac 	ac0e80ec ldi.l $r0,$r29,236
    1c94:	f6 7f 10 44 	44107ff6 xor.l $r1,$r0,-1
    1c98:	28 04 00 64 	64000428 ldk.l $r0,1064
    1c9c:	14 00 11 44 	44110014 and.l $r1,$r2,$r1
    1ca0:	04 80 00 b4 	b4008004 sti.l $r0,4,$r1
    1ca4:	35 07 30 00 	00300735 jmp 1cd4 <_malloc_r+0x9b4>
    1ca8:	e8 80 0e ac 	ac0e80e8 ldi.l $r0,$r29,232
    1cac:	f0 7f 00 44 	44007ff0 add.l $r0,$r0,-1
    1cb0:	e8 00 d0 b5 	b5d000e8 sti.l $r29,232,$r0
    1cb4:	dc 80 0e ac 	ac0e80dc ldi.l $r0,$r29,220
    1cb8:	80 7f 00 44 	44007f80 add.l $r0,$r0,-8
    1cbc:	dc 00 d0 b5 	b5d000dc sti.l $r29,220,$r0
    1cc0:	dc 80 0e ac 	ac0e80dc ldi.l $r0,$r29,220
    1cc4:	08 00 00 ac 	ac000008 ldi.l $r0,$r0,8
    1cc8:	dc 80 1e ac 	ac1e80dc ldi.l $r1,$r29,220
    1ccc:	02 80 e0 5d 	5de08002 cmp.l $r1,$r0
    1cd0:	1e 07 28 00 	0028071e jmpc z,1c78 <_malloc_r+0x958>
    1cd4:	ec 80 0e ac 	ac0e80ec ldi.l $r0,$r29,236
    1cd8:	00 00 00 44 	44000000 add.l $r0,$r0,$r0
    1cdc:	ec 00 d0 b5 	b5d000ec sti.l $r29,236,$r0
    1ce0:	28 04 00 64 	64000428 ldk.l $r0,1064
    1ce4:	04 00 00 ac 	ac000004 ldi.l $r0,$r0,4
    1ce8:	ec 80 1e ac 	ac1e80ec ldi.l $r1,$r29,236
    1cec:	02 80 e0 5d 	5de08002 cmp.l $r1,$r0
    1cf0:	4e 07 a8 01 	01a8074e jmpc a,1d38 <_malloc_r+0xa18>
    1cf4:	ec 80 0e ac 	ac0e80ec ldi.l $r0,$r29,236
    1cf8:	02 40 e0 5d 	5de04002 cmp.l $r0,0
    1cfc:	4e 07 28 00 	0028074e jmpc z,1d38 <_malloc_r+0xa18>
    1d00:	47 07 30 00 	00300747 jmp 1d1c <_malloc_r+0x9fc>
    1d04:	f8 80 0e ac 	ac0e80f8 ldi.l $r0,$r29,248
    1d08:	40 40 00 44 	44004040 add.l $r0,$r0,4
    1d0c:	f8 00 d0 b5 	b5d000f8 sti.l $r29,248,$r0
    1d10:	ec 80 0e ac 	ac0e80ec ldi.l $r0,$r29,236
    1d14:	00 00 00 44 	44000000 add.l $r0,$r0,$r0
    1d18:	ec 00 d0 b5 	b5d000ec sti.l $r29,236,$r0
    1d1c:	28 04 00 64 	64000428 ldk.l $r0,1064
    1d20:	04 00 00 ac 	ac000004 ldi.l $r0,$r0,4
    1d24:	ec 80 1e ac 	ac1e80ec ldi.l $r1,$r29,236
    1d28:	14 00 00 44 	44000014 and.l $r0,$r0,$r1
    1d2c:	02 40 e0 5d 	5de04002 cmp.l $r0,0
    1d30:	41 07 28 00 	00280741 jmpc z,1d04 <_malloc_r+0x9e4>
    1d34:	a5 06 30 00 	003006a5 jmp 1a94 <_malloc_r+0x774>
    1d38:	28 04 00 64 	64000428 ldk.l $r0,1064
    1d3c:	08 00 00 ac 	ac000008 ldi.l $r0,$r0,8
    1d40:	04 00 00 ac 	ac000004 ldi.l $r0,$r0,4
    1d44:	0b 44 10 44 	4410440b bins.l $r1,$r0,64
    1d48:	d8 80 0e ac 	ac0e80d8 ldi.l $r0,$r29,216
    1d4c:	02 80 00 44 	44008002 sub.l $r0,$r1,$r0
    1d50:	f0 00 d0 b5 	b5d000f0 sti.l $r29,240,$r0
    1d54:	28 04 00 64 	64000428 ldk.l $r0,1064
    1d58:	08 00 00 ac 	ac000008 ldi.l $r0,$r0,8
    1d5c:	04 00 00 ac 	ac000004 ldi.l $r0,$r0,4
    1d60:	0b 44 00 44 	4400440b bins.l $r0,$r0,64
    1d64:	d8 80 1e ac 	ac1e80d8 ldi.l $r1,$r29,216
    1d68:	02 80 e0 5d 	5de08002 cmp.l $r1,$r0
    1d6c:	5f 07 a8 01 	01a8075f jmpc a,1d7c <_malloc_r+0xa5c>
    1d70:	f0 80 0e ac 	ac0e80f0 ldi.l $r0,$r29,240
    1d74:	f2 40 e0 5d 	5de040f2 cmp.l $r0,15
    1d78:	77 07 68 01 	01680777 jmpc gt,1ddc <_malloc_r+0xabc>
    1d7c:	d8 80 1e ac 	ac1e80d8 ldi.l $r1,$r29,216
    1d80:	c8 80 0e ac 	ac0e80c8 ldi.l $r0,$r29,200
    1d84:	d9 03 34 00 	003403d9 call f64 <malloc_extend_top>
    1d88:	28 04 00 64 	64000428 ldk.l $r0,1064
    1d8c:	08 00 00 ac 	ac000008 ldi.l $r0,$r0,8
    1d90:	04 00 00 ac 	ac000004 ldi.l $r0,$r0,4
    1d94:	0b 44 10 44 	4410440b bins.l $r1,$r0,64
    1d98:	d8 80 0e ac 	ac0e80d8 ldi.l $r0,$r29,216
    1d9c:	02 80 00 44 	44008002 sub.l $r0,$r1,$r0
    1da0:	f0 00 d0 b5 	b5d000f0 sti.l $r29,240,$r0
    1da4:	28 04 00 64 	64000428 ldk.l $r0,1064
    1da8:	08 00 00 ac 	ac000008 ldi.l $r0,$r0,8
    1dac:	04 00 00 ac 	ac000004 ldi.l $r0,$r0,4
    1db0:	0b 44 00 44 	4400440b bins.l $r0,$r0,64
    1db4:	d8 80 1e ac 	ac1e80d8 ldi.l $r1,$r29,216
    1db8:	02 80 e0 5d 	5de08002 cmp.l $r1,$r0
    1dbc:	73 07 a8 01 	01a80773 jmpc a,1dcc <_malloc_r+0xaac>
    1dc0:	f0 80 0e ac 	ac0e80f0 ldi.l $r0,$r29,240
    1dc4:	f2 40 e0 5d 	5de040f2 cmp.l $r0,15
    1dc8:	77 07 68 01 	01680777 jmpc gt,1ddc <_malloc_r+0xabc>
    1dcc:	c8 80 0e ac 	ac0e80c8 ldi.l $r0,$r29,200
    1dd0:	23 08 34 00 	00340823 call 208c <__malloc_unlock>
    1dd4:	00 00 00 64 	64000000 ldk.l $r0,0
    1dd8:	8c 07 30 00 	0030078c jmp 1e30 <_malloc_r+0xb10>
    1ddc:	28 04 00 64 	64000428 ldk.l $r0,1064
    1de0:	08 00 00 ac 	ac000008 ldi.l $r0,$r0,8
    1de4:	fc 00 d0 b5 	b5d000fc sti.l $r29,252,$r0
    1de8:	d8 80 0e ac 	ac0e80d8 ldi.l $r0,$r29,216
    1dec:	0b 62 10 44 	4410620b bins.l $r1,$r0,-480
    1df0:	fc 80 0e ac 	ac0e80fc ldi.l $r0,$r29,252
    1df4:	04 80 00 b4 	b4008004 sti.l $r0,4,$r1
    1df8:	28 04 00 64 	64000428 ldk.l $r0,1064
    1dfc:	fc 80 2e ac 	ac2e80fc ldi.l $r2,$r29,252
    1e00:	d8 80 1e ac 	ac1e80d8 ldi.l $r1,$r29,216
    1e04:	10 00 11 44 	44110010 add.l $r1,$r2,$r1
    1e08:	08 80 00 b4 	b4008008 sti.l $r0,8,$r1
    1e0c:	f0 80 0e ac 	ac0e80f0 ldi.l $r0,$r29,240
    1e10:	0b 62 10 44 	4410620b bins.l $r1,$r0,-480
    1e14:	28 04 00 64 	64000428 ldk.l $r0,1064
    1e18:	08 00 00 ac 	ac000008 ldi.l $r0,$r0,8
    1e1c:	04 80 00 b4 	b4008004 sti.l $r0,4,$r1
    1e20:	c8 80 0e ac 	ac0e80c8 ldi.l $r0,$r29,200
    1e24:	23 08 34 00 	00340823 call 208c <__malloc_unlock>
    1e28:	fc 80 0e ac 	ac0e80fc ldi.l $r0,$r29,252
    1e2c:	80 40 00 44 	44004080 add.l $r0,$r0,8
    1e30:	00 00 d0 99 	99d00000 unlink $r29
    1e34:	00 00 00 a0 	a0000000 return 

00001e38 <memchr>:
    1e38:	14 00 d0 95 	95d00014 link $r29,20
    1e3c:	f4 00 d0 b5 	b5d000f4 sti.l $r29,244,$r0
    1e40:	f0 80 d0 b5 	b5d080f0 sti.l $r29,240,$r1
    1e44:	ec 00 d1 b5 	b5d100ec sti.l $r29,236,$r2
    1e48:	f4 80 0e ac 	ac0e80f4 ldi.l $r0,$r29,244
    1e4c:	fc 00 d0 b5 	b5d000fc sti.l $r29,252,$r0
    1e50:	f0 80 0e ac 	ac0e80f0 ldi.l $r0,$r29,240
    1e54:	00 40 10 40 	40104000 move.b $r1,$r0
    1e58:	b0 ff 0e 44 	440effb0 add.l $r0,$r29,-5
    1e5c:	00 80 00 b0 	b0008000 sti.b $r0,0,$r1
    1e60:	a4 07 30 00 	003007a4 jmp 1e90 <memchr+0x58>
    1e64:	fc 80 0e ac 	ac0e80fc ldi.l $r0,$r29,252
    1e68:	00 00 10 a8 	a8100000 ldi.b $r1,$r0,0
    1e6c:	fb 80 0e a8 	a80e80fb ldi.b $r0,$r29,251
    1e70:	00 c0 10 40 	4010c000 move.b $r1,$r1
    1e74:	12 00 e0 59 	59e00012 cmp.b $r0,$r1
    1e78:	a1 07 20 00 	002007a1 jmpc nz,1e84 <memchr+0x4c>
    1e7c:	fc 80 0e ac 	ac0e80fc ldi.l $r0,$r29,252
    1e80:	aa 07 30 00 	003007aa jmp 1ea8 <memchr+0x70>
    1e84:	fc 80 0e ac 	ac0e80fc ldi.l $r0,$r29,252
    1e88:	10 40 00 44 	44004010 add.l $r0,$r0,1
    1e8c:	fc 00 d0 b5 	b5d000fc sti.l $r29,252,$r0
    1e90:	ec 80 0e ac 	ac0e80ec ldi.l $r0,$r29,236
    1e94:	f0 7f 10 44 	44107ff0 add.l $r1,$r0,-1
    1e98:	ec 80 d0 b5 	b5d080ec sti.l $r29,236,$r1
    1e9c:	02 40 e0 5d 	5de04002 cmp.l $r0,0
    1ea0:	99 07 20 00 	00200799 jmpc nz,1e64 <memchr+0x2c>
    1ea4:	00 00 00 64 	64000000 ldk.l $r0,0
    1ea8:	00 00 d0 99 	99d00000 unlink $r29
    1eac:	00 00 00 a0 	a0000000 return 

00001eb0 <memcpy>:
    1eb0:	18 00 d0 95 	95d00018 link $r29,24
    1eb4:	f0 00 d0 b5 	b5d000f0 sti.l $r29,240,$r0
    1eb8:	ec 80 d0 b5 	b5d080ec sti.l $r29,236,$r1
    1ebc:	e8 00 d1 b5 	b5d100e8 sti.l $r29,232,$r2
    1ec0:	f0 80 0e ac 	ac0e80f0 ldi.l $r0,$r29,240
    1ec4:	fc 00 d0 b5 	b5d000fc sti.l $r29,252,$r0
    1ec8:	ec 80 0e ac 	ac0e80ec ldi.l $r0,$r29,236
    1ecc:	f8 00 d0 b5 	b5d000f8 sti.l $r29,248,$r0
    1ed0:	f0 80 0e ac 	ac0e80f0 ldi.l $r0,$r29,240
    1ed4:	f4 00 d0 b5 	b5d000f4 sti.l $r29,244,$r0
    1ed8:	c1 07 30 00 	003007c1 jmp 1f04 <memcpy+0x54>
    1edc:	f8 80 1e ac 	ac1e80f8 ldi.l $r1,$r29,248
    1ee0:	10 c0 00 44 	4400c010 add.l $r0,$r1,1
    1ee4:	f8 00 d0 b5 	b5d000f8 sti.l $r29,248,$r0
    1ee8:	fc 80 0e ac 	ac0e80fc ldi.l $r0,$r29,252
    1eec:	10 40 20 44 	44204010 add.l $r2,$r0,1
    1ef0:	fc 00 d1 b5 	b5d100fc sti.l $r29,252,$r2
    1ef4:	00 80 20 a8 	a8208000 ldi.b $r2,$r1,0
    1ef8:	0c 50 11 44 	4411500c bexts.l $r1,$r2,256
    1efc:	00 c0 10 40 	4010c000 move.b $r1,$r1
    1f00:	00 80 00 b0 	b0008000 sti.b $r0,0,$r1
    1f04:	e8 80 0e ac 	ac0e80e8 ldi.l $r0,$r29,232
    1f08:	f0 7f 10 44 	44107ff0 add.l $r1,$r0,-1
    1f0c:	e8 80 d0 b5 	b5d080e8 sti.l $r29,232,$r1
    1f10:	02 40 e0 5d 	5de04002 cmp.l $r0,0
    1f14:	b7 07 20 00 	002007b7 jmpc nz,1edc <memcpy+0x2c>
    1f18:	f4 80 0e ac 	ac0e80f4 ldi.l $r0,$r29,244
    1f1c:	00 00 d0 99 	99d00000 unlink $r29
    1f20:	00 00 00 a0 	a0000000 return 

00001f24 <memmove>:
    1f24:	14 00 d0 95 	95d00014 link $r29,20
    1f28:	f4 00 d0 b5 	b5d000f4 sti.l $r29,244,$r0
    1f2c:	f0 80 d0 b5 	b5d080f0 sti.l $r29,240,$r1
    1f30:	ec 00 d1 b5 	b5d100ec sti.l $r29,236,$r2
    1f34:	f4 80 0e ac 	ac0e80f4 ldi.l $r0,$r29,244
    1f38:	fc 00 d0 b5 	b5d000fc sti.l $r29,252,$r0
    1f3c:	f0 80 0e ac 	ac0e80f0 ldi.l $r0,$r29,240
    1f40:	f8 00 d0 b5 	b5d000f8 sti.l $r29,248,$r0
    1f44:	f8 80 1e ac 	ac1e80f8 ldi.l $r1,$r29,248
    1f48:	fc 80 0e ac 	ac0e80fc ldi.l $r0,$r29,252
    1f4c:	02 80 e0 5d 	5de08002 cmp.l $r1,$r0
    1f50:	00 08 60 00 	00600800 jmpc ae,2000 <memmove+0xdc>
    1f54:	f8 80 1e ac 	ac1e80f8 ldi.l $r1,$r29,248
    1f58:	ec 80 0e ac 	ac0e80ec ldi.l $r0,$r29,236
    1f5c:	00 80 00 44 	44008000 add.l $r0,$r1,$r0
    1f60:	fc 80 1e ac 	ac1e80fc ldi.l $r1,$r29,252
    1f64:	02 80 e0 5d 	5de08002 cmp.l $r1,$r0
    1f68:	00 08 60 00 	00600800 jmpc ae,2000 <memmove+0xdc>
    1f6c:	f8 80 1e ac 	ac1e80f8 ldi.l $r1,$r29,248
    1f70:	ec 80 0e ac 	ac0e80ec ldi.l $r0,$r29,236
    1f74:	00 80 00 44 	44008000 add.l $r0,$r1,$r0
    1f78:	f8 00 d0 b5 	b5d000f8 sti.l $r29,248,$r0
    1f7c:	fc 80 1e ac 	ac1e80fc ldi.l $r1,$r29,252
    1f80:	ec 80 0e ac 	ac0e80ec ldi.l $r0,$r29,236
    1f84:	00 80 00 44 	44008000 add.l $r0,$r1,$r0
    1f88:	fc 00 d0 b5 	b5d000fc sti.l $r29,252,$r0
    1f8c:	f0 07 30 00 	003007f0 jmp 1fc0 <memmove+0x9c>
    1f90:	f8 80 0e ac 	ac0e80f8 ldi.l $r0,$r29,248
    1f94:	f0 7f 00 44 	44007ff0 add.l $r0,$r0,-1
    1f98:	f8 00 d0 b5 	b5d000f8 sti.l $r29,248,$r0
    1f9c:	fc 80 0e ac 	ac0e80fc ldi.l $r0,$r29,252
    1fa0:	f0 7f 00 44 	44007ff0 add.l $r0,$r0,-1
    1fa4:	fc 00 d0 b5 	b5d000fc sti.l $r29,252,$r0
    1fa8:	f8 80 0e ac 	ac0e80f8 ldi.l $r0,$r29,248
    1fac:	00 00 20 a8 	a8200000 ldi.b $r2,$r0,0
    1fb0:	0c 50 11 44 	4411500c bexts.l $r1,$r2,256
    1fb4:	fc 80 0e ac 	ac0e80fc ldi.l $r0,$r29,252
    1fb8:	00 c0 10 40 	4010c000 move.b $r1,$r1
    1fbc:	00 80 00 b0 	b0008000 sti.b $r0,0,$r1
    1fc0:	ec 80 0e ac 	ac0e80ec ldi.l $r0,$r29,236
    1fc4:	f0 7f 10 44 	44107ff0 add.l $r1,$r0,-1
    1fc8:	ec 80 d0 b5 	b5d080ec sti.l $r29,236,$r1
    1fcc:	02 40 e0 5d 	5de04002 cmp.l $r0,0
    1fd0:	e4 07 20 00 	002007e4 jmpc nz,1f90 <memmove+0x6c>
    1fd4:	05 08 30 00 	00300805 jmp 2014 <memmove+0xf0>
    1fd8:	f8 80 1e ac 	ac1e80f8 ldi.l $r1,$r29,248
    1fdc:	10 c0 00 44 	4400c010 add.l $r0,$r1,1
    1fe0:	f8 00 d0 b5 	b5d000f8 sti.l $r29,248,$r0
    1fe4:	fc 80 0e ac 	ac0e80fc ldi.l $r0,$r29,252
    1fe8:	10 40 20 44 	44204010 add.l $r2,$r0,1
    1fec:	fc 00 d1 b5 	b5d100fc sti.l $r29,252,$r2
    1ff0:	00 80 20 a8 	a8208000 ldi.b $r2,$r1,0
    1ff4:	0c 50 11 44 	4411500c bexts.l $r1,$r2,256
    1ff8:	00 c0 10 40 	4010c000 move.b $r1,$r1
    1ffc:	00 80 00 b0 	b0008000 sti.b $r0,0,$r1
    2000:	ec 80 0e ac 	ac0e80ec ldi.l $r0,$r29,236
    2004:	f0 7f 10 44 	44107ff0 add.l $r1,$r0,-1
    2008:	ec 80 d0 b5 	b5d080ec sti.l $r29,236,$r1
    200c:	02 40 e0 5d 	5de04002 cmp.l $r0,0
    2010:	f6 07 20 00 	002007f6 jmpc nz,1fd8 <memmove+0xb4>
    2014:	f4 80 0e ac 	ac0e80f4 ldi.l $r0,$r29,244
    2018:	00 00 d0 99 	99d00000 unlink $r29
    201c:	00 00 00 a0 	a0000000 return 

00002020 <memset>:
    2020:	10 00 d0 95 	95d00010 link $r29,16
    2024:	f8 00 d0 b5 	b5d000f8 sti.l $r29,248,$r0
    2028:	f4 80 d0 b5 	b5d080f4 sti.l $r29,244,$r1
    202c:	f0 00 d1 b5 	b5d100f0 sti.l $r29,240,$r2
    2030:	f8 80 0e ac 	ac0e80f8 ldi.l $r0,$r29,248
    2034:	fc 00 d0 b5 	b5d000fc sti.l $r29,252,$r0
    2038:	16 08 30 00 	00300816 jmp 2058 <memset+0x38>
    203c:	fc 80 0e ac 	ac0e80fc ldi.l $r0,$r29,252
    2040:	10 40 10 44 	44104010 add.l $r1,$r0,1
    2044:	fc 80 d0 b5 	b5d080fc sti.l $r29,252,$r1
    2048:	f4 80 1e ac 	ac1e80f4 ldi.l $r1,$r29,244
    204c:	0c d0 10 44 	4410d00c bexts.l $r1,$r1,256
    2050:	00 c0 10 40 	4010c000 move.b $r1,$r1
    2054:	00 80 00 b0 	b0008000 sti.b $r0,0,$r1
    2058:	f0 80 0e ac 	ac0e80f0 ldi.l $r0,$r29,240
    205c:	f0 7f 10 44 	44107ff0 add.l $r1,$r0,-1
    2060:	f0 80 d0 b5 	b5d080f0 sti.l $r29,240,$r1
    2064:	02 40 e0 5d 	5de04002 cmp.l $r0,0
    2068:	0f 08 20 00 	0020080f jmpc nz,203c <memset+0x1c>
    206c:	f8 80 0e ac 	ac0e80f8 ldi.l $r0,$r29,248
    2070:	00 00 d0 99 	99d00000 unlink $r29
    2074:	00 00 00 a0 	a0000000 return 

00002078 <__malloc_lock>:
    2078:	04 00 d0 95 	95d00004 link $r29,4
    207c:	fc 00 d0 b5 	b5d000fc sti.l $r29,252,$r0
    2080:	00 40 00 40 	40004000 nop 
    2084:	00 00 d0 99 	99d00000 unlink $r29
    2088:	00 00 00 a0 	a0000000 return 

0000208c <__malloc_unlock>:
    208c:	04 00 d0 95 	95d00004 link $r29,4
    2090:	fc 00 d0 b5 	b5d000fc sti.l $r29,252,$r0
    2094:	00 40 00 40 	40004000 nop 
    2098:	00 00 d0 99 	99d00000 unlink $r29
    209c:	00 00 00 a0 	a0000000 return 

000020a0 <_realloc_r>:
    20a0:	74 00 d0 95 	95d00074 link $r29,116
    20a4:	94 00 d0 b5 	b5d00094 sti.l $r29,148,$r0
    20a8:	90 80 d0 b5 	b5d08090 sti.l $r29,144,$r1
    20ac:	8c 00 d1 b5 	b5d1008c sti.l $r29,140,$r2
    20b0:	90 80 0e ac 	ac0e8090 ldi.l $r0,$r29,144
    20b4:	02 40 e0 5d 	5de04002 cmp.l $r0,0
    20b8:	33 08 20 00 	00200833 jmpc nz,20cc <_realloc_r+0x2c>
    20bc:	8c 80 1e ac 	ac1e808c ldi.l $r1,$r29,140
    20c0:	94 80 0e ac 	ac0e8094 ldi.l $r0,$r29,148
    20c4:	c8 04 34 00 	003404c8 call 1320 <_malloc_r>
    20c8:	24 0b 30 00 	00300b24 jmp 2c90 <_realloc_r+0xbf0>
    20cc:	94 80 0e ac 	ac0e8094 ldi.l $r0,$r29,148
    20d0:	1e 08 34 00 	0034081e call 2078 <__malloc_lock>
    20d4:	90 80 0e ac 	ac0e8090 ldi.l $r0,$r29,144
    20d8:	80 7f 00 44 	44007f80 add.l $r0,$r0,-8
    20dc:	cc 00 d0 b5 	b5d000cc sti.l $r29,204,$r0
    20e0:	cc 80 0e ac 	ac0e80cc ldi.l $r0,$r29,204
    20e4:	fc 00 d0 b5 	b5d000fc sti.l $r29,252,$r0
    20e8:	cc 80 0e ac 	ac0e80cc ldi.l $r0,$r29,204
    20ec:	04 00 00 ac 	ac000004 ldi.l $r0,$r0,4
    20f0:	0b 44 00 44 	4400440b bins.l $r0,$r0,64
    20f4:	c8 00 d0 b5 	b5d000c8 sti.l $r29,200,$r0
    20f8:	c8 80 0e ac 	ac0e80c8 ldi.l $r0,$r29,200
    20fc:	f8 00 d0 b5 	b5d000f8 sti.l $r29,248,$r0
    2100:	8c 80 0e ac 	ac0e808c ldi.l $r0,$r29,140
    2104:	b0 40 00 44 	440040b0 add.l $r0,$r0,11
    2108:	62 41 e0 5d 	5de04162 cmp.l $r0,22
    210c:	48 08 a0 01 	01a00848 jmpc be,2120 <_realloc_r+0x80>
    2110:	8c 80 0e ac 	ac0e808c ldi.l $r0,$r29,140
    2114:	b0 40 00 44 	440040b0 add.l $r0,$r0,11
    2118:	0b 46 00 44 	4400460b bins.l $r0,$r0,96
    211c:	49 08 30 00 	00300849 jmp 2124 <_realloc_r+0x84>
    2120:	10 00 00 64 	64000010 ldk.l $r0,16
    2124:	c4 00 d0 b5 	b5d000c4 sti.l $r29,196,$r0
    2128:	c4 80 0e ac 	ac0e80c4 ldi.l $r0,$r29,196
    212c:	02 40 e0 5d 	5de04002 cmp.l $r0,0
    2130:	51 08 20 01 	01200851 jmpc lt,2144 <_realloc_r+0xa4>
    2134:	c4 80 1e ac 	ac1e80c4 ldi.l $r1,$r29,196
    2138:	8c 80 0e ac 	ac0e808c ldi.l $r0,$r29,140
    213c:	02 80 e0 5d 	5de08002 cmp.l $r1,$r0
    2140:	56 08 60 00 	00600856 jmpc ae,2158 <_realloc_r+0xb8>
    2144:	94 80 0e ac 	ac0e8094 ldi.l $r0,$r29,148
    2148:	0c 00 10 64 	6410000c ldk.l $r1,12
    214c:	00 80 00 b4 	b4008000 sti.l $r0,0,$r1
    2150:	00 00 00 64 	64000000 ldk.l $r0,0
    2154:	24 0b 30 00 	00300b24 jmp 2c90 <_realloc_r+0xbf0>
    2158:	c8 80 1e ac 	ac1e80c8 ldi.l $r1,$r29,200
    215c:	c4 80 0e ac 	ac0e80c4 ldi.l $r0,$r29,196
    2160:	02 80 e0 5d 	5de08002 cmp.l $r1,$r0
    2164:	ea 0a 28 01 	01280aea jmpc gte,2ba8 <_realloc_r+0xb08>
    2168:	cc 80 1e ac 	ac1e80cc ldi.l $r1,$r29,204
    216c:	c8 80 0e ac 	ac0e80c8 ldi.l $r0,$r29,200
    2170:	00 80 00 44 	44008000 add.l $r0,$r1,$r0
    2174:	f4 00 d0 b5 	b5d000f4 sti.l $r29,244,$r0
    2178:	28 04 00 64 	64000428 ldk.l $r0,1064
    217c:	08 00 00 ac 	ac000008 ldi.l $r0,$r0,8
    2180:	f4 80 1e ac 	ac1e80f4 ldi.l $r1,$r29,244
    2184:	02 80 e0 5d 	5de08002 cmp.l $r1,$r0
    2188:	6c 08 28 00 	0028086c jmpc z,21b0 <_realloc_r+0x110>
    218c:	f4 80 0e ac 	ac0e80f4 ldi.l $r0,$r29,244
    2190:	04 00 00 ac 	ac000004 ldi.l $r0,$r0,4
    2194:	0b 42 00 44 	4400420b bins.l $r0,$r0,32
    2198:	f4 80 1e ac 	ac1e80f4 ldi.l $r1,$r29,244
    219c:	00 80 00 44 	44008000 add.l $r0,$r1,$r0
    21a0:	04 00 00 ac 	ac000004 ldi.l $r0,$r0,4
    21a4:	14 40 00 44 	44004014 and.l $r0,$r0,1
    21a8:	02 40 e0 5d 	5de04002 cmp.l $r0,0
    21ac:	b1 08 20 00 	002008b1 jmpc nz,22c4 <_realloc_r+0x224>
    21b0:	f4 80 0e ac 	ac0e80f4 ldi.l $r0,$r29,244
    21b4:	04 00 00 ac 	ac000004 ldi.l $r0,$r0,4
    21b8:	0b 44 00 44 	4400440b bins.l $r0,$r0,64
    21bc:	f0 00 d0 b5 	b5d000f0 sti.l $r29,240,$r0
    21c0:	28 04 00 64 	64000428 ldk.l $r0,1064
    21c4:	08 00 00 ac 	ac000008 ldi.l $r0,$r0,8
    21c8:	f4 80 1e ac 	ac1e80f4 ldi.l $r1,$r29,244
    21cc:	02 80 e0 5d 	5de08002 cmp.l $r1,$r0
    21d0:	99 08 20 00 	00200899 jmpc nz,2264 <_realloc_r+0x1c4>
    21d4:	f0 80 1e ac 	ac1e80f0 ldi.l $r1,$r29,240
    21d8:	f8 80 0e ac 	ac0e80f8 ldi.l $r0,$r29,248
    21dc:	00 80 00 44 	44008000 add.l $r0,$r1,$r0
    21e0:	00 40 10 44 	44104000 move.l $r1,$r0
    21e4:	c4 80 0e ac 	ac0e80c4 ldi.l $r0,$r29,196
    21e8:	00 41 00 44 	44004100 add.l $r0,$r0,16
    21ec:	02 80 e0 5d 	5de08002 cmp.l $r1,$r0
    21f0:	b6 08 20 01 	012008b6 jmpc lt,22d8 <_realloc_r+0x238>
    21f4:	f8 80 1e ac 	ac1e80f8 ldi.l $r1,$r29,248
    21f8:	f0 80 0e ac 	ac0e80f0 ldi.l $r0,$r29,240
    21fc:	00 80 00 44 	44008000 add.l $r0,$r1,$r0
    2200:	f8 00 d0 b5 	b5d000f8 sti.l $r29,248,$r0
    2204:	28 04 00 64 	64000428 ldk.l $r0,1064
    2208:	cc 80 2e ac 	ac2e80cc ldi.l $r2,$r29,204
    220c:	c4 80 1e ac 	ac1e80c4 ldi.l $r1,$r29,196
    2210:	10 00 11 44 	44110010 add.l $r1,$r2,$r1
    2214:	08 80 00 b4 	b4008008 sti.l $r0,8,$r1
    2218:	f8 80 1e ac 	ac1e80f8 ldi.l $r1,$r29,248
    221c:	c4 80 0e ac 	ac0e80c4 ldi.l $r0,$r29,196
    2220:	02 80 10 44 	44108002 sub.l $r1,$r1,$r0
    2224:	28 04 00 64 	64000428 ldk.l $r0,1064
    2228:	08 00 00 ac 	ac000008 ldi.l $r0,$r0,8
    222c:	0b e2 10 44 	4410e20b bins.l $r1,$r1,-480
    2230:	04 80 00 b4 	b4008004 sti.l $r0,4,$r1
    2234:	cc 80 0e ac 	ac0e80cc ldi.l $r0,$r29,204
    2238:	04 00 00 ac 	ac000004 ldi.l $r0,$r0,4
    223c:	14 40 00 44 	44004014 and.l $r0,$r0,1
    2240:	c4 80 2e ac 	ac2e80c4 ldi.l $r2,$r29,196
    2244:	25 00 10 44 	44100025 or.l $r1,$r0,$r2
    2248:	cc 80 0e ac 	ac0e80cc ldi.l $r0,$r29,204
    224c:	04 80 00 b4 	b4008004 sti.l $r0,4,$r1
    2250:	94 80 0e ac 	ac0e8094 ldi.l $r0,$r29,148
    2254:	23 08 34 00 	00340823 call 208c <__malloc_unlock>
    2258:	cc 80 0e ac 	ac0e80cc ldi.l $r0,$r29,204
    225c:	80 40 00 44 	44004080 add.l $r0,$r0,8
    2260:	24 0b 30 00 	00300b24 jmp 2c90 <_realloc_r+0xbf0>
    2264:	f0 80 1e ac 	ac1e80f0 ldi.l $r1,$r29,240
    2268:	f8 80 0e ac 	ac0e80f8 ldi.l $r0,$r29,248
    226c:	00 80 00 44 	44008000 add.l $r0,$r1,$r0
    2270:	00 40 10 44 	44104000 move.l $r1,$r0
    2274:	c4 80 0e ac 	ac0e80c4 ldi.l $r0,$r29,196
    2278:	02 80 e0 5d 	5de08002 cmp.l $r1,$r0
    227c:	b6 08 20 01 	012008b6 jmpc lt,22d8 <_realloc_r+0x238>
    2280:	f4 80 0e ac 	ac0e80f4 ldi.l $r0,$r29,244
    2284:	0c 00 00 ac 	ac00000c ldi.l $r0,$r0,12
    2288:	c0 00 d0 b5 	b5d000c0 sti.l $r29,192,$r0
    228c:	f4 80 0e ac 	ac0e80f4 ldi.l $r0,$r29,244
    2290:	08 00 00 ac 	ac000008 ldi.l $r0,$r0,8
    2294:	bc 00 d0 b5 	b5d000bc sti.l $r29,188,$r0
    2298:	bc 80 0e ac 	ac0e80bc ldi.l $r0,$r29,188
    229c:	c0 80 1e ac 	ac1e80c0 ldi.l $r1,$r29,192
    22a0:	0c 80 00 b4 	b400800c sti.l $r0,12,$r1
    22a4:	c0 80 0e ac 	ac0e80c0 ldi.l $r0,$r29,192
    22a8:	bc 80 1e ac 	ac1e80bc ldi.l $r1,$r29,188
    22ac:	08 80 00 b4 	b4008008 sti.l $r0,8,$r1
    22b0:	f8 80 1e ac 	ac1e80f8 ldi.l $r1,$r29,248
    22b4:	f0 80 0e ac 	ac0e80f0 ldi.l $r0,$r29,240
    22b8:	00 80 00 44 	44008000 add.l $r0,$r1,$r0
    22bc:	f8 00 d0 b5 	b5d000f8 sti.l $r29,248,$r0
    22c0:	eb 0a 30 00 	00300aeb jmp 2bac <_realloc_r+0xb0c>
    22c4:	00 00 00 64 	64000000 ldk.l $r0,0
    22c8:	f4 00 d0 b5 	b5d000f4 sti.l $r29,244,$r0
    22cc:	00 00 00 64 	64000000 ldk.l $r0,0
    22d0:	f0 00 d0 b5 	b5d000f0 sti.l $r29,240,$r0
    22d4:	b7 08 30 00 	003008b7 jmp 22dc <_realloc_r+0x23c>
    22d8:	00 40 00 40 	40004000 nop 
    22dc:	cc 80 0e ac 	ac0e80cc ldi.l $r0,$r29,204
    22e0:	04 00 00 ac 	ac000004 ldi.l $r0,$r0,4
    22e4:	14 40 00 44 	44004014 and.l $r0,$r0,1
    22e8:	02 40 e0 5d 	5de04002 cmp.l $r0,0
    22ec:	68 0a 20 00 	00200a68 jmpc nz,29a0 <_realloc_r+0x900>
    22f0:	cc 80 0e ac 	ac0e80cc ldi.l $r0,$r29,204
    22f4:	00 00 00 ac 	ac000000 ldi.l $r0,$r0,0
    22f8:	00 00 10 64 	64100000 ldk.l $r1,0
    22fc:	02 80 00 44 	44008002 sub.l $r0,$r1,$r0
    2300:	cc 80 1e ac 	ac1e80cc ldi.l $r1,$r29,204
    2304:	00 80 00 44 	44008000 add.l $r0,$r1,$r0
    2308:	b8 00 d0 b5 	b5d000b8 sti.l $r29,184,$r0
    230c:	b8 80 0e ac 	ac0e80b8 ldi.l $r0,$r29,184
    2310:	04 00 00 ac 	ac000004 ldi.l $r0,$r0,4
    2314:	0b 44 00 44 	4400440b bins.l $r0,$r0,64
    2318:	b4 00 d0 b5 	b5d000b4 sti.l $r29,180,$r0
    231c:	f4 80 0e ac 	ac0e80f4 ldi.l $r0,$r29,244
    2320:	02 40 e0 5d 	5de04002 cmp.l $r0,0
    2324:	ec 09 28 00 	002809ec jmpc z,27b0 <_realloc_r+0x710>
    2328:	28 04 00 64 	64000428 ldk.l $r0,1064
    232c:	08 00 00 ac 	ac000008 ldi.l $r0,$r0,8
    2330:	f4 80 1e ac 	ac1e80f4 ldi.l $r1,$r29,244
    2334:	02 80 e0 5d 	5de08002 cmp.l $r1,$r0
    2338:	63 09 20 00 	00200963 jmpc nz,258c <_realloc_r+0x4ec>
    233c:	f0 80 1e ac 	ac1e80f0 ldi.l $r1,$r29,240
    2340:	b4 80 0e ac 	ac0e80b4 ldi.l $r0,$r29,180
    2344:	00 80 10 44 	44108000 add.l $r1,$r1,$r0
    2348:	f8 80 0e ac 	ac0e80f8 ldi.l $r0,$r29,248
    234c:	00 80 00 44 	44008000 add.l $r0,$r1,$r0
    2350:	00 40 10 44 	44104000 move.l $r1,$r0
    2354:	c4 80 0e ac 	ac0e80c4 ldi.l $r0,$r29,196
    2358:	00 41 00 44 	44004100 add.l $r0,$r0,16
    235c:	02 80 e0 5d 	5de08002 cmp.l $r1,$r0
    2360:	ec 09 20 01 	012009ec jmpc lt,27b0 <_realloc_r+0x710>
    2364:	b8 80 0e ac 	ac0e80b8 ldi.l $r0,$r29,184
    2368:	0c 00 00 ac 	ac00000c ldi.l $r0,$r0,12
    236c:	c0 00 d0 b5 	b5d000c0 sti.l $r29,192,$r0
    2370:	b8 80 0e ac 	ac0e80b8 ldi.l $r0,$r29,184
    2374:	08 00 00 ac 	ac000008 ldi.l $r0,$r0,8
    2378:	bc 00 d0 b5 	b5d000bc sti.l $r29,188,$r0
    237c:	bc 80 0e ac 	ac0e80bc ldi.l $r0,$r29,188
    2380:	c0 80 1e ac 	ac1e80c0 ldi.l $r1,$r29,192
    2384:	0c 80 00 b4 	b400800c sti.l $r0,12,$r1
    2388:	c0 80 0e ac 	ac0e80c0 ldi.l $r0,$r29,192
    238c:	bc 80 1e ac 	ac1e80bc ldi.l $r1,$r29,188
    2390:	08 80 00 b4 	b4008008 sti.l $r0,8,$r1
    2394:	b8 80 0e ac 	ac0e80b8 ldi.l $r0,$r29,184
    2398:	fc 00 d0 b5 	b5d000fc sti.l $r29,252,$r0
    239c:	b4 80 1e ac 	ac1e80b4 ldi.l $r1,$r29,180
    23a0:	f0 80 0e ac 	ac0e80f0 ldi.l $r0,$r29,240
    23a4:	00 80 00 44 	44008000 add.l $r0,$r1,$r0
    23a8:	f8 80 1e ac 	ac1e80f8 ldi.l $r1,$r29,248
    23ac:	00 80 00 44 	44008000 add.l $r0,$r1,$r0
    23b0:	f8 00 d0 b5 	b5d000f8 sti.l $r29,248,$r0
    23b4:	fc 80 0e ac 	ac0e80fc ldi.l $r0,$r29,252
    23b8:	80 40 00 44 	44004080 add.l $r0,$r0,8
    23bc:	b0 00 d0 b5 	b5d000b0 sti.l $r29,176,$r0
    23c0:	c8 80 0e ac 	ac0e80c8 ldi.l $r0,$r29,200
    23c4:	c0 7f 00 44 	44007fc0 add.l $r0,$r0,-4
    23c8:	a8 00 d0 b5 	b5d000a8 sti.l $r29,168,$r0
    23cc:	a8 80 0e ac 	ac0e80a8 ldi.l $r0,$r29,168
    23d0:	42 42 e0 5d 	5de04242 cmp.l $r0,36
    23d4:	48 09 a8 01 	01a80948 jmpc a,2520 <_realloc_r+0x480>
    23d8:	90 80 0e ac 	ac0e8090 ldi.l $r0,$r29,144
    23dc:	ec 00 d0 b5 	b5d000ec sti.l $r29,236,$r0
    23e0:	b0 80 0e ac 	ac0e80b0 ldi.l $r0,$r29,176
    23e4:	e8 00 d0 b5 	b5d000e8 sti.l $r29,232,$r0
    23e8:	a8 80 0e ac 	ac0e80a8 ldi.l $r0,$r29,168
    23ec:	32 41 e0 5d 	5de04132 cmp.l $r0,19
    23f0:	33 09 a0 01 	01a00933 jmpc be,24cc <_realloc_r+0x42c>
    23f4:	ec 80 1e ac 	ac1e80ec ldi.l $r1,$r29,236
    23f8:	40 c0 00 44 	4400c040 add.l $r0,$r1,4
    23fc:	ec 00 d0 b5 	b5d000ec sti.l $r29,236,$r0
    2400:	e8 80 0e ac 	ac0e80e8 ldi.l $r0,$r29,232
    2404:	40 40 20 44 	44204040 add.l $r2,$r0,4
    2408:	e8 00 d1 b5 	b5d100e8 sti.l $r29,232,$r2
    240c:	00 80 10 ac 	ac108000 ldi.l $r1,$r1,0
    2410:	00 80 00 b4 	b4008000 sti.l $r0,0,$r1
    2414:	ec 80 1e ac 	ac1e80ec ldi.l $r1,$r29,236
    2418:	40 c0 00 44 	4400c040 add.l $r0,$r1,4
    241c:	ec 00 d0 b5 	b5d000ec sti.l $r29,236,$r0
    2420:	e8 80 0e ac 	ac0e80e8 ldi.l $r0,$r29,232
    2424:	40 40 20 44 	44204040 add.l $r2,$r0,4
    2428:	e8 00 d1 b5 	b5d100e8 sti.l $r29,232,$r2
    242c:	00 80 10 ac 	ac108000 ldi.l $r1,$r1,0
    2430:	00 80 00 b4 	b4008000 sti.l $r0,0,$r1
    2434:	a8 80 0e ac 	ac0e80a8 ldi.l $r0,$r29,168
    2438:	b2 41 e0 5d 	5de041b2 cmp.l $r0,27
    243c:	33 09 a0 01 	01a00933 jmpc be,24cc <_realloc_r+0x42c>
    2440:	ec 80 1e ac 	ac1e80ec ldi.l $r1,$r29,236
    2444:	40 c0 00 44 	4400c040 add.l $r0,$r1,4
    2448:	ec 00 d0 b5 	b5d000ec sti.l $r29,236,$r0
    244c:	e8 80 0e ac 	ac0e80e8 ldi.l $r0,$r29,232
    2450:	40 40 20 44 	44204040 add.l $r2,$r0,4
    2454:	e8 00 d1 b5 	b5d100e8 sti.l $r29,232,$r2
    2458:	00 80 10 ac 	ac108000 ldi.l $r1,$r1,0
    245c:	00 80 00 b4 	b4008000 sti.l $r0,0,$r1
    2460:	ec 80 1e ac 	ac1e80ec ldi.l $r1,$r29,236
    2464:	40 c0 00 44 	4400c040 add.l $r0,$r1,4
    2468:	ec 00 d0 b5 	b5d000ec sti.l $r29,236,$r0
    246c:	e8 80 0e ac 	ac0e80e8 ldi.l $r0,$r29,232
    2470:	40 40 20 44 	44204040 add.l $r2,$r0,4
    2474:	e8 00 d1 b5 	b5d100e8 sti.l $r29,232,$r2
    2478:	00 80 10 ac 	ac108000 ldi.l $r1,$r1,0
    247c:	00 80 00 b4 	b4008000 sti.l $r0,0,$r1
    2480:	a8 80 0e ac 	ac0e80a8 ldi.l $r0,$r29,168
    2484:	32 42 e0 5d 	5de04232 cmp.l $r0,35
    2488:	33 09 a0 01 	01a00933 jmpc be,24cc <_realloc_r+0x42c>
    248c:	ec 80 1e ac 	ac1e80ec ldi.l $r1,$r29,236
    2490:	40 c0 00 44 	4400c040 add.l $r0,$r1,4
    2494:	ec 00 d0 b5 	b5d000ec sti.l $r29,236,$r0
    2498:	e8 80 0e ac 	ac0e80e8 ldi.l $r0,$r29,232
    249c:	40 40 20 44 	44204040 add.l $r2,$r0,4
    24a0:	e8 00 d1 b5 	b5d100e8 sti.l $r29,232,$r2
    24a4:	00 80 10 ac 	ac108000 ldi.l $r1,$r1,0
    24a8:	00 80 00 b4 	b4008000 sti.l $r0,0,$r1
    24ac:	ec 80 1e ac 	ac1e80ec ldi.l $r1,$r29,236
    24b0:	40 c0 00 44 	4400c040 add.l $r0,$r1,4
    24b4:	ec 00 d0 b5 	b5d000ec sti.l $r29,236,$r0
    24b8:	e8 80 0e ac 	ac0e80e8 ldi.l $r0,$r29,232
    24bc:	40 40 20 44 	44204040 add.l $r2,$r0,4
    24c0:	e8 00 d1 b5 	b5d100e8 sti.l $r29,232,$r2
    24c4:	00 80 10 ac 	ac108000 ldi.l $r1,$r1,0
    24c8:	00 80 00 b4 	b4008000 sti.l $r0,0,$r1
    24cc:	ec 80 1e ac 	ac1e80ec ldi.l $r1,$r29,236
    24d0:	40 c0 00 44 	4400c040 add.l $r0,$r1,4
    24d4:	ec 00 d0 b5 	b5d000ec sti.l $r29,236,$r0
    24d8:	e8 80 0e ac 	ac0e80e8 ldi.l $r0,$r29,232
    24dc:	40 40 20 44 	44204040 add.l $r2,$r0,4
    24e0:	e8 00 d1 b5 	b5d100e8 sti.l $r29,232,$r2
    24e4:	00 80 10 ac 	ac108000 ldi.l $r1,$r1,0
    24e8:	00 80 00 b4 	b4008000 sti.l $r0,0,$r1
    24ec:	ec 80 1e ac 	ac1e80ec ldi.l $r1,$r29,236
    24f0:	40 c0 00 44 	4400c040 add.l $r0,$r1,4
    24f4:	ec 00 d0 b5 	b5d000ec sti.l $r29,236,$r0
    24f8:	e8 80 0e ac 	ac0e80e8 ldi.l $r0,$r29,232
    24fc:	40 40 20 44 	44204040 add.l $r2,$r0,4
    2500:	e8 00 d1 b5 	b5d100e8 sti.l $r29,232,$r2
    2504:	00 80 10 ac 	ac108000 ldi.l $r1,$r1,0
    2508:	00 80 00 b4 	b4008000 sti.l $r0,0,$r1
    250c:	ec 80 0e ac 	ac0e80ec ldi.l $r0,$r29,236
    2510:	00 00 10 ac 	ac100000 ldi.l $r1,$r0,0
    2514:	e8 80 0e ac 	ac0e80e8 ldi.l $r0,$r29,232
    2518:	00 80 00 b4 	b4008000 sti.l $r0,0,$r1
    251c:	4c 09 30 00 	0030094c jmp 2530 <_realloc_r+0x490>
    2520:	a8 80 2e ac 	ac2e80a8 ldi.l $r2,$r29,168
    2524:	90 80 1e ac 	ac1e8090 ldi.l $r1,$r29,144
    2528:	b0 80 0e ac 	ac0e80b0 ldi.l $r0,$r29,176
    252c:	c9 07 34 00 	003407c9 call 1f24 <memmove>
    2530:	28 04 00 64 	64000428 ldk.l $r0,1064
    2534:	fc 80 2e ac 	ac2e80fc ldi.l $r2,$r29,252
    2538:	c4 80 1e ac 	ac1e80c4 ldi.l $r1,$r29,196
    253c:	10 00 11 44 	44110010 add.l $r1,$r2,$r1
    2540:	08 80 00 b4 	b4008008 sti.l $r0,8,$r1
    2544:	f8 80 1e ac 	ac1e80f8 ldi.l $r1,$r29,248
    2548:	c4 80 0e ac 	ac0e80c4 ldi.l $r0,$r29,196
    254c:	02 80 10 44 	44108002 sub.l $r1,$r1,$r0
    2550:	28 04 00 64 	64000428 ldk.l $r0,1064
    2554:	08 00 00 ac 	ac000008 ldi.l $r0,$r0,8
    2558:	0b e2 10 44 	4410e20b bins.l $r1,$r1,-480
    255c:	04 80 00 b4 	b4008004 sti.l $r0,4,$r1
    2560:	fc 80 0e ac 	ac0e80fc ldi.l $r0,$r29,252
    2564:	04 00 00 ac 	ac000004 ldi.l $r0,$r0,4
    2568:	14 40 00 44 	44004014 and.l $r0,$r0,1
    256c:	c4 80 2e ac 	ac2e80c4 ldi.l $r2,$r29,196
    2570:	25 00 10 44 	44100025 or.l $r1,$r0,$r2
    2574:	fc 80 0e ac 	ac0e80fc ldi.l $r0,$r29,252
    2578:	04 80 00 b4 	b4008004 sti.l $r0,4,$r1
    257c:	94 80 0e ac 	ac0e8094 ldi.l $r0,$r29,148
    2580:	23 08 34 00 	00340823 call 208c <__malloc_unlock>
    2584:	b0 80 0e ac 	ac0e80b0 ldi.l $r0,$r29,176
    2588:	24 0b 30 00 	00300b24 jmp 2c90 <_realloc_r+0xbf0>
    258c:	f0 80 1e ac 	ac1e80f0 ldi.l $r1,$r29,240
    2590:	b4 80 0e ac 	ac0e80b4 ldi.l $r0,$r29,180
    2594:	00 80 10 44 	44108000 add.l $r1,$r1,$r0
    2598:	f8 80 0e ac 	ac0e80f8 ldi.l $r0,$r29,248
    259c:	00 80 00 44 	44008000 add.l $r0,$r1,$r0
    25a0:	00 40 10 44 	44104000 move.l $r1,$r0
    25a4:	c4 80 0e ac 	ac0e80c4 ldi.l $r0,$r29,196
    25a8:	02 80 e0 5d 	5de08002 cmp.l $r1,$r0
    25ac:	ec 09 20 01 	012009ec jmpc lt,27b0 <_realloc_r+0x710>
    25b0:	f4 80 0e ac 	ac0e80f4 ldi.l $r0,$r29,244
    25b4:	0c 00 00 ac 	ac00000c ldi.l $r0,$r0,12
    25b8:	c0 00 d0 b5 	b5d000c0 sti.l $r29,192,$r0
    25bc:	f4 80 0e ac 	ac0e80f4 ldi.l $r0,$r29,244
    25c0:	08 00 00 ac 	ac000008 ldi.l $r0,$r0,8
    25c4:	bc 00 d0 b5 	b5d000bc sti.l $r29,188,$r0
    25c8:	bc 80 0e ac 	ac0e80bc ldi.l $r0,$r29,188
    25cc:	c0 80 1e ac 	ac1e80c0 ldi.l $r1,$r29,192
    25d0:	0c 80 00 b4 	b400800c sti.l $r0,12,$r1
    25d4:	c0 80 0e ac 	ac0e80c0 ldi.l $r0,$r29,192
    25d8:	bc 80 1e ac 	ac1e80bc ldi.l $r1,$r29,188
    25dc:	08 80 00 b4 	b4008008 sti.l $r0,8,$r1
    25e0:	b8 80 0e ac 	ac0e80b8 ldi.l $r0,$r29,184
    25e4:	0c 00 00 ac 	ac00000c ldi.l $r0,$r0,12
    25e8:	c0 00 d0 b5 	b5d000c0 sti.l $r29,192,$r0
    25ec:	b8 80 0e ac 	ac0e80b8 ldi.l $r0,$r29,184
    25f0:	08 00 00 ac 	ac000008 ldi.l $r0,$r0,8
    25f4:	bc 00 d0 b5 	b5d000bc sti.l $r29,188,$r0
    25f8:	bc 80 0e ac 	ac0e80bc ldi.l $r0,$r29,188
    25fc:	c0 80 1e ac 	ac1e80c0 ldi.l $r1,$r29,192
    2600:	0c 80 00 b4 	b400800c sti.l $r0,12,$r1
    2604:	c0 80 0e ac 	ac0e80c0 ldi.l $r0,$r29,192
    2608:	bc 80 1e ac 	ac1e80bc ldi.l $r1,$r29,188
    260c:	08 80 00 b4 	b4008008 sti.l $r0,8,$r1
    2610:	b8 80 0e ac 	ac0e80b8 ldi.l $r0,$r29,184
    2614:	fc 00 d0 b5 	b5d000fc sti.l $r29,252,$r0
    2618:	f0 80 1e ac 	ac1e80f0 ldi.l $r1,$r29,240
    261c:	b4 80 0e ac 	ac0e80b4 ldi.l $r0,$r29,180
    2620:	00 80 00 44 	44008000 add.l $r0,$r1,$r0
    2624:	f8 80 1e ac 	ac1e80f8 ldi.l $r1,$r29,248
    2628:	00 80 00 44 	44008000 add.l $r0,$r1,$r0
    262c:	f8 00 d0 b5 	b5d000f8 sti.l $r29,248,$r0
    2630:	fc 80 0e ac 	ac0e80fc ldi.l $r0,$r29,252
    2634:	80 40 00 44 	44004080 add.l $r0,$r0,8
    2638:	b0 00 d0 b5 	b5d000b0 sti.l $r29,176,$r0
    263c:	c8 80 0e ac 	ac0e80c8 ldi.l $r0,$r29,200
    2640:	c0 7f 00 44 	44007fc0 add.l $r0,$r0,-4
    2644:	ac 00 d0 b5 	b5d000ac sti.l $r29,172,$r0
    2648:	ac 80 0e ac 	ac0e80ac ldi.l $r0,$r29,172
    264c:	42 42 e0 5d 	5de04242 cmp.l $r0,36
    2650:	e7 09 a8 01 	01a809e7 jmpc a,279c <_realloc_r+0x6fc>
    2654:	90 80 0e ac 	ac0e8090 ldi.l $r0,$r29,144
    2658:	e4 00 d0 b5 	b5d000e4 sti.l $r29,228,$r0
    265c:	b0 80 0e ac 	ac0e80b0 ldi.l $r0,$r29,176
    2660:	e0 00 d0 b5 	b5d000e0 sti.l $r29,224,$r0
    2664:	ac 80 0e ac 	ac0e80ac ldi.l $r0,$r29,172
    2668:	32 41 e0 5d 	5de04132 cmp.l $r0,19
    266c:	d2 09 a0 01 	01a009d2 jmpc be,2748 <_realloc_r+0x6a8>
    2670:	e4 80 1e ac 	ac1e80e4 ldi.l $r1,$r29,228
    2674:	40 c0 00 44 	4400c040 add.l $r0,$r1,4
    2678:	e4 00 d0 b5 	b5d000e4 sti.l $r29,228,$r0
    267c:	e0 80 0e ac 	ac0e80e0 ldi.l $r0,$r29,224
    2680:	40 40 20 44 	44204040 add.l $r2,$r0,4
    2684:	e0 00 d1 b5 	b5d100e0 sti.l $r29,224,$r2
    2688:	00 80 10 ac 	ac108000 ldi.l $r1,$r1,0
    268c:	00 80 00 b4 	b4008000 sti.l $r0,0,$r1
    2690:	e4 80 1e ac 	ac1e80e4 ldi.l $r1,$r29,228
    2694:	40 c0 00 44 	4400c040 add.l $r0,$r1,4
    2698:	e4 00 d0 b5 	b5d000e4 sti.l $r29,228,$r0
    269c:	e0 80 0e ac 	ac0e80e0 ldi.l $r0,$r29,224
    26a0:	40 40 20 44 	44204040 add.l $r2,$r0,4
    26a4:	e0 00 d1 b5 	b5d100e0 sti.l $r29,224,$r2
    26a8:	00 80 10 ac 	ac108000 ldi.l $r1,$r1,0
    26ac:	00 80 00 b4 	b4008000 sti.l $r0,0,$r1
    26b0:	ac 80 0e ac 	ac0e80ac ldi.l $r0,$r29,172
    26b4:	b2 41 e0 5d 	5de041b2 cmp.l $r0,27
    26b8:	d2 09 a0 01 	01a009d2 jmpc be,2748 <_realloc_r+0x6a8>
    26bc:	e4 80 1e ac 	ac1e80e4 ldi.l $r1,$r29,228
    26c0:	40 c0 00 44 	4400c040 add.l $r0,$r1,4
    26c4:	e4 00 d0 b5 	b5d000e4 sti.l $r29,228,$r0
    26c8:	e0 80 0e ac 	ac0e80e0 ldi.l $r0,$r29,224
    26cc:	40 40 20 44 	44204040 add.l $r2,$r0,4
    26d0:	e0 00 d1 b5 	b5d100e0 sti.l $r29,224,$r2
    26d4:	00 80 10 ac 	ac108000 ldi.l $r1,$r1,0
    26d8:	00 80 00 b4 	b4008000 sti.l $r0,0,$r1
    26dc:	e4 80 1e ac 	ac1e80e4 ldi.l $r1,$r29,228
    26e0:	40 c0 00 44 	4400c040 add.l $r0,$r1,4
    26e4:	e4 00 d0 b5 	b5d000e4 sti.l $r29,228,$r0
    26e8:	e0 80 0e ac 	ac0e80e0 ldi.l $r0,$r29,224
    26ec:	40 40 20 44 	44204040 add.l $r2,$r0,4
    26f0:	e0 00 d1 b5 	b5d100e0 sti.l $r29,224,$r2
    26f4:	00 80 10 ac 	ac108000 ldi.l $r1,$r1,0
    26f8:	00 80 00 b4 	b4008000 sti.l $r0,0,$r1
    26fc:	ac 80 0e ac 	ac0e80ac ldi.l $r0,$r29,172
    2700:	32 42 e0 5d 	5de04232 cmp.l $r0,35
    2704:	d2 09 a0 01 	01a009d2 jmpc be,2748 <_realloc_r+0x6a8>
    2708:	e4 80 1e ac 	ac1e80e4 ldi.l $r1,$r29,228
    270c:	40 c0 00 44 	4400c040 add.l $r0,$r1,4
    2710:	e4 00 d0 b5 	b5d000e4 sti.l $r29,228,$r0
    2714:	e0 80 0e ac 	ac0e80e0 ldi.l $r0,$r29,224
    2718:	40 40 20 44 	44204040 add.l $r2,$r0,4
    271c:	e0 00 d1 b5 	b5d100e0 sti.l $r29,224,$r2
    2720:	00 80 10 ac 	ac108000 ldi.l $r1,$r1,0
    2724:	00 80 00 b4 	b4008000 sti.l $r0,0,$r1
    2728:	e4 80 1e ac 	ac1e80e4 ldi.l $r1,$r29,228
    272c:	40 c0 00 44 	4400c040 add.l $r0,$r1,4
    2730:	e4 00 d0 b5 	b5d000e4 sti.l $r29,228,$r0
    2734:	e0 80 0e ac 	ac0e80e0 ldi.l $r0,$r29,224
    2738:	40 40 20 44 	44204040 add.l $r2,$r0,4
    273c:	e0 00 d1 b5 	b5d100e0 sti.l $r29,224,$r2
    2740:	00 80 10 ac 	ac108000 ldi.l $r1,$r1,0
    2744:	00 80 00 b4 	b4008000 sti.l $r0,0,$r1
    2748:	e4 80 1e ac 	ac1e80e4 ldi.l $r1,$r29,228
    274c:	40 c0 00 44 	4400c040 add.l $r0,$r1,4
    2750:	e4 00 d0 b5 	b5d000e4 sti.l $r29,228,$r0
    2754:	e0 80 0e ac 	ac0e80e0 ldi.l $r0,$r29,224
    2758:	40 40 20 44 	44204040 add.l $r2,$r0,4
    275c:	e0 00 d1 b5 	b5d100e0 sti.l $r29,224,$r2
    2760:	00 80 10 ac 	ac108000 ldi.l $r1,$r1,0
    2764:	00 80 00 b4 	b4008000 sti.l $r0,0,$r1
    2768:	e4 80 1e ac 	ac1e80e4 ldi.l $r1,$r29,228
    276c:	40 c0 00 44 	4400c040 add.l $r0,$r1,4
    2770:	e4 00 d0 b5 	b5d000e4 sti.l $r29,228,$r0
    2774:	e0 80 0e ac 	ac0e80e0 ldi.l $r0,$r29,224
    2778:	40 40 20 44 	44204040 add.l $r2,$r0,4
    277c:	e0 00 d1 b5 	b5d100e0 sti.l $r29,224,$r2
    2780:	00 80 10 ac 	ac108000 ldi.l $r1,$r1,0
    2784:	00 80 00 b4 	b4008000 sti.l $r0,0,$r1
    2788:	e4 80 0e ac 	ac0e80e4 ldi.l $r0,$r29,228
    278c:	00 00 10 ac 	ac100000 ldi.l $r1,$r0,0
    2790:	e0 80 0e ac 	ac0e80e0 ldi.l $r0,$r29,224
    2794:	00 80 00 b4 	b4008000 sti.l $r0,0,$r1
    2798:	eb 0a 30 00 	00300aeb jmp 2bac <_realloc_r+0xb0c>
    279c:	ac 80 2e ac 	ac2e80ac ldi.l $r2,$r29,172
    27a0:	90 80 1e ac 	ac1e8090 ldi.l $r1,$r29,144
    27a4:	b0 80 0e ac 	ac0e80b0 ldi.l $r0,$r29,176
    27a8:	c9 07 34 00 	003407c9 call 1f24 <memmove>
    27ac:	eb 0a 30 00 	00300aeb jmp 2bac <_realloc_r+0xb0c>
    27b0:	b8 80 0e ac 	ac0e80b8 ldi.l $r0,$r29,184
    27b4:	02 40 e0 5d 	5de04002 cmp.l $r0,0
    27b8:	68 0a 28 00 	00280a68 jmpc z,29a0 <_realloc_r+0x900>
    27bc:	b4 80 1e ac 	ac1e80b4 ldi.l $r1,$r29,180
    27c0:	f8 80 0e ac 	ac0e80f8 ldi.l $r0,$r29,248
    27c4:	00 80 00 44 	44008000 add.l $r0,$r1,$r0
    27c8:	00 40 10 44 	44104000 move.l $r1,$r0
    27cc:	c4 80 0e ac 	ac0e80c4 ldi.l $r0,$r29,196
    27d0:	02 80 e0 5d 	5de08002 cmp.l $r1,$r0
    27d4:	68 0a 20 01 	01200a68 jmpc lt,29a0 <_realloc_r+0x900>
    27d8:	b8 80 0e ac 	ac0e80b8 ldi.l $r0,$r29,184
    27dc:	0c 00 00 ac 	ac00000c ldi.l $r0,$r0,12
    27e0:	c0 00 d0 b5 	b5d000c0 sti.l $r29,192,$r0
    27e4:	b8 80 0e ac 	ac0e80b8 ldi.l $r0,$r29,184
    27e8:	08 00 00 ac 	ac000008 ldi.l $r0,$r0,8
    27ec:	bc 00 d0 b5 	b5d000bc sti.l $r29,188,$r0
    27f0:	bc 80 0e ac 	ac0e80bc ldi.l $r0,$r29,188
    27f4:	c0 80 1e ac 	ac1e80c0 ldi.l $r1,$r29,192
    27f8:	0c 80 00 b4 	b400800c sti.l $r0,12,$r1
    27fc:	c0 80 0e ac 	ac0e80c0 ldi.l $r0,$r29,192
    2800:	bc 80 1e ac 	ac1e80bc ldi.l $r1,$r29,188
    2804:	08 80 00 b4 	b4008008 sti.l $r0,8,$r1
    2808:	b8 80 0e ac 	ac0e80b8 ldi.l $r0,$r29,184
    280c:	fc 00 d0 b5 	b5d000fc sti.l $r29,252,$r0
    2810:	f8 80 1e ac 	ac1e80f8 ldi.l $r1,$r29,248
    2814:	b4 80 0e ac 	ac0e80b4 ldi.l $r0,$r29,180
    2818:	00 80 00 44 	44008000 add.l $r0,$r1,$r0
    281c:	f8 00 d0 b5 	b5d000f8 sti.l $r29,248,$r0
    2820:	fc 80 0e ac 	ac0e80fc ldi.l $r0,$r29,252
    2824:	80 40 00 44 	44004080 add.l $r0,$r0,8
    2828:	b0 00 d0 b5 	b5d000b0 sti.l $r29,176,$r0
    282c:	c8 80 0e ac 	ac0e80c8 ldi.l $r0,$r29,200
    2830:	c0 7f 00 44 	44007fc0 add.l $r0,$r0,-4
    2834:	a4 00 d0 b5 	b5d000a4 sti.l $r29,164,$r0
    2838:	a4 80 0e ac 	ac0e80a4 ldi.l $r0,$r29,164
    283c:	42 42 e0 5d 	5de04242 cmp.l $r0,36
    2840:	63 0a a8 01 	01a80a63 jmpc a,298c <_realloc_r+0x8ec>
    2844:	90 80 0e ac 	ac0e8090 ldi.l $r0,$r29,144
    2848:	dc 00 d0 b5 	b5d000dc sti.l $r29,220,$r0
    284c:	b0 80 0e ac 	ac0e80b0 ldi.l $r0,$r29,176
    2850:	d8 00 d0 b5 	b5d000d8 sti.l $r29,216,$r0
    2854:	a4 80 0e ac 	ac0e80a4 ldi.l $r0,$r29,164
    2858:	32 41 e0 5d 	5de04132 cmp.l $r0,19
    285c:	4e 0a a0 01 	01a00a4e jmpc be,2938 <_realloc_r+0x898>
    2860:	dc 80 1e ac 	ac1e80dc ldi.l $r1,$r29,220
    2864:	40 c0 00 44 	4400c040 add.l $r0,$r1,4
    2868:	dc 00 d0 b5 	b5d000dc sti.l $r29,220,$r0
    286c:	d8 80 0e ac 	ac0e80d8 ldi.l $r0,$r29,216
    2870:	40 40 20 44 	44204040 add.l $r2,$r0,4
    2874:	d8 00 d1 b5 	b5d100d8 sti.l $r29,216,$r2
    2878:	00 80 10 ac 	ac108000 ldi.l $r1,$r1,0
    287c:	00 80 00 b4 	b4008000 sti.l $r0,0,$r1
    2880:	dc 80 1e ac 	ac1e80dc ldi.l $r1,$r29,220
    2884:	40 c0 00 44 	4400c040 add.l $r0,$r1,4
    2888:	dc 00 d0 b5 	b5d000dc sti.l $r29,220,$r0
    288c:	d8 80 0e ac 	ac0e80d8 ldi.l $r0,$r29,216
    2890:	40 40 20 44 	44204040 add.l $r2,$r0,4
    2894:	d8 00 d1 b5 	b5d100d8 sti.l $r29,216,$r2
    2898:	00 80 10 ac 	ac108000 ldi.l $r1,$r1,0
    289c:	00 80 00 b4 	b4008000 sti.l $r0,0,$r1
    28a0:	a4 80 0e ac 	ac0e80a4 ldi.l $r0,$r29,164
    28a4:	b2 41 e0 5d 	5de041b2 cmp.l $r0,27
    28a8:	4e 0a a0 01 	01a00a4e jmpc be,2938 <_realloc_r+0x898>
    28ac:	dc 80 1e ac 	ac1e80dc ldi.l $r1,$r29,220
    28b0:	40 c0 00 44 	4400c040 add.l $r0,$r1,4
    28b4:	dc 00 d0 b5 	b5d000dc sti.l $r29,220,$r0
    28b8:	d8 80 0e ac 	ac0e80d8 ldi.l $r0,$r29,216
    28bc:	40 40 20 44 	44204040 add.l $r2,$r0,4
    28c0:	d8 00 d1 b5 	b5d100d8 sti.l $r29,216,$r2
    28c4:	00 80 10 ac 	ac108000 ldi.l $r1,$r1,0
    28c8:	00 80 00 b4 	b4008000 sti.l $r0,0,$r1
    28cc:	dc 80 1e ac 	ac1e80dc ldi.l $r1,$r29,220
    28d0:	40 c0 00 44 	4400c040 add.l $r0,$r1,4
    28d4:	dc 00 d0 b5 	b5d000dc sti.l $r29,220,$r0
    28d8:	d8 80 0e ac 	ac0e80d8 ldi.l $r0,$r29,216
    28dc:	40 40 20 44 	44204040 add.l $r2,$r0,4
    28e0:	d8 00 d1 b5 	b5d100d8 sti.l $r29,216,$r2
    28e4:	00 80 10 ac 	ac108000 ldi.l $r1,$r1,0
    28e8:	00 80 00 b4 	b4008000 sti.l $r0,0,$r1
    28ec:	a4 80 0e ac 	ac0e80a4 ldi.l $r0,$r29,164
    28f0:	32 42 e0 5d 	5de04232 cmp.l $r0,35
    28f4:	4e 0a a0 01 	01a00a4e jmpc be,2938 <_realloc_r+0x898>
    28f8:	dc 80 1e ac 	ac1e80dc ldi.l $r1,$r29,220
    28fc:	40 c0 00 44 	4400c040 add.l $r0,$r1,4
    2900:	dc 00 d0 b5 	b5d000dc sti.l $r29,220,$r0
    2904:	d8 80 0e ac 	ac0e80d8 ldi.l $r0,$r29,216
    2908:	40 40 20 44 	44204040 add.l $r2,$r0,4
    290c:	d8 00 d1 b5 	b5d100d8 sti.l $r29,216,$r2
    2910:	00 80 10 ac 	ac108000 ldi.l $r1,$r1,0
    2914:	00 80 00 b4 	b4008000 sti.l $r0,0,$r1
    2918:	dc 80 1e ac 	ac1e80dc ldi.l $r1,$r29,220
    291c:	40 c0 00 44 	4400c040 add.l $r0,$r1,4
    2920:	dc 00 d0 b5 	b5d000dc sti.l $r29,220,$r0
    2924:	d8 80 0e ac 	ac0e80d8 ldi.l $r0,$r29,216
    2928:	40 40 20 44 	44204040 add.l $r2,$r0,4
    292c:	d8 00 d1 b5 	b5d100d8 sti.l $r29,216,$r2
    2930:	00 80 10 ac 	ac108000 ldi.l $r1,$r1,0
    2934:	00 80 00 b4 	b4008000 sti.l $r0,0,$r1
    2938:	dc 80 1e ac 	ac1e80dc ldi.l $r1,$r29,220
    293c:	40 c0 00 44 	4400c040 add.l $r0,$r1,4
    2940:	dc 00 d0 b5 	b5d000dc sti.l $r29,220,$r0
    2944:	d8 80 0e ac 	ac0e80d8 ldi.l $r0,$r29,216
    2948:	40 40 20 44 	44204040 add.l $r2,$r0,4
    294c:	d8 00 d1 b5 	b5d100d8 sti.l $r29,216,$r2
    2950:	00 80 10 ac 	ac108000 ldi.l $r1,$r1,0
    2954:	00 80 00 b4 	b4008000 sti.l $r0,0,$r1
    2958:	dc 80 1e ac 	ac1e80dc ldi.l $r1,$r29,220
    295c:	40 c0 00 44 	4400c040 add.l $r0,$r1,4
    2960:	dc 00 d0 b5 	b5d000dc sti.l $r29,220,$r0
    2964:	d8 80 0e ac 	ac0e80d8 ldi.l $r0,$r29,216
    2968:	40 40 20 44 	44204040 add.l $r2,$r0,4
    296c:	d8 00 d1 b5 	b5d100d8 sti.l $r29,216,$r2
    2970:	00 80 10 ac 	ac108000 ldi.l $r1,$r1,0
    2974:	00 80 00 b4 	b4008000 sti.l $r0,0,$r1
    2978:	dc 80 0e ac 	ac0e80dc ldi.l $r0,$r29,220
    297c:	00 00 10 ac 	ac100000 ldi.l $r1,$r0,0
    2980:	d8 80 0e ac 	ac0e80d8 ldi.l $r0,$r29,216
    2984:	00 80 00 b4 	b4008000 sti.l $r0,0,$r1
    2988:	eb 0a 30 00 	00300aeb jmp 2bac <_realloc_r+0xb0c>
    298c:	a4 80 2e ac 	ac2e80a4 ldi.l $r2,$r29,164
    2990:	90 80 1e ac 	ac1e8090 ldi.l $r1,$r29,144
    2994:	b0 80 0e ac 	ac0e80b0 ldi.l $r0,$r29,176
    2998:	c9 07 34 00 	003407c9 call 1f24 <memmove>
    299c:	eb 0a 30 00 	00300aeb jmp 2bac <_realloc_r+0xb0c>
    29a0:	8c 80 1e ac 	ac1e808c ldi.l $r1,$r29,140
    29a4:	94 80 0e ac 	ac0e8094 ldi.l $r0,$r29,148
    29a8:	c8 04 34 00 	003404c8 call 1320 <_malloc_r>
    29ac:	b0 00 d0 b5 	b5d000b0 sti.l $r29,176,$r0
    29b0:	b0 80 0e ac 	ac0e80b0 ldi.l $r0,$r29,176
    29b4:	02 40 e0 5d 	5de04002 cmp.l $r0,0
    29b8:	73 0a 20 00 	00200a73 jmpc nz,29cc <_realloc_r+0x92c>
    29bc:	94 80 0e ac 	ac0e8094 ldi.l $r0,$r29,148
    29c0:	23 08 34 00 	00340823 call 208c <__malloc_unlock>
    29c4:	00 00 00 64 	64000000 ldk.l $r0,0
    29c8:	24 0b 30 00 	00300b24 jmp 2c90 <_realloc_r+0xbf0>
    29cc:	b0 80 0e ac 	ac0e80b0 ldi.l $r0,$r29,176
    29d0:	80 7f 00 44 	44007f80 add.l $r0,$r0,-8
    29d4:	fc 00 d0 b5 	b5d000fc sti.l $r29,252,$r0
    29d8:	cc 80 0e ac 	ac0e80cc ldi.l $r0,$r29,204
    29dc:	04 00 00 ac 	ac000004 ldi.l $r0,$r0,4
    29e0:	0b 42 00 44 	4400420b bins.l $r0,$r0,32
    29e4:	cc 80 1e ac 	ac1e80cc ldi.l $r1,$r29,204
    29e8:	00 80 00 44 	44008000 add.l $r0,$r1,$r0
    29ec:	fc 80 1e ac 	ac1e80fc ldi.l $r1,$r29,252
    29f0:	02 80 e0 5d 	5de08002 cmp.l $r1,$r0
    29f4:	87 0a 20 00 	00200a87 jmpc nz,2a1c <_realloc_r+0x97c>
    29f8:	fc 80 0e ac 	ac0e80fc ldi.l $r0,$r29,252
    29fc:	04 00 00 ac 	ac000004 ldi.l $r0,$r0,4
    2a00:	0b 44 00 44 	4400440b bins.l $r0,$r0,64
    2a04:	f8 80 1e ac 	ac1e80f8 ldi.l $r1,$r29,248
    2a08:	00 80 00 44 	44008000 add.l $r0,$r1,$r0
    2a0c:	f8 00 d0 b5 	b5d000f8 sti.l $r29,248,$r0
    2a10:	cc 80 0e ac 	ac0e80cc ldi.l $r0,$r29,204
    2a14:	fc 00 d0 b5 	b5d000fc sti.l $r29,252,$r0
    2a18:	eb 0a 30 00 	00300aeb jmp 2bac <_realloc_r+0xb0c>
    2a1c:	c8 80 0e ac 	ac0e80c8 ldi.l $r0,$r29,200
    2a20:	c0 7f 00 44 	44007fc0 add.l $r0,$r0,-4
    2a24:	a0 00 d0 b5 	b5d000a0 sti.l $r29,160,$r0
    2a28:	a0 80 0e ac 	ac0e80a0 ldi.l $r0,$r29,160
    2a2c:	42 42 e0 5d 	5de04242 cmp.l $r0,36
    2a30:	df 0a a8 01 	01a80adf jmpc a,2b7c <_realloc_r+0xadc>
    2a34:	90 80 0e ac 	ac0e8090 ldi.l $r0,$r29,144
    2a38:	d4 00 d0 b5 	b5d000d4 sti.l $r29,212,$r0
    2a3c:	b0 80 0e ac 	ac0e80b0 ldi.l $r0,$r29,176
    2a40:	d0 00 d0 b5 	b5d000d0 sti.l $r29,208,$r0
    2a44:	a0 80 0e ac 	ac0e80a0 ldi.l $r0,$r29,160
    2a48:	32 41 e0 5d 	5de04132 cmp.l $r0,19
    2a4c:	ca 0a a0 01 	01a00aca jmpc be,2b28 <_realloc_r+0xa88>
    2a50:	d4 80 1e ac 	ac1e80d4 ldi.l $r1,$r29,212
    2a54:	40 c0 00 44 	4400c040 add.l $r0,$r1,4
    2a58:	d4 00 d0 b5 	b5d000d4 sti.l $r29,212,$r0
    2a5c:	d0 80 0e ac 	ac0e80d0 ldi.l $r0,$r29,208
    2a60:	40 40 20 44 	44204040 add.l $r2,$r0,4
    2a64:	d0 00 d1 b5 	b5d100d0 sti.l $r29,208,$r2
    2a68:	00 80 10 ac 	ac108000 ldi.l $r1,$r1,0
    2a6c:	00 80 00 b4 	b4008000 sti.l $r0,0,$r1
    2a70:	d4 80 1e ac 	ac1e80d4 ldi.l $r1,$r29,212
    2a74:	40 c0 00 44 	4400c040 add.l $r0,$r1,4
    2a78:	d4 00 d0 b5 	b5d000d4 sti.l $r29,212,$r0
    2a7c:	d0 80 0e ac 	ac0e80d0 ldi.l $r0,$r29,208
    2a80:	40 40 20 44 	44204040 add.l $r2,$r0,4
    2a84:	d0 00 d1 b5 	b5d100d0 sti.l $r29,208,$r2
    2a88:	00 80 10 ac 	ac108000 ldi.l $r1,$r1,0
    2a8c:	00 80 00 b4 	b4008000 sti.l $r0,0,$r1
    2a90:	a0 80 0e ac 	ac0e80a0 ldi.l $r0,$r29,160
    2a94:	b2 41 e0 5d 	5de041b2 cmp.l $r0,27
    2a98:	ca 0a a0 01 	01a00aca jmpc be,2b28 <_realloc_r+0xa88>
    2a9c:	d4 80 1e ac 	ac1e80d4 ldi.l $r1,$r29,212
    2aa0:	40 c0 00 44 	4400c040 add.l $r0,$r1,4
    2aa4:	d4 00 d0 b5 	b5d000d4 sti.l $r29,212,$r0
    2aa8:	d0 80 0e ac 	ac0e80d0 ldi.l $r0,$r29,208
    2aac:	40 40 20 44 	44204040 add.l $r2,$r0,4
    2ab0:	d0 00 d1 b5 	b5d100d0 sti.l $r29,208,$r2
    2ab4:	00 80 10 ac 	ac108000 ldi.l $r1,$r1,0
    2ab8:	00 80 00 b4 	b4008000 sti.l $r0,0,$r1
    2abc:	d4 80 1e ac 	ac1e80d4 ldi.l $r1,$r29,212
    2ac0:	40 c0 00 44 	4400c040 add.l $r0,$r1,4
    2ac4:	d4 00 d0 b5 	b5d000d4 sti.l $r29,212,$r0
    2ac8:	d0 80 0e ac 	ac0e80d0 ldi.l $r0,$r29,208
    2acc:	40 40 20 44 	44204040 add.l $r2,$r0,4
    2ad0:	d0 00 d1 b5 	b5d100d0 sti.l $r29,208,$r2
    2ad4:	00 80 10 ac 	ac108000 ldi.l $r1,$r1,0
    2ad8:	00 80 00 b4 	b4008000 sti.l $r0,0,$r1
    2adc:	a0 80 0e ac 	ac0e80a0 ldi.l $r0,$r29,160
    2ae0:	32 42 e0 5d 	5de04232 cmp.l $r0,35
    2ae4:	ca 0a a0 01 	01a00aca jmpc be,2b28 <_realloc_r+0xa88>
    2ae8:	d4 80 1e ac 	ac1e80d4 ldi.l $r1,$r29,212
    2aec:	40 c0 00 44 	4400c040 add.l $r0,$r1,4
    2af0:	d4 00 d0 b5 	b5d000d4 sti.l $r29,212,$r0
    2af4:	d0 80 0e ac 	ac0e80d0 ldi.l $r0,$r29,208
    2af8:	40 40 20 44 	44204040 add.l $r2,$r0,4
    2afc:	d0 00 d1 b5 	b5d100d0 sti.l $r29,208,$r2
    2b00:	00 80 10 ac 	ac108000 ldi.l $r1,$r1,0
    2b04:	00 80 00 b4 	b4008000 sti.l $r0,0,$r1
    2b08:	d4 80 1e ac 	ac1e80d4 ldi.l $r1,$r29,212
    2b0c:	40 c0 00 44 	4400c040 add.l $r0,$r1,4
    2b10:	d4 00 d0 b5 	b5d000d4 sti.l $r29,212,$r0
    2b14:	d0 80 0e ac 	ac0e80d0 ldi.l $r0,$r29,208
    2b18:	40 40 20 44 	44204040 add.l $r2,$r0,4
    2b1c:	d0 00 d1 b5 	b5d100d0 sti.l $r29,208,$r2
    2b20:	00 80 10 ac 	ac108000 ldi.l $r1,$r1,0
    2b24:	00 80 00 b4 	b4008000 sti.l $r0,0,$r1
    2b28:	d4 80 1e ac 	ac1e80d4 ldi.l $r1,$r29,212
    2b2c:	40 c0 00 44 	4400c040 add.l $r0,$r1,4
    2b30:	d4 00 d0 b5 	b5d000d4 sti.l $r29,212,$r0
    2b34:	d0 80 0e ac 	ac0e80d0 ldi.l $r0,$r29,208
    2b38:	40 40 20 44 	44204040 add.l $r2,$r0,4
    2b3c:	d0 00 d1 b5 	b5d100d0 sti.l $r29,208,$r2
    2b40:	00 80 10 ac 	ac108000 ldi.l $r1,$r1,0
    2b44:	00 80 00 b4 	b4008000 sti.l $r0,0,$r1
    2b48:	d4 80 1e ac 	ac1e80d4 ldi.l $r1,$r29,212
    2b4c:	40 c0 00 44 	4400c040 add.l $r0,$r1,4
    2b50:	d4 00 d0 b5 	b5d000d4 sti.l $r29,212,$r0
    2b54:	d0 80 0e ac 	ac0e80d0 ldi.l $r0,$r29,208
    2b58:	40 40 20 44 	44204040 add.l $r2,$r0,4
    2b5c:	d0 00 d1 b5 	b5d100d0 sti.l $r29,208,$r2
    2b60:	00 80 10 ac 	ac108000 ldi.l $r1,$r1,0
    2b64:	00 80 00 b4 	b4008000 sti.l $r0,0,$r1
    2b68:	d4 80 0e ac 	ac0e80d4 ldi.l $r0,$r29,212
    2b6c:	00 00 10 ac 	ac100000 ldi.l $r1,$r0,0
    2b70:	d0 80 0e ac 	ac0e80d0 ldi.l $r0,$r29,208
    2b74:	00 80 00 b4 	b4008000 sti.l $r0,0,$r1
    2b78:	e3 0a 30 00 	00300ae3 jmp 2b8c <_realloc_r+0xaec>
    2b7c:	a0 80 2e ac 	ac2e80a0 ldi.l $r2,$r29,160
    2b80:	90 80 1e ac 	ac1e8090 ldi.l $r1,$r29,144
    2b84:	b0 80 0e ac 	ac0e80b0 ldi.l $r0,$r29,176
    2b88:	c9 07 34 00 	003407c9 call 1f24 <memmove>
    2b8c:	90 80 1e ac 	ac1e8090 ldi.l $r1,$r29,144
    2b90:	94 80 0e ac 	ac0e8094 ldi.l $r0,$r29,148
    2b94:	e0 0d 34 00 	00340de0 call 3780 <_free_r>
    2b98:	94 80 0e ac 	ac0e8094 ldi.l $r0,$r29,148
    2b9c:	23 08 34 00 	00340823 call 208c <__malloc_unlock>
    2ba0:	b0 80 0e ac 	ac0e80b0 ldi.l $r0,$r29,176
    2ba4:	24 0b 30 00 	00300b24 jmp 2c90 <_realloc_r+0xbf0>
    2ba8:	00 40 00 40 	40004000 nop 
    2bac:	f8 80 1e ac 	ac1e80f8 ldi.l $r1,$r29,248
    2bb0:	c4 80 0e ac 	ac0e80c4 ldi.l $r0,$r29,196
    2bb4:	02 80 00 44 	44008002 sub.l $r0,$r1,$r0
    2bb8:	9c 00 d0 b5 	b5d0009c sti.l $r29,156,$r0
    2bbc:	9c 80 0e ac 	ac0e809c ldi.l $r0,$r29,156
    2bc0:	f2 40 e0 5d 	5de040f2 cmp.l $r0,15
    2bc4:	10 0b a0 01 	01a00b10 jmpc be,2c40 <_realloc_r+0xba0>
    2bc8:	fc 80 1e ac 	ac1e80fc ldi.l $r1,$r29,252
    2bcc:	c4 80 0e ac 	ac0e80c4 ldi.l $r0,$r29,196
    2bd0:	00 80 00 44 	44008000 add.l $r0,$r1,$r0
    2bd4:	98 00 d0 b5 	b5d00098 sti.l $r29,152,$r0
    2bd8:	fc 80 0e ac 	ac0e80fc ldi.l $r0,$r29,252
    2bdc:	04 00 00 ac 	ac000004 ldi.l $r0,$r0,4
    2be0:	14 40 00 44 	44004014 and.l $r0,$r0,1
    2be4:	c4 80 2e ac 	ac2e80c4 ldi.l $r2,$r29,196
    2be8:	25 00 10 44 	44100025 or.l $r1,$r0,$r2
    2bec:	fc 80 0e ac 	ac0e80fc ldi.l $r0,$r29,252
    2bf0:	04 80 00 b4 	b4008004 sti.l $r0,4,$r1
    2bf4:	9c 80 0e ac 	ac0e809c ldi.l $r0,$r29,156
    2bf8:	0b 62 10 44 	4410620b bins.l $r1,$r0,-480
    2bfc:	98 80 0e ac 	ac0e8098 ldi.l $r0,$r29,152
    2c00:	04 80 00 b4 	b4008004 sti.l $r0,4,$r1
    2c04:	98 80 1e ac 	ac1e8098 ldi.l $r1,$r29,152
    2c08:	9c 80 0e ac 	ac0e809c ldi.l $r0,$r29,156
    2c0c:	00 80 00 44 	44008000 add.l $r0,$r1,$r0
    2c10:	04 00 10 ac 	ac100004 ldi.l $r1,$r0,4
    2c14:	98 80 2e ac 	ac2e8098 ldi.l $r2,$r29,152
    2c18:	9c 80 0e ac 	ac0e809c ldi.l $r0,$r29,156
    2c1c:	00 00 01 44 	44010000 add.l $r0,$r2,$r0
    2c20:	0b e2 10 44 	4410e20b bins.l $r1,$r1,-480
    2c24:	04 80 00 b4 	b4008004 sti.l $r0,4,$r1
    2c28:	98 80 0e ac 	ac0e8098 ldi.l $r0,$r29,152
    2c2c:	80 40 00 44 	44004080 add.l $r0,$r0,8
    2c30:	00 40 10 44 	44104000 move.l $r1,$r0
    2c34:	94 80 0e ac 	ac0e8094 ldi.l $r0,$r29,148
    2c38:	e0 0d 34 00 	00340de0 call 3780 <_free_r>
    2c3c:	20 0b 30 00 	00300b20 jmp 2c80 <_realloc_r+0xbe0>
    2c40:	fc 80 0e ac 	ac0e80fc ldi.l $r0,$r29,252
    2c44:	04 00 00 ac 	ac000004 ldi.l $r0,$r0,4
    2c48:	14 40 00 44 	44004014 and.l $r0,$r0,1
    2c4c:	f8 80 2e ac 	ac2e80f8 ldi.l $r2,$r29,248
    2c50:	25 00 10 44 	44100025 or.l $r1,$r0,$r2
    2c54:	fc 80 0e ac 	ac0e80fc ldi.l $r0,$r29,252
    2c58:	04 80 00 b4 	b4008004 sti.l $r0,4,$r1
    2c5c:	fc 80 1e ac 	ac1e80fc ldi.l $r1,$r29,252
    2c60:	f8 80 0e ac 	ac0e80f8 ldi.l $r0,$r29,248
    2c64:	00 80 00 44 	44008000 add.l $r0,$r1,$r0
    2c68:	04 00 10 ac 	ac100004 ldi.l $r1,$r0,4
    2c6c:	fc 80 2e ac 	ac2e80fc ldi.l $r2,$r29,252
    2c70:	f8 80 0e ac 	ac0e80f8 ldi.l $r0,$r29,248
    2c74:	00 00 01 44 	44010000 add.l $r0,$r2,$r0
    2c78:	0b e2 10 44 	4410e20b bins.l $r1,$r1,-480
    2c7c:	04 80 00 b4 	b4008004 sti.l $r0,4,$r1
    2c80:	94 80 0e ac 	ac0e8094 ldi.l $r0,$r29,148
    2c84:	23 08 34 00 	00340823 call 208c <__malloc_unlock>
    2c88:	fc 80 0e ac 	ac0e80fc ldi.l $r0,$r29,252
    2c8c:	80 40 00 44 	44004080 add.l $r0,$r0,8
    2c90:	00 00 d0 99 	99d00000 unlink $r29
    2c94:	00 00 00 a0 	a0000000 return 

00002c98 <_sbrk_r>:
    2c98:	0c 00 d0 95 	95d0000c link $r29,12
    2c9c:	f8 00 d0 b5 	b5d000f8 sti.l $r29,248,$r0
    2ca0:	f4 80 d0 b5 	b5d080f4 sti.l $r29,244,$r1
    2ca4:	00 00 00 64 	64000000 ldk.l $r0,0
    2ca8:	90 08 00 bc 	bc000890 sta.l 800890 <errno>,$r0
    2cac:	f4 80 0e ac 	ac0e80f4 ldi.l $r0,$r29,244
    2cb0:	2b 11 34 00 	0034112b call 44ac <_sbrk>
    2cb4:	fc 00 d0 b5 	b5d000fc sti.l $r29,252,$r0
    2cb8:	fc 80 0e ac 	ac0e80fc ldi.l $r0,$r29,252
    2cbc:	f2 7f e0 5d 	5de07ff2 cmp.l $r0,-1
    2cc0:	37 0b 20 00 	00200b37 jmpc nz,2cdc <_sbrk_r+0x44>
    2cc4:	90 08 00 c4 	c4000890 lda.l $r0,800890 <errno>
    2cc8:	02 40 e0 5d 	5de04002 cmp.l $r0,0
    2ccc:	37 0b 28 00 	00280b37 jmpc z,2cdc <_sbrk_r+0x44>
    2cd0:	90 08 10 c4 	c4100890 lda.l $r1,800890 <errno>
    2cd4:	f8 80 0e ac 	ac0e80f8 ldi.l $r0,$r29,248
    2cd8:	00 80 00 b4 	b4008000 sti.l $r0,0,$r1
    2cdc:	fc 80 0e ac 	ac0e80fc ldi.l $r0,$r29,252
    2ce0:	00 00 d0 99 	99d00000 unlink $r29
    2ce4:	00 00 00 a0 	a0000000 return 

00002ce8 <__sread>:
    2ce8:	00 80 06 84 	84068000 push.l $r13
    2cec:	00 00 07 84 	84070000 push.l $r14
    2cf0:	10 00 d0 95 	95d00010 link $r29,16
    2cf4:	fc 00 d0 b5 	b5d000fc sti.l $r29,252,$r0
    2cf8:	f8 80 d0 b5 	b5d080f8 sti.l $r29,248,$r1
    2cfc:	f4 00 d1 b5 	b5d100f4 sti.l $r29,244,$r2
    2d00:	f0 80 d1 b5 	b5d180f0 sti.l $r29,240,$r3
    2d04:	f8 80 de ac 	acde80f8 ldi.l $r13,$r29,248
    2d08:	0e 80 16 aa 	aa16800e ldi.s $r1,$r13,14
    2d0c:	0c c0 00 44 	4400c00c bexts.l $r0,$r1,0
    2d10:	00 40 10 44 	44104000 move.l $r1,$r0
    2d14:	f0 80 0e ac 	ac0e80f0 ldi.l $r0,$r29,240
    2d18:	00 40 30 44 	44304000 move.l $r3,$r0
    2d1c:	f4 80 2e ac 	ac2e80f4 ldi.l $r2,$r29,244
    2d20:	fc 80 0e ac 	ac0e80fc ldi.l $r0,$r29,252
    2d24:	53 10 34 00 	00341053 call 414c <_read_r>
    2d28:	00 40 e0 44 	44e04000 move.l $r14,$r0
    2d2c:	02 40 e7 5d 	5de74002 cmp.l $r14,0
    2d30:	51 0b 20 01 	01200b51 jmpc lt,2d44 <__sread+0x5c>
    2d34:	50 80 06 ac 	ac068050 ldi.l $r0,$r13,80
    2d38:	00 00 07 44 	44070000 add.l $r0,$r14,$r0
    2d3c:	50 00 d0 b4 	b4d00050 sti.l $r13,80,$r0
    2d40:	58 0b 30 00 	00300b58 jmp 2d60 <__sread+0x78>
    2d44:	0c 80 16 aa 	aa16800c ldi.s $r1,$r13,12
    2d48:	0c c0 00 44 	4400c00c bexts.l $r0,$r1,0
    2d4c:	cb 42 00 44 	440042cb bins.l $r0,$r0,44
    2d50:	0c 40 00 44 	4400400c bexts.l $r0,$r0,0
    2d54:	00 40 10 42 	42104000 move.s $r1,$r0
    2d58:	c0 c0 06 44 	4406c0c0 add.l $r0,$r13,12
    2d5c:	00 80 00 b2 	b2008000 sti.s $r0,0,$r1
    2d60:	00 40 07 44 	44074000 move.l $r0,$r14
    2d64:	00 00 d0 99 	99d00000 unlink $r29
    2d68:	00 00 e0 8c 	8ce00000 pop.l $r14
    2d6c:	00 00 d0 8c 	8cd00000 pop.l $r13
    2d70:	00 00 00 a0 	a0000000 return 

00002d74 <__seofread>:
    2d74:	10 00 d0 95 	95d00010 link $r29,16
    2d78:	fc 00 d0 b5 	b5d000fc sti.l $r29,252,$r0
    2d7c:	f8 80 d0 b5 	b5d080f8 sti.l $r29,248,$r1
    2d80:	f4 00 d1 b5 	b5d100f4 sti.l $r29,244,$r2
    2d84:	f0 80 d1 b5 	b5d180f0 sti.l $r29,240,$r3
    2d88:	00 00 00 64 	64000000 ldk.l $r0,0
    2d8c:	00 00 d0 99 	99d00000 unlink $r29
    2d90:	00 00 00 a0 	a0000000 return 

00002d94 <__swrite>:
    2d94:	00 80 06 84 	84068000 push.l $r13
    2d98:	14 00 d0 95 	95d00014 link $r29,20
    2d9c:	f8 00 d0 b5 	b5d000f8 sti.l $r29,248,$r0
    2da0:	f4 80 d0 b5 	b5d080f4 sti.l $r29,244,$r1
    2da4:	f0 00 d1 b5 	b5d100f0 sti.l $r29,240,$r2
    2da8:	ec 80 d1 b5 	b5d180ec sti.l $r29,236,$r3
    2dac:	f4 80 de ac 	acde80f4 ldi.l $r13,$r29,244
    2db0:	0c 80 16 aa 	aa16800c ldi.s $r1,$r13,12
    2db4:	0c c0 00 44 	4400c00c bexts.l $r0,$r1,0
    2db8:	0d 40 00 44 	4400400d bextu.l $r0,$r0,0
    2dbc:	04 50 00 44 	44005004 and.l $r0,$r0,256
    2dc0:	02 40 e0 5d 	5de04002 cmp.l $r0,0
    2dc4:	79 0b 28 00 	00280b79 jmpc z,2de4 <__swrite+0x50>
    2dc8:	0e 80 16 aa 	aa16800e ldi.s $r1,$r13,14
    2dcc:	0c c0 00 44 	4400c00c bexts.l $r0,$r1,0
    2dd0:	02 00 30 64 	64300002 ldk.l $r3,2
    2dd4:	00 00 20 64 	64200000 ldk.l $r2,0
    2dd8:	00 40 10 44 	44104000 move.l $r1,$r0
    2ddc:	f8 80 0e ac 	ac0e80f8 ldi.l $r0,$r29,248
    2de0:	99 0f 34 00 	00340f99 call 3e64 <_lseek_r>
    2de4:	0c 80 16 aa 	aa16800c ldi.s $r1,$r13,12
    2de8:	0c c0 00 44 	4400c00c bexts.l $r0,$r1,0
    2dec:	cb 42 00 44 	440042cb bins.l $r0,$r0,44
    2df0:	0c 40 00 44 	4400400c bexts.l $r0,$r0,0
    2df4:	00 40 10 42 	42104000 move.s $r1,$r0
    2df8:	c0 c0 06 44 	4406c0c0 add.l $r0,$r13,12
    2dfc:	00 80 00 b2 	b2008000 sti.s $r0,0,$r1
    2e00:	0e 80 16 aa 	aa16800e ldi.s $r1,$r13,14
    2e04:	0c c0 00 44 	4400c00c bexts.l $r0,$r1,0
    2e08:	00 40 10 44 	44104000 move.l $r1,$r0
    2e0c:	ec 80 0e ac 	ac0e80ec ldi.l $r0,$r29,236
    2e10:	00 40 30 44 	44304000 move.l $r3,$r0
    2e14:	f0 80 2e ac 	ac2e80f0 ldi.l $r2,$r29,240
    2e18:	f8 80 0e ac 	ac0e80f8 ldi.l $r0,$r29,248
    2e1c:	c1 0b 34 00 	00340bc1 call 2f04 <_write_r>
    2e20:	fc 00 d0 b5 	b5d000fc sti.l $r29,252,$r0
    2e24:	fc 80 0e ac 	ac0e80fc ldi.l $r0,$r29,252
    2e28:	00 00 d0 99 	99d00000 unlink $r29
    2e2c:	00 00 d0 8c 	8cd00000 pop.l $r13
    2e30:	00 00 00 a0 	a0000000 return 

00002e34 <__sseek>:
    2e34:	00 80 06 84 	84068000 push.l $r13
    2e38:	00 00 07 84 	84070000 push.l $r14
    2e3c:	10 00 d0 95 	95d00010 link $r29,16
    2e40:	fc 00 d0 b5 	b5d000fc sti.l $r29,252,$r0
    2e44:	f8 80 d0 b5 	b5d080f8 sti.l $r29,248,$r1
    2e48:	f4 00 d1 b5 	b5d100f4 sti.l $r29,244,$r2
    2e4c:	f0 80 d1 b5 	b5d180f0 sti.l $r29,240,$r3
    2e50:	f8 80 de ac 	acde80f8 ldi.l $r13,$r29,248
    2e54:	0e 80 16 aa 	aa16800e ldi.s $r1,$r13,14
    2e58:	0c c0 00 44 	4400c00c bexts.l $r0,$r1,0
    2e5c:	f0 80 3e ac 	ac3e80f0 ldi.l $r3,$r29,240
    2e60:	f4 80 2e ac 	ac2e80f4 ldi.l $r2,$r29,244
    2e64:	00 40 10 44 	44104000 move.l $r1,$r0
    2e68:	fc 80 0e ac 	ac0e80fc ldi.l $r0,$r29,252
    2e6c:	99 0f 34 00 	00340f99 call 3e64 <_lseek_r>
    2e70:	00 40 e0 44 	44e04000 move.l $r14,$r0
    2e74:	f2 7f e7 5d 	5de77ff2 cmp.l $r14,-1
    2e78:	a7 0b 20 00 	00200ba7 jmpc nz,2e9c <__sseek+0x68>
    2e7c:	0c 80 16 aa 	aa16800c ldi.s $r1,$r13,12
    2e80:	0c c0 00 44 	4400c00c bexts.l $r0,$r1,0
    2e84:	cb 42 00 44 	440042cb bins.l $r0,$r0,44
    2e88:	0c 40 00 44 	4400400c bexts.l $r0,$r0,0
    2e8c:	00 40 10 42 	42104000 move.s $r1,$r0
    2e90:	c0 c0 06 44 	4406c0c0 add.l $r0,$r13,12
    2e94:	00 80 00 b2 	b2008000 sti.s $r0,0,$r1
    2e98:	af 0b 30 00 	00300baf jmp 2ebc <__sseek+0x88>
    2e9c:	0c 80 16 aa 	aa16800c ldi.s $r1,$r13,12
    2ea0:	0c c0 00 44 	4400c00c bexts.l $r0,$r1,0
    2ea4:	cb 62 00 44 	440062cb bins.l $r0,$r0,-468
    2ea8:	0c 40 00 44 	4400400c bexts.l $r0,$r0,0
    2eac:	00 40 10 42 	42104000 move.s $r1,$r0
    2eb0:	c0 c0 06 44 	4406c0c0 add.l $r0,$r13,12
    2eb4:	00 80 00 b2 	b2008000 sti.s $r0,0,$r1
    2eb8:	50 00 d7 b4 	b4d70050 sti.l $r13,80,$r14
    2ebc:	00 40 07 44 	44074000 move.l $r0,$r14
    2ec0:	00 00 d0 99 	99d00000 unlink $r29
    2ec4:	00 00 e0 8c 	8ce00000 pop.l $r14
    2ec8:	00 00 d0 8c 	8cd00000 pop.l $r13
    2ecc:	00 00 00 a0 	a0000000 return 

00002ed0 <__sclose>:
    2ed0:	0c 00 d0 95 	95d0000c link $r29,12
    2ed4:	f8 00 d0 b5 	b5d000f8 sti.l $r29,248,$r0
    2ed8:	f4 80 d0 b5 	b5d080f4 sti.l $r29,244,$r1
    2edc:	f4 80 0e ac 	ac0e80f4 ldi.l $r0,$r29,244
    2ee0:	fc 00 d0 b5 	b5d000fc sti.l $r29,252,$r0
    2ee4:	fc 80 0e ac 	ac0e80fc ldi.l $r0,$r29,252
    2ee8:	0e 00 10 aa 	aa10000e ldi.s $r1,$r0,14
    2eec:	0c c0 00 44 	4400c00c bexts.l $r0,$r1,0
    2ef0:	00 40 10 44 	44104000 move.l $r1,$r0
    2ef4:	f8 80 0e ac 	ac0e80f8 ldi.l $r0,$r29,248
    2ef8:	65 0c 34 00 	00340c65 call 3194 <_close_r>
    2efc:	00 00 d0 99 	99d00000 unlink $r29
    2f00:	00 00 00 a0 	a0000000 return 

00002f04 <_write_r>:
    2f04:	14 00 d0 95 	95d00014 link $r29,20
    2f08:	f8 00 d0 b5 	b5d000f8 sti.l $r29,248,$r0
    2f0c:	f4 80 d0 b5 	b5d080f4 sti.l $r29,244,$r1
    2f10:	f0 00 d1 b5 	b5d100f0 sti.l $r29,240,$r2
    2f14:	ec 80 d1 b5 	b5d180ec sti.l $r29,236,$r3
    2f18:	00 00 00 64 	64000000 ldk.l $r0,0
    2f1c:	90 08 00 bc 	bc000890 sta.l 800890 <errno>,$r0
    2f20:	ec 80 2e ac 	ac2e80ec ldi.l $r2,$r29,236
    2f24:	f0 80 1e ac 	ac1e80f0 ldi.l $r1,$r29,240
    2f28:	f4 80 0e ac 	ac0e80f4 ldi.l $r0,$r29,244
    2f2c:	4d 11 34 00 	0034114d call 4534 <_write>
    2f30:	fc 00 d0 b5 	b5d000fc sti.l $r29,252,$r0
    2f34:	fc 80 0e ac 	ac0e80fc ldi.l $r0,$r29,252
    2f38:	f2 7f e0 5d 	5de07ff2 cmp.l $r0,-1
    2f3c:	d6 0b 20 00 	00200bd6 jmpc nz,2f58 <_write_r+0x54>
    2f40:	90 08 00 c4 	c4000890 lda.l $r0,800890 <errno>
    2f44:	02 40 e0 5d 	5de04002 cmp.l $r0,0
    2f48:	d6 0b 28 00 	00280bd6 jmpc z,2f58 <_write_r+0x54>
    2f4c:	90 08 10 c4 	c4100890 lda.l $r1,800890 <errno>
    2f50:	f8 80 0e ac 	ac0e80f8 ldi.l $r0,$r29,248
    2f54:	00 80 00 b4 	b4008000 sti.l $r0,0,$r1
    2f58:	fc 80 0e ac 	ac0e80fc ldi.l $r0,$r29,252
    2f5c:	00 00 d0 99 	99d00000 unlink $r29
    2f60:	00 00 00 a0 	a0000000 return 

00002f64 <__swsetup_r>:
    2f64:	00 80 06 84 	84068000 push.l $r13
    2f68:	08 00 d0 95 	95d00008 link $r29,8
    2f6c:	f8 00 d0 b5 	b5d000f8 sti.l $r29,248,$r0
    2f70:	00 c0 d0 44 	44d0c000 move.l $r13,$r1
    2f74:	24 04 00 c4 	c4000424 lda.l $r0,800424 <_impure_ptr>
    2f78:	fc 00 d0 b5 	b5d000fc sti.l $r29,252,$r0
    2f7c:	fc 80 0e ac 	ac0e80fc ldi.l $r0,$r29,252
    2f80:	02 40 e0 5d 	5de04002 cmp.l $r0,0
    2f84:	e8 0b 28 00 	00280be8 jmpc z,2fa0 <__swsetup_r+0x3c>
    2f88:	fc 80 0e ac 	ac0e80fc ldi.l $r0,$r29,252
    2f8c:	38 00 00 ac 	ac000038 ldi.l $r0,$r0,56
    2f90:	02 40 e0 5d 	5de04002 cmp.l $r0,0
    2f94:	e8 0b 20 00 	00200be8 jmpc nz,2fa0 <__swsetup_r+0x3c>
    2f98:	fc 80 0e ac 	ac0e80fc ldi.l $r0,$r29,252
    2f9c:	7c 01 34 00 	0034017c call 5f0 <__sinit>
    2fa0:	0c 80 16 aa 	aa16800c ldi.s $r1,$r13,12
    2fa4:	0c c0 00 44 	4400c00c bexts.l $r0,$r1,0
    2fa8:	0d 40 00 44 	4400400d bextu.l $r0,$r0,0
    2fac:	84 40 00 44 	44004084 and.l $r0,$r0,8
    2fb0:	02 40 e0 5d 	5de04002 cmp.l $r0,0
    2fb4:	25 0c 20 00 	00200c25 jmpc nz,3094 <__swsetup_r+0x130>
    2fb8:	0c 80 16 aa 	aa16800c ldi.s $r1,$r13,12
    2fbc:	0c c0 00 44 	4400c00c bexts.l $r0,$r1,0
    2fc0:	0d 40 00 44 	4400400d bextu.l $r0,$r0,0
    2fc4:	04 41 00 44 	44004104 and.l $r0,$r0,16
    2fc8:	02 40 e0 5d 	5de04002 cmp.l $r0,0
    2fcc:	00 0c 20 00 	00200c00 jmpc nz,3000 <__swsetup_r+0x9c>
    2fd0:	f8 80 0e ac 	ac0e80f8 ldi.l $r0,$r29,248
    2fd4:	09 00 10 64 	64100009 ldk.l $r1,9
    2fd8:	00 80 00 b4 	b4008000 sti.l $r0,0,$r1
    2fdc:	0c 80 16 aa 	aa16800c ldi.s $r1,$r13,12
    2fe0:	0c c0 00 44 	4400c00c bexts.l $r0,$r1,0
    2fe4:	6b 62 00 44 	4400626b bins.l $r0,$r0,-474
    2fe8:	0c 40 00 44 	4400400c bexts.l $r0,$r0,0
    2fec:	00 40 10 42 	42104000 move.s $r1,$r0
    2ff0:	c0 c0 06 44 	4406c0c0 add.l $r0,$r13,12
    2ff4:	00 80 00 b2 	b2008000 sti.s $r0,0,$r1
    2ff8:	ff ff 0f 64 	640fffff ldk.l $r0,-1
    2ffc:	62 0c 30 00 	00300c62 jmp 3188 <__swsetup_r+0x224>
    3000:	0c 80 16 aa 	aa16800c ldi.s $r1,$r13,12
    3004:	0c c0 00 44 	4400c00c bexts.l $r0,$r1,0
    3008:	0d 40 00 44 	4400400d bextu.l $r0,$r0,0
    300c:	44 40 00 44 	44004044 and.l $r0,$r0,4
    3010:	02 40 e0 5d 	5de04002 cmp.l $r0,0
    3014:	1e 0c 28 00 	00280c1e jmpc z,3078 <__swsetup_r+0x114>
    3018:	30 80 06 ac 	ac068030 ldi.l $r0,$r13,48
    301c:	02 40 e0 5d 	5de04002 cmp.l $r0,0
    3020:	13 0c 28 00 	00280c13 jmpc z,304c <__swsetup_r+0xe8>
    3024:	30 80 16 ac 	ac168030 ldi.l $r1,$r13,48
    3028:	00 c4 06 44 	4406c400 add.l $r0,$r13,64
    302c:	02 80 e0 5d 	5de08002 cmp.l $r1,$r0
    3030:	11 0c 28 00 	00280c11 jmpc z,3044 <__swsetup_r+0xe0>
    3034:	30 80 06 ac 	ac068030 ldi.l $r0,$r13,48
    3038:	00 40 10 44 	44104000 move.l $r1,$r0
    303c:	f8 80 0e ac 	ac0e80f8 ldi.l $r0,$r29,248
    3040:	e0 0d 34 00 	00340de0 call 3780 <_free_r>
    3044:	00 00 00 64 	64000000 ldk.l $r0,0
    3048:	30 00 d0 b4 	b4d00030 sti.l $r13,48,$r0
    304c:	0c 80 16 aa 	aa16800c ldi.s $r1,$r13,12
    3050:	0c c0 00 44 	4400c00c bexts.l $r0,$r1,0
    3054:	b4 7d 00 44 	44007db4 and.l $r0,$r0,-37
    3058:	0c 40 00 44 	4400400c bexts.l $r0,$r0,0
    305c:	00 40 10 42 	42104000 move.s $r1,$r0
    3060:	c0 c0 06 44 	4406c0c0 add.l $r0,$r13,12
    3064:	00 80 00 b2 	b2008000 sti.s $r0,0,$r1
    3068:	00 00 00 64 	64000000 ldk.l $r0,0
    306c:	04 00 d0 b4 	b4d00004 sti.l $r13,4,$r0
    3070:	10 80 06 ac 	ac068010 ldi.l $r0,$r13,16
    3074:	00 00 d0 b4 	b4d00000 sti.l $r13,0,$r0
    3078:	0c 80 16 aa 	aa16800c ldi.s $r1,$r13,12
    307c:	0c c0 00 44 	4400c00c bexts.l $r0,$r1,0
    3080:	3b 62 00 44 	4400623b bins.l $r0,$r0,-477
    3084:	0c 40 00 44 	4400400c bexts.l $r0,$r0,0
    3088:	00 40 10 42 	42104000 move.s $r1,$r0
    308c:	c0 c0 06 44 	4406c0c0 add.l $r0,$r13,12
    3090:	00 80 00 b2 	b2008000 sti.s $r0,0,$r1
    3094:	10 80 06 ac 	ac068010 ldi.l $r0,$r13,16
    3098:	02 40 e0 5d 	5de04002 cmp.l $r0,0
    309c:	38 0c 20 00 	00200c38 jmpc nz,30e0 <__swsetup_r+0x17c>
    30a0:	0c 80 16 aa 	aa16800c ldi.s $r1,$r13,12
    30a4:	0c c0 00 44 	4400c00c bexts.l $r0,$r1,0
    30a8:	0d 40 00 44 	4400400d bextu.l $r0,$r0,0
    30ac:	00 02 10 64 	64100200 ldk.l $r1,512
    30b0:	14 00 00 44 	44000014 and.l $r0,$r0,$r1
    30b4:	02 40 e0 5d 	5de04002 cmp.l $r0,0
    30b8:	35 0c 28 00 	00280c35 jmpc z,30d4 <__swsetup_r+0x170>
    30bc:	0c 80 16 aa 	aa16800c ldi.s $r1,$r13,12
    30c0:	0c c0 00 44 	4400c00c bexts.l $r0,$r1,0
    30c4:	0d 40 00 44 	4400400d bextu.l $r0,$r0,0
    30c8:	04 48 00 44 	44004804 and.l $r0,$r0,128
    30cc:	02 40 e0 5d 	5de04002 cmp.l $r0,0
    30d0:	38 0c 28 00 	00280c38 jmpc z,30e0 <__swsetup_r+0x17c>
    30d4:	00 c0 16 44 	4416c000 move.l $r1,$r13
    30d8:	f8 80 0e ac 	ac0e80f8 ldi.l $r0,$r29,248
    30dc:	b1 0f 34 00 	00340fb1 call 3ec4 <__smakebuf_r>
    30e0:	0c 80 16 aa 	aa16800c ldi.s $r1,$r13,12
    30e4:	0c c0 00 44 	4400c00c bexts.l $r0,$r1,0
    30e8:	0d 40 00 44 	4400400d bextu.l $r0,$r0,0
    30ec:	14 40 00 44 	44004014 and.l $r0,$r0,1
    30f0:	02 40 e0 5d 	5de04002 cmp.l $r0,0
    30f4:	45 0c 28 00 	00280c45 jmpc z,3114 <__swsetup_r+0x1b0>
    30f8:	00 00 00 64 	64000000 ldk.l $r0,0
    30fc:	08 00 d0 b4 	b4d00008 sti.l $r13,8,$r0
    3100:	14 80 06 ac 	ac068014 ldi.l $r0,$r13,20
    3104:	00 00 10 64 	64100000 ldk.l $r1,0
    3108:	02 80 00 44 	44008002 sub.l $r0,$r1,$r0
    310c:	18 00 d0 b4 	b4d00018 sti.l $r13,24,$r0
    3110:	4f 0c 30 00 	00300c4f jmp 313c <__swsetup_r+0x1d8>
    3114:	0c 80 16 aa 	aa16800c ldi.s $r1,$r13,12
    3118:	0c c0 00 44 	4400c00c bexts.l $r0,$r1,0
    311c:	0d 40 00 44 	4400400d bextu.l $r0,$r0,0
    3120:	24 40 00 44 	44004024 and.l $r0,$r0,2
    3124:	02 40 e0 5d 	5de04002 cmp.l $r0,0
    3128:	4d 0c 20 00 	00200c4d jmpc nz,3134 <__swsetup_r+0x1d0>
    312c:	14 80 06 ac 	ac068014 ldi.l $r0,$r13,20
    3130:	4e 0c 30 00 	00300c4e jmp 3138 <__swsetup_r+0x1d4>
    3134:	00 00 00 64 	64000000 ldk.l $r0,0
    3138:	08 00 d0 b4 	b4d00008 sti.l $r13,8,$r0
    313c:	10 80 06 ac 	ac068010 ldi.l $r0,$r13,16
    3140:	02 40 e0 5d 	5de04002 cmp.l $r0,0
    3144:	61 0c 20 00 	00200c61 jmpc nz,3184 <__swsetup_r+0x220>
    3148:	0c 80 16 aa 	aa16800c ldi.s $r1,$r13,12
    314c:	0c c0 00 44 	4400c00c bexts.l $r0,$r1,0
    3150:	0d 40 00 44 	4400400d bextu.l $r0,$r0,0
    3154:	04 48 00 44 	44004804 and.l $r0,$r0,128
    3158:	02 40 e0 5d 	5de04002 cmp.l $r0,0
    315c:	61 0c 28 00 	00280c61 jmpc z,3184 <__swsetup_r+0x220>
    3160:	0c 80 16 aa 	aa16800c ldi.s $r1,$r13,12
    3164:	0c c0 00 44 	4400c00c bexts.l $r0,$r1,0
    3168:	6b 62 00 44 	4400626b bins.l $r0,$r0,-474
    316c:	0c 40 00 44 	4400400c bexts.l $r0,$r0,0
    3170:	00 40 10 42 	42104000 move.s $r1,$r0
    3174:	c0 c0 06 44 	4406c0c0 add.l $r0,$r13,12
    3178:	00 80 00 b2 	b2008000 sti.s $r0,0,$r1
    317c:	ff ff 0f 64 	640fffff ldk.l $r0,-1
    3180:	62 0c 30 00 	00300c62 jmp 3188 <__swsetup_r+0x224>
    3184:	00 00 00 64 	64000000 ldk.l $r0,0
    3188:	00 00 d0 99 	99d00000 unlink $r29
    318c:	00 00 d0 8c 	8cd00000 pop.l $r13
    3190:	00 00 00 a0 	a0000000 return 

00003194 <_close_r>:
    3194:	0c 00 d0 95 	95d0000c link $r29,12
    3198:	f8 00 d0 b5 	b5d000f8 sti.l $r29,248,$r0
    319c:	f4 80 d0 b5 	b5d080f4 sti.l $r29,244,$r1
    31a0:	00 00 00 64 	64000000 ldk.l $r0,0
    31a4:	90 08 00 bc 	bc000890 sta.l 800890 <errno>,$r0
    31a8:	f4 80 0e ac 	ac0e80f4 ldi.l $r0,$r29,244
    31ac:	44 11 34 00 	00341144 call 4510 <_close>
    31b0:	fc 00 d0 b5 	b5d000fc sti.l $r29,252,$r0
    31b4:	fc 80 0e ac 	ac0e80fc ldi.l $r0,$r29,252
    31b8:	f2 7f e0 5d 	5de07ff2 cmp.l $r0,-1
    31bc:	76 0c 20 00 	00200c76 jmpc nz,31d8 <_close_r+0x44>
    31c0:	90 08 00 c4 	c4000890 lda.l $r0,800890 <errno>
    31c4:	02 40 e0 5d 	5de04002 cmp.l $r0,0
    31c8:	76 0c 28 00 	00280c76 jmpc z,31d8 <_close_r+0x44>
    31cc:	90 08 10 c4 	c4100890 lda.l $r1,800890 <errno>
    31d0:	f8 80 0e ac 	ac0e80f8 ldi.l $r0,$r29,248
    31d4:	00 80 00 b4 	b4008000 sti.l $r0,0,$r1
    31d8:	fc 80 0e ac 	ac0e80fc ldi.l $r0,$r29,252
    31dc:	00 00 d0 99 	99d00000 unlink $r29
    31e0:	00 00 00 a0 	a0000000 return 

000031e4 <_fclose_r>:
    31e4:	00 80 06 84 	84068000 push.l $r13
    31e8:	0c 00 d0 95 	95d0000c link $r29,12
    31ec:	f4 00 d0 b5 	b5d000f4 sti.l $r29,244,$r0
    31f0:	00 c0 d0 44 	44d0c000 move.l $r13,$r1
    31f4:	02 c0 e6 5d 	5de6c002 cmp.l $r13,0
    31f8:	81 0c 20 00 	00200c81 jmpc nz,3204 <_fclose_r+0x20>
    31fc:	00 00 00 64 	64000000 ldk.l $r0,0
    3200:	c8 0c 30 00 	00300cc8 jmp 3320 <_fclose_r+0x13c>
    3204:	f4 80 0e ac 	ac0e80f4 ldi.l $r0,$r29,244
    3208:	f8 00 d0 b5 	b5d000f8 sti.l $r29,248,$r0
    320c:	f8 80 0e ac 	ac0e80f8 ldi.l $r0,$r29,248
    3210:	02 40 e0 5d 	5de04002 cmp.l $r0,0
    3214:	8c 0c 28 00 	00280c8c jmpc z,3230 <_fclose_r+0x4c>
    3218:	f8 80 0e ac 	ac0e80f8 ldi.l $r0,$r29,248
    321c:	38 00 00 ac 	ac000038 ldi.l $r0,$r0,56
    3220:	02 40 e0 5d 	5de04002 cmp.l $r0,0
    3224:	8c 0c 20 00 	00200c8c jmpc nz,3230 <_fclose_r+0x4c>
    3228:	f8 80 0e ac 	ac0e80f8 ldi.l $r0,$r29,248
    322c:	7c 01 34 00 	0034017c call 5f0 <__sinit>
    3230:	0c 80 16 aa 	aa16800c ldi.s $r1,$r13,12
    3234:	0c c0 00 44 	4400c00c bexts.l $r0,$r1,0
    3238:	02 40 e0 5d 	5de04002 cmp.l $r0,0
    323c:	92 0c 20 00 	00200c92 jmpc nz,3248 <_fclose_r+0x64>
    3240:	00 00 00 64 	64000000 ldk.l $r0,0
    3244:	c8 0c 30 00 	00300cc8 jmp 3320 <_fclose_r+0x13c>
    3248:	00 c0 16 44 	4416c000 move.l $r1,$r13
    324c:	f4 80 0e ac 	ac0e80f4 ldi.l $r0,$r29,244
    3250:	d1 0c 34 00 	00340cd1 call 3344 <__sflush_r>
    3254:	fc 00 d0 b5 	b5d000fc sti.l $r29,252,$r0
    3258:	2c 80 06 ac 	ac06802c ldi.l $r0,$r13,44
    325c:	02 40 e0 5d 	5de04002 cmp.l $r0,0
    3260:	a2 0c 28 00 	00280ca2 jmpc z,3288 <_fclose_r+0xa4>
    3264:	2c 80 26 ac 	ac26802c ldi.l $r2,$r13,44
    3268:	1c 80 06 ac 	ac06801c ldi.l $r0,$r13,28
    326c:	00 40 10 44 	44104000 move.l $r1,$r0
    3270:	f4 80 0e ac 	ac0e80f4 ldi.l $r0,$r29,244
    3274:	20 00 34 08 	08340020 calli $r2
    3278:	02 40 e0 5d 	5de04002 cmp.l $r0,0
    327c:	a2 0c 28 01 	01280ca2 jmpc gte,3288 <_fclose_r+0xa4>
    3280:	ff ff 0f 64 	640fffff ldk.l $r0,-1
    3284:	fc 00 d0 b5 	b5d000fc sti.l $r29,252,$r0
    3288:	0c 80 16 aa 	aa16800c ldi.s $r1,$r13,12
    328c:	0c c0 00 44 	4400c00c bexts.l $r0,$r1,0
    3290:	0d 40 00 44 	4400400d bextu.l $r0,$r0,0
    3294:	04 48 00 44 	44004804 and.l $r0,$r0,128
    3298:	02 40 e0 5d 	5de04002 cmp.l $r0,0
    329c:	ac 0c 28 00 	00280cac jmpc z,32b0 <_fclose_r+0xcc>
    32a0:	10 80 06 ac 	ac068010 ldi.l $r0,$r13,16
    32a4:	00 40 10 44 	44104000 move.l $r1,$r0
    32a8:	f4 80 0e ac 	ac0e80f4 ldi.l $r0,$r29,244
    32ac:	e0 0d 34 00 	00340de0 call 3780 <_free_r>
    32b0:	30 80 06 ac 	ac068030 ldi.l $r0,$r13,48
    32b4:	02 40 e0 5d 	5de04002 cmp.l $r0,0
    32b8:	b9 0c 28 00 	00280cb9 jmpc z,32e4 <_fclose_r+0x100>
    32bc:	30 80 16 ac 	ac168030 ldi.l $r1,$r13,48
    32c0:	00 c4 06 44 	4406c400 add.l $r0,$r13,64
    32c4:	02 80 e0 5d 	5de08002 cmp.l $r1,$r0
    32c8:	b7 0c 28 00 	00280cb7 jmpc z,32dc <_fclose_r+0xf8>
    32cc:	30 80 06 ac 	ac068030 ldi.l $r0,$r13,48
    32d0:	00 40 10 44 	44104000 move.l $r1,$r0
    32d4:	f4 80 0e ac 	ac0e80f4 ldi.l $r0,$r29,244
    32d8:	e0 0d 34 00 	00340de0 call 3780 <_free_r>
    32dc:	00 00 00 64 	64000000 ldk.l $r0,0
    32e0:	30 00 d0 b4 	b4d00030 sti.l $r13,48,$r0
    32e4:	44 80 06 ac 	ac068044 ldi.l $r0,$r13,68
    32e8:	02 40 e0 5d 	5de04002 cmp.l $r0,0
    32ec:	c2 0c 28 00 	00280cc2 jmpc z,3308 <_fclose_r+0x124>
    32f0:	44 80 06 ac 	ac068044 ldi.l $r0,$r13,68
    32f4:	00 40 10 44 	44104000 move.l $r1,$r0
    32f8:	f4 80 0e ac 	ac0e80f4 ldi.l $r0,$r29,244
    32fc:	e0 0d 34 00 	00340de0 call 3780 <_free_r>
    3300:	00 00 00 64 	64000000 ldk.l $r0,0
    3304:	44 00 d0 b4 	b4d00044 sti.l $r13,68,$r0
    3308:	a8 01 34 00 	003401a8 call 6a0 <__sfp_lock_acquire>
    330c:	00 00 10 62 	62100000 ldk.s $r1,0
    3310:	c0 c0 06 44 	4406c0c0 add.l $r0,$r13,12
    3314:	00 80 00 b2 	b2008000 sti.s $r0,0,$r1
    3318:	ac 01 34 00 	003401ac call 6b0 <__sfp_lock_release>
    331c:	fc 80 0e ac 	ac0e80fc ldi.l $r0,$r29,252
    3320:	00 00 d0 99 	99d00000 unlink $r29
    3324:	00 00 d0 8c 	8cd00000 pop.l $r13
    3328:	00 00 00 a0 	a0000000 return 

0000332c <fclose>:
    332c:	00 00 d0 95 	95d00000 link $r29,0
    3330:	00 40 10 44 	44104000 move.l $r1,$r0
    3334:	24 04 00 c4 	c4000424 lda.l $r0,800424 <_impure_ptr>
    3338:	79 0c 34 00 	00340c79 call 31e4 <_fclose_r>
    333c:	00 00 d0 99 	99d00000 unlink $r29
    3340:	00 00 00 a0 	a0000000 return 

00003344 <__sflush_r>:
    3344:	00 80 06 84 	84068000 push.l $r13
    3348:	00 00 07 84 	84070000 push.l $r14
    334c:	00 80 07 84 	84078000 push.l $r15
    3350:	00 00 08 84 	84080000 push.l $r16
    3354:	14 00 d0 95 	95d00014 link $r29,20
    3358:	ec 00 d0 b5 	b5d000ec sti.l $r29,236,$r0
    335c:	00 c0 d0 44 	44d0c000 move.l $r13,$r1
    3360:	0c 80 16 aa 	aa16800c ldi.s $r1,$r13,12
    3364:	60 ff 0e 44 	440eff60 add.l $r0,$r29,-10
    3368:	00 80 00 b2 	b2008000 sti.s $r0,0,$r1
    336c:	f6 80 0e aa 	aa0e80f6 ldi.s $r0,$r29,246
    3370:	84 40 00 44 	44004084 and.l $r0,$r0,8
    3374:	02 40 e0 5d 	5de04002 cmp.l $r0,0
    3378:	86 0d 20 00 	00200d86 jmpc nz,3618 <__sflush_r+0x2d4>
    337c:	0c 80 16 aa 	aa16800c ldi.s $r1,$r13,12
    3380:	0c c0 00 44 	4400c00c bexts.l $r0,$r1,0
    3384:	bb 62 00 44 	440062bb bins.l $r0,$r0,-469
    3388:	0c 40 00 44 	4400400c bexts.l $r0,$r0,0
    338c:	00 40 10 42 	42104000 move.s $r1,$r0
    3390:	c0 c0 06 44 	4406c0c0 add.l $r0,$r13,12
    3394:	00 80 00 b2 	b2008000 sti.s $r0,0,$r1
    3398:	04 80 06 ac 	ac068004 ldi.l $r0,$r13,4
    339c:	02 40 e0 5d 	5de04002 cmp.l $r0,0
    33a0:	ec 0c 68 01 	01680cec jmpc gt,33b0 <__sflush_r+0x6c>
    33a4:	3c 80 06 ac 	ac06803c ldi.l $r0,$r13,60
    33a8:	02 40 e0 5d 	5de04002 cmp.l $r0,0
    33ac:	84 0d 60 01 	01600d84 jmpc lte,3610 <__sflush_r+0x2cc>
    33b0:	28 80 06 ac 	ac068028 ldi.l $r0,$r13,40
    33b4:	02 40 e0 5d 	5de04002 cmp.l $r0,0
    33b8:	84 0d 28 00 	00280d84 jmpc z,3610 <__sflush_r+0x2cc>
    33bc:	ec 80 0e ac 	ac0e80ec ldi.l $r0,$r29,236
    33c0:	00 00 00 ac 	ac000000 ldi.l $r0,$r0,0
    33c4:	f0 00 d0 b5 	b5d000f0 sti.l $r29,240,$r0
    33c8:	ec 80 0e ac 	ac0e80ec ldi.l $r0,$r29,236
    33cc:	00 00 10 64 	64100000 ldk.l $r1,0
    33d0:	00 80 00 b4 	b4008000 sti.l $r0,0,$r1
    33d4:	0c 80 16 aa 	aa16800c ldi.s $r1,$r13,12
    33d8:	0c c0 00 44 	4400c00c bexts.l $r0,$r1,0
    33dc:	0d 40 00 44 	4400400d bextu.l $r0,$r0,0
    33e0:	00 10 10 64 	64101000 ldk.l $r1,4096
    33e4:	14 00 00 44 	44000014 and.l $r0,$r0,$r1
    33e8:	02 40 e0 5d 	5de04002 cmp.l $r0,0
    33ec:	ff 0c 28 00 	00280cff jmpc z,33fc <__sflush_r+0xb8>
    33f0:	50 80 06 ac 	ac068050 ldi.l $r0,$r13,80
    33f4:	fc 00 d0 b5 	b5d000fc sti.l $r29,252,$r0
    33f8:	27 0d 30 00 	00300d27 jmp 349c <__sflush_r+0x158>
    33fc:	28 80 46 ac 	ac468028 ldi.l $r4,$r13,40
    3400:	1c 80 06 ac 	ac06801c ldi.l $r0,$r13,28
    3404:	01 00 30 64 	64300001 ldk.l $r3,1
    3408:	00 00 20 64 	64200000 ldk.l $r2,0
    340c:	00 40 10 44 	44104000 move.l $r1,$r0
    3410:	ec 80 0e ac 	ac0e80ec ldi.l $r0,$r29,236
    3414:	40 00 34 08 	08340040 calli $r4
    3418:	fc 00 d0 b5 	b5d000fc sti.l $r29,252,$r0
    341c:	fc 80 0e ac 	ac0e80fc ldi.l $r0,$r29,252
    3420:	f2 7f e0 5d 	5de07ff2 cmp.l $r0,-1
    3424:	27 0d 20 00 	00200d27 jmpc nz,349c <__sflush_r+0x158>
    3428:	ec 80 0e ac 	ac0e80ec ldi.l $r0,$r29,236
    342c:	00 00 00 ac 	ac000000 ldi.l $r0,$r0,0
    3430:	02 40 e0 5d 	5de04002 cmp.l $r0,0
    3434:	27 0d 28 00 	00280d27 jmpc z,349c <__sflush_r+0x158>
    3438:	ff ff 0f 64 	640fffff ldk.l $r0,-1
    343c:	f8 00 d0 b5 	b5d000f8 sti.l $r29,248,$r0
    3440:	ec 80 0e ac 	ac0e80ec ldi.l $r0,$r29,236
    3444:	00 00 00 ac 	ac000000 ldi.l $r0,$r0,0
    3448:	d2 41 e0 5d 	5de041d2 cmp.l $r0,29
    344c:	18 0d 28 00 	00280d18 jmpc z,3460 <__sflush_r+0x11c>
    3450:	ec 80 0e ac 	ac0e80ec ldi.l $r0,$r29,236
    3454:	00 00 00 ac 	ac000000 ldi.l $r0,$r0,0
    3458:	62 41 e0 5d 	5de04162 cmp.l $r0,22
    345c:	1e 0d 20 00 	00200d1e jmpc nz,3478 <__sflush_r+0x134>
    3460:	00 00 00 64 	64000000 ldk.l $r0,0
    3464:	f8 00 d0 b5 	b5d000f8 sti.l $r29,248,$r0
    3468:	ec 80 0e ac 	ac0e80ec ldi.l $r0,$r29,236
    346c:	f0 80 1e ac 	ac1e80f0 ldi.l $r1,$r29,240
    3470:	00 80 00 b4 	b4008000 sti.l $r0,0,$r1
    3474:	25 0d 30 00 	00300d25 jmp 3494 <__sflush_r+0x150>
    3478:	0c 80 16 aa 	aa16800c ldi.s $r1,$r13,12
    347c:	0c c0 00 44 	4400c00c bexts.l $r0,$r1,0
    3480:	6b 62 00 44 	4400626b bins.l $r0,$r0,-474
    3484:	0c 40 00 44 	4400400c bexts.l $r0,$r0,0
    3488:	00 40 10 42 	42104000 move.s $r1,$r0
    348c:	c0 c0 06 44 	4406c0c0 add.l $r0,$r13,12
    3490:	00 80 00 b2 	b2008000 sti.s $r0,0,$r1
    3494:	f8 80 0e ac 	ac0e80f8 ldi.l $r0,$r29,248
    3498:	b0 0d 30 00 	00300db0 jmp 36c0 <__sflush_r+0x37c>
    349c:	0c 80 16 aa 	aa16800c ldi.s $r1,$r13,12
    34a0:	0c c0 00 44 	4400c00c bexts.l $r0,$r1,0
    34a4:	0d 40 00 44 	4400400d bextu.l $r0,$r0,0
    34a8:	44 40 00 44 	44004044 and.l $r0,$r0,4
    34ac:	02 40 e0 5d 	5de04002 cmp.l $r0,0
    34b0:	38 0d 28 00 	00280d38 jmpc z,34e0 <__sflush_r+0x19c>
    34b4:	04 80 06 ac 	ac068004 ldi.l $r0,$r13,4
    34b8:	fc 80 1e ac 	ac1e80fc ldi.l $r1,$r29,252
    34bc:	02 80 00 44 	44008002 sub.l $r0,$r1,$r0
    34c0:	fc 00 d0 b5 	b5d000fc sti.l $r29,252,$r0
    34c4:	30 80 06 ac 	ac068030 ldi.l $r0,$r13,48
    34c8:	02 40 e0 5d 	5de04002 cmp.l $r0,0
    34cc:	38 0d 28 00 	00280d38 jmpc z,34e0 <__sflush_r+0x19c>
    34d0:	3c 80 06 ac 	ac06803c ldi.l $r0,$r13,60
    34d4:	fc 80 1e ac 	ac1e80fc ldi.l $r1,$r29,252
    34d8:	02 80 00 44 	44008002 sub.l $r0,$r1,$r0
    34dc:	fc 00 d0 b5 	b5d000fc sti.l $r29,252,$r0
    34e0:	28 80 46 ac 	ac468028 ldi.l $r4,$r13,40
    34e4:	1c 80 06 ac 	ac06801c ldi.l $r0,$r13,28
    34e8:	00 00 30 64 	64300000 ldk.l $r3,0
    34ec:	fc 80 2e ac 	ac2e80fc ldi.l $r2,$r29,252
    34f0:	00 40 10 44 	44104000 move.l $r1,$r0
    34f4:	ec 80 0e ac 	ac0e80ec ldi.l $r0,$r29,236
    34f8:	40 00 34 08 	08340040 calli $r4
    34fc:	fc 00 d0 b5 	b5d000fc sti.l $r29,252,$r0
    3500:	fc 80 0e ac 	ac0e80fc ldi.l $r0,$r29,252
    3504:	f2 7f e0 5d 	5de07ff2 cmp.l $r0,-1
    3508:	4f 0d 20 00 	00200d4f jmpc nz,353c <__sflush_r+0x1f8>
    350c:	ec 80 0e ac 	ac0e80ec ldi.l $r0,$r29,236
    3510:	00 00 00 ac 	ac000000 ldi.l $r0,$r0,0
    3514:	02 40 e0 5d 	5de04002 cmp.l $r0,0
    3518:	4f 0d 28 00 	00280d4f jmpc z,353c <__sflush_r+0x1f8>
    351c:	ec 80 0e ac 	ac0e80ec ldi.l $r0,$r29,236
    3520:	00 00 00 ac 	ac000000 ldi.l $r0,$r0,0
    3524:	d2 41 e0 5d 	5de041d2 cmp.l $r0,29
    3528:	4f 0d 28 00 	00280d4f jmpc z,353c <__sflush_r+0x1f8>
    352c:	ec 80 0e ac 	ac0e80ec ldi.l $r0,$r29,236
    3530:	00 00 00 ac 	ac000000 ldi.l $r0,$r0,0
    3534:	62 41 e0 5d 	5de04162 cmp.l $r0,22
    3538:	7b 0d 20 00 	00200d7b jmpc nz,35ec <__sflush_r+0x2a8>
    353c:	0c 80 16 aa 	aa16800c ldi.s $r1,$r13,12
    3540:	0c c0 00 44 	4400c00c bexts.l $r0,$r1,0
    3544:	bb 42 00 44 	440042bb bins.l $r0,$r0,43
    3548:	0c 40 00 44 	4400400c bexts.l $r0,$r0,0
    354c:	00 40 10 42 	42104000 move.s $r1,$r0
    3550:	c0 c0 06 44 	4406c0c0 add.l $r0,$r13,12
    3554:	00 80 00 b2 	b2008000 sti.s $r0,0,$r1
    3558:	00 00 00 64 	64000000 ldk.l $r0,0
    355c:	04 00 d0 b4 	b4d00004 sti.l $r13,4,$r0
    3560:	10 80 06 ac 	ac068010 ldi.l $r0,$r13,16
    3564:	00 00 d0 b4 	b4d00000 sti.l $r13,0,$r0
    3568:	0c 80 16 aa 	aa16800c ldi.s $r1,$r13,12
    356c:	0c c0 00 44 	4400c00c bexts.l $r0,$r1,0
    3570:	0d 40 00 44 	4400400d bextu.l $r0,$r0,0
    3574:	00 10 10 64 	64101000 ldk.l $r1,4096
    3578:	14 00 00 44 	44000014 and.l $r0,$r0,$r1
    357c:	02 40 e0 5d 	5de04002 cmp.l $r0,0
    3580:	6a 0d 28 00 	00280d6a jmpc z,35a8 <__sflush_r+0x264>
    3584:	fc 80 0e ac 	ac0e80fc ldi.l $r0,$r29,252
    3588:	f2 7f e0 5d 	5de07ff2 cmp.l $r0,-1
    358c:	68 0d 20 00 	00200d68 jmpc nz,35a0 <__sflush_r+0x25c>
    3590:	ec 80 0e ac 	ac0e80ec ldi.l $r0,$r29,236
    3594:	00 00 00 ac 	ac000000 ldi.l $r0,$r0,0
    3598:	02 40 e0 5d 	5de04002 cmp.l $r0,0
    359c:	6a 0d 20 00 	00200d6a jmpc nz,35a8 <__sflush_r+0x264>
    35a0:	fc 80 0e ac 	ac0e80fc ldi.l $r0,$r29,252
    35a4:	50 00 d0 b4 	b4d00050 sti.l $r13,80,$r0
    35a8:	ec 80 0e ac 	ac0e80ec ldi.l $r0,$r29,236
    35ac:	f0 80 1e ac 	ac1e80f0 ldi.l $r1,$r29,240
    35b0:	00 80 00 b4 	b4008000 sti.l $r0,0,$r1
    35b4:	30 80 06 ac 	ac068030 ldi.l $r0,$r13,48
    35b8:	02 40 e0 5d 	5de04002 cmp.l $r0,0
    35bc:	84 0d 28 00 	00280d84 jmpc z,3610 <__sflush_r+0x2cc>
    35c0:	30 80 16 ac 	ac168030 ldi.l $r1,$r13,48
    35c4:	00 c4 06 44 	4406c400 add.l $r0,$r13,64
    35c8:	02 80 e0 5d 	5de08002 cmp.l $r1,$r0
    35cc:	78 0d 28 00 	00280d78 jmpc z,35e0 <__sflush_r+0x29c>
    35d0:	30 80 06 ac 	ac068030 ldi.l $r0,$r13,48
    35d4:	00 40 10 44 	44104000 move.l $r1,$r0
    35d8:	ec 80 0e ac 	ac0e80ec ldi.l $r0,$r29,236
    35dc:	e0 0d 34 00 	00340de0 call 3780 <_free_r>
    35e0:	00 00 00 64 	64000000 ldk.l $r0,0
    35e4:	30 00 d0 b4 	b4d00030 sti.l $r13,48,$r0
    35e8:	84 0d 30 00 	00300d84 jmp 3610 <__sflush_r+0x2cc>
    35ec:	0c 80 16 aa 	aa16800c ldi.s $r1,$r13,12
    35f0:	0c c0 00 44 	4400c00c bexts.l $r0,$r1,0
    35f4:	6b 62 00 44 	4400626b bins.l $r0,$r0,-474
    35f8:	0c 40 00 44 	4400400c bexts.l $r0,$r0,0
    35fc:	00 40 10 42 	42104000 move.s $r1,$r0
    3600:	c0 c0 06 44 	4406c0c0 add.l $r0,$r13,12
    3604:	00 80 00 b2 	b2008000 sti.s $r0,0,$r1
    3608:	ff ff 0f 64 	640fffff ldk.l $r0,-1
    360c:	b0 0d 30 00 	00300db0 jmp 36c0 <__sflush_r+0x37c>
    3610:	00 00 00 64 	64000000 ldk.l $r0,0
    3614:	b0 0d 30 00 	00300db0 jmp 36c0 <__sflush_r+0x37c>
    3618:	10 80 e6 ac 	ace68010 ldi.l $r14,$r13,16
    361c:	02 40 e7 5d 	5de74002 cmp.l $r14,0
    3620:	8b 0d 20 00 	00200d8b jmpc nz,362c <__sflush_r+0x2e8>
    3624:	00 00 00 64 	64000000 ldk.l $r0,0
    3628:	b0 0d 30 00 	00300db0 jmp 36c0 <__sflush_r+0x37c>
    362c:	00 80 06 ac 	ac068000 ldi.l $r0,$r13,0
    3630:	e2 00 f0 44 	44f000e2 sub.l $r15,$r0,$r14
    3634:	00 00 d7 b4 	b4d70000 sti.l $r13,0,$r14
    3638:	f6 80 0e aa 	aa0e80f6 ldi.s $r0,$r29,246
    363c:	34 40 00 44 	44004034 and.l $r0,$r0,3
    3640:	02 40 e0 5d 	5de04002 cmp.l $r0,0
    3644:	94 0d 20 00 	00200d94 jmpc nz,3650 <__sflush_r+0x30c>
    3648:	14 80 06 ac 	ac068014 ldi.l $r0,$r13,20
    364c:	95 0d 30 00 	00300d95 jmp 3654 <__sflush_r+0x310>
    3650:	00 00 00 64 	64000000 ldk.l $r0,0
    3654:	08 00 d0 b4 	b4d00008 sti.l $r13,8,$r0
    3658:	ad 0d 30 00 	00300dad jmp 36b4 <__sflush_r+0x370>
    365c:	24 80 46 ac 	ac468024 ldi.l $r4,$r13,36
    3660:	1c 80 06 ac 	ac06801c ldi.l $r0,$r13,28
    3664:	00 c0 37 44 	4437c000 move.l $r3,$r15
    3668:	00 40 27 44 	44274000 move.l $r2,$r14
    366c:	00 40 10 44 	44104000 move.l $r1,$r0
    3670:	ec 80 0e ac 	ac0e80ec ldi.l $r0,$r29,236
    3674:	40 00 34 08 	08340040 calli $r4
    3678:	00 40 00 45 	45004000 move.l $r16,$r0
    367c:	02 40 e8 5d 	5de84002 cmp.l $r16,0
    3680:	aa 0d 68 01 	01680daa jmpc gt,36a8 <__sflush_r+0x364>
    3684:	0c 80 16 aa 	aa16800c ldi.s $r1,$r13,12
    3688:	0c c0 00 44 	4400c00c bexts.l $r0,$r1,0
    368c:	6b 62 00 44 	4400626b bins.l $r0,$r0,-474
    3690:	0c 40 00 44 	4400400c bexts.l $r0,$r0,0
    3694:	00 40 10 42 	42104000 move.s $r1,$r0
    3698:	c0 c0 06 44 	4406c0c0 add.l $r0,$r13,12
    369c:	00 80 00 b2 	b2008000 sti.s $r0,0,$r1
    36a0:	ff ff 0f 64 	640fffff ldk.l $r0,-1
    36a4:	b0 0d 30 00 	00300db0 jmp 36c0 <__sflush_r+0x37c>
    36a8:	00 40 08 44 	44084000 move.l $r0,$r16
    36ac:	00 00 e7 44 	44e70000 add.l $r14,$r14,$r0
    36b0:	02 81 f7 44 	44f78102 sub.l $r15,$r15,$r16
    36b4:	02 c0 e7 5d 	5de7c002 cmp.l $r15,0
    36b8:	97 0d 68 01 	01680d97 jmpc gt,365c <__sflush_r+0x318>
    36bc:	00 00 00 64 	64000000 ldk.l $r0,0
    36c0:	00 00 d0 99 	99d00000 unlink $r29
    36c4:	00 00 00 8d 	8d000000 pop.l $r16
    36c8:	00 00 f0 8c 	8cf00000 pop.l $r15
    36cc:	00 00 e0 8c 	8ce00000 pop.l $r14
    36d0:	00 00 d0 8c 	8cd00000 pop.l $r13
    36d4:	00 00 00 a0 	a0000000 return 

000036d8 <_fflush_r>:
    36d8:	00 80 06 84 	84068000 push.l $r13
    36dc:	0c 00 d0 95 	95d0000c link $r29,12
    36e0:	f4 00 d0 b5 	b5d000f4 sti.l $r29,244,$r0
    36e4:	00 c0 d0 44 	44d0c000 move.l $r13,$r1
    36e8:	f4 80 0e ac 	ac0e80f4 ldi.l $r0,$r29,244
    36ec:	fc 00 d0 b5 	b5d000fc sti.l $r29,252,$r0
    36f0:	fc 80 0e ac 	ac0e80fc ldi.l $r0,$r29,252
    36f4:	02 40 e0 5d 	5de04002 cmp.l $r0,0
    36f8:	c5 0d 28 00 	00280dc5 jmpc z,3714 <_fflush_r+0x3c>
    36fc:	fc 80 0e ac 	ac0e80fc ldi.l $r0,$r29,252
    3700:	38 00 00 ac 	ac000038 ldi.l $r0,$r0,56
    3704:	02 40 e0 5d 	5de04002 cmp.l $r0,0
    3708:	c5 0d 20 00 	00200dc5 jmpc nz,3714 <_fflush_r+0x3c>
    370c:	fc 80 0e ac 	ac0e80fc ldi.l $r0,$r29,252
    3710:	7c 01 34 00 	0034017c call 5f0 <__sinit>
    3714:	0c 80 16 aa 	aa16800c ldi.s $r1,$r13,12
    3718:	0c c0 00 44 	4400c00c bexts.l $r0,$r1,0
    371c:	02 40 e0 5d 	5de04002 cmp.l $r0,0
    3720:	cb 0d 20 00 	00200dcb jmpc nz,372c <_fflush_r+0x54>
    3724:	00 00 00 64 	64000000 ldk.l $r0,0
    3728:	d0 0d 30 00 	00300dd0 jmp 3740 <_fflush_r+0x68>
    372c:	00 c0 16 44 	4416c000 move.l $r1,$r13
    3730:	f4 80 0e ac 	ac0e80f4 ldi.l $r0,$r29,244
    3734:	d1 0c 34 00 	00340cd1 call 3344 <__sflush_r>
    3738:	f8 00 d0 b5 	b5d000f8 sti.l $r29,248,$r0
    373c:	f8 80 0e ac 	ac0e80f8 ldi.l $r0,$r29,248
    3740:	00 00 d0 99 	99d00000 unlink $r29
    3744:	00 00 d0 8c 	8cd00000 pop.l $r13
    3748:	00 00 00 a0 	a0000000 return 

0000374c <fflush>:
    374c:	00 00 d0 95 	95d00000 link $r29,0
    3750:	02 40 e0 5d 	5de04002 cmp.l $r0,0
    3754:	da 0d 20 00 	00200dda jmpc nz,3768 <fflush+0x1c>
    3758:	4c 08 00 c4 	c400084c lda.l $r0,80084c <_global_impure_ptr>
    375c:	d8 36 10 64 	641036d8 ldk.l $r1,14040
    3760:	aa 03 34 00 	003403aa call ea8 <_fwalk_reent>
    3764:	de 0d 30 00 	00300dde jmp 3778 <fflush+0x2c>
    3768:	24 04 20 c4 	c4200424 lda.l $r2,800424 <_impure_ptr>
    376c:	00 40 10 44 	44104000 move.l $r1,$r0
    3770:	00 40 01 44 	44014000 move.l $r0,$r2
    3774:	b6 0d 34 00 	00340db6 call 36d8 <_fflush_r>
    3778:	00 00 d0 99 	99d00000 unlink $r29
    377c:	00 00 00 a0 	a0000000 return 

00003780 <_free_r>:
    3780:	30 00 d0 95 	95d00030 link $r29,48
    3784:	d4 00 d0 b5 	b5d000d4 sti.l $r29,212,$r0
    3788:	d0 80 d0 b5 	b5d080d0 sti.l $r29,208,$r1
    378c:	d0 80 0e ac 	ac0e80d0 ldi.l $r0,$r29,208
    3790:	02 40 e0 5d 	5de04002 cmp.l $r0,0
    3794:	31 0f 28 00 	00280f31 jmpc z,3cc4 <_free_r+0x544>
    3798:	d4 80 0e ac 	ac0e80d4 ldi.l $r0,$r29,212
    379c:	1e 08 34 00 	0034081e call 2078 <__malloc_lock>
    37a0:	d0 80 0e ac 	ac0e80d0 ldi.l $r0,$r29,208
    37a4:	80 7f 00 44 	44007f80 add.l $r0,$r0,-8
    37a8:	fc 00 d0 b5 	b5d000fc sti.l $r29,252,$r0
    37ac:	fc 80 0e ac 	ac0e80fc ldi.l $r0,$r29,252
    37b0:	04 00 00 ac 	ac000004 ldi.l $r0,$r0,4
    37b4:	e8 00 d0 b5 	b5d000e8 sti.l $r29,232,$r0
    37b8:	e8 80 0e ac 	ac0e80e8 ldi.l $r0,$r29,232
    37bc:	0b 42 00 44 	4400420b bins.l $r0,$r0,32
    37c0:	f8 00 d0 b5 	b5d000f8 sti.l $r29,248,$r0
    37c4:	fc 80 1e ac 	ac1e80fc ldi.l $r1,$r29,252
    37c8:	f8 80 0e ac 	ac0e80f8 ldi.l $r0,$r29,248
    37cc:	00 80 00 44 	44008000 add.l $r0,$r1,$r0
    37d0:	e4 00 d0 b5 	b5d000e4 sti.l $r29,228,$r0
    37d4:	e4 80 0e ac 	ac0e80e4 ldi.l $r0,$r29,228
    37d8:	04 00 00 ac 	ac000004 ldi.l $r0,$r0,4
    37dc:	0b 44 00 44 	4400440b bins.l $r0,$r0,64
    37e0:	e0 00 d0 b5 	b5d000e0 sti.l $r29,224,$r0
    37e4:	28 04 00 64 	64000428 ldk.l $r0,1064
    37e8:	08 00 00 ac 	ac000008 ldi.l $r0,$r0,8
    37ec:	e4 80 1e ac 	ac1e80e4 ldi.l $r1,$r29,228
    37f0:	02 80 e0 5d 	5de08002 cmp.l $r1,$r0
    37f4:	31 0e 20 00 	00200e31 jmpc nz,38c4 <_free_r+0x144>
    37f8:	f8 80 1e ac 	ac1e80f8 ldi.l $r1,$r29,248
    37fc:	e0 80 0e ac 	ac0e80e0 ldi.l $r0,$r29,224
    3800:	00 80 00 44 	44008000 add.l $r0,$r1,$r0
    3804:	f8 00 d0 b5 	b5d000f8 sti.l $r29,248,$r0
    3808:	e8 80 0e ac 	ac0e80e8 ldi.l $r0,$r29,232
    380c:	14 40 00 44 	44004014 and.l $r0,$r0,1
    3810:	02 40 e0 5d 	5de04002 cmp.l $r0,0
    3814:	1f 0e 20 00 	00200e1f jmpc nz,387c <_free_r+0xfc>
    3818:	fc 80 0e ac 	ac0e80fc ldi.l $r0,$r29,252
    381c:	00 00 00 ac 	ac000000 ldi.l $r0,$r0,0
    3820:	dc 00 d0 b5 	b5d000dc sti.l $r29,220,$r0
    3824:	00 00 10 64 	64100000 ldk.l $r1,0
    3828:	dc 80 0e ac 	ac0e80dc ldi.l $r0,$r29,220
    382c:	02 80 00 44 	44008002 sub.l $r0,$r1,$r0
    3830:	fc 80 1e ac 	ac1e80fc ldi.l $r1,$r29,252
    3834:	00 80 00 44 	44008000 add.l $r0,$r1,$r0
    3838:	fc 00 d0 b5 	b5d000fc sti.l $r29,252,$r0
    383c:	f8 80 1e ac 	ac1e80f8 ldi.l $r1,$r29,248
    3840:	dc 80 0e ac 	ac0e80dc ldi.l $r0,$r29,220
    3844:	00 80 00 44 	44008000 add.l $r0,$r1,$r0
    3848:	f8 00 d0 b5 	b5d000f8 sti.l $r29,248,$r0
    384c:	fc 80 0e ac 	ac0e80fc ldi.l $r0,$r29,252
    3850:	0c 00 00 ac 	ac00000c ldi.l $r0,$r0,12
    3854:	f4 00 d0 b5 	b5d000f4 sti.l $r29,244,$r0
    3858:	fc 80 0e ac 	ac0e80fc ldi.l $r0,$r29,252
    385c:	08 00 00 ac 	ac000008 ldi.l $r0,$r0,8
    3860:	f0 00 d0 b5 	b5d000f0 sti.l $r29,240,$r0
    3864:	f0 80 0e ac 	ac0e80f0 ldi.l $r0,$r29,240
    3868:	f4 80 1e ac 	ac1e80f4 ldi.l $r1,$r29,244
    386c:	0c 80 00 b4 	b400800c sti.l $r0,12,$r1
    3870:	f4 80 0e ac 	ac0e80f4 ldi.l $r0,$r29,244
    3874:	f0 80 1e ac 	ac1e80f0 ldi.l $r1,$r29,240
    3878:	08 80 00 b4 	b4008008 sti.l $r0,8,$r1
    387c:	f8 80 0e ac 	ac0e80f8 ldi.l $r0,$r29,248
    3880:	0b 62 10 44 	4410620b bins.l $r1,$r0,-480
    3884:	fc 80 0e ac 	ac0e80fc ldi.l $r0,$r29,252
    3888:	04 80 00 b4 	b4008004 sti.l $r0,4,$r1
    388c:	28 04 00 64 	64000428 ldk.l $r0,1064
    3890:	fc 80 1e ac 	ac1e80fc ldi.l $r1,$r29,252
    3894:	08 80 00 b4 	b4008008 sti.l $r0,8,$r1
    3898:	30 08 00 c4 	c4000830 lda.l $r0,800830 <__malloc_trim_threshold>
    389c:	f8 80 1e ac 	ac1e80f8 ldi.l $r1,$r29,248
    38a0:	02 80 e0 5d 	5de08002 cmp.l $r1,$r0
    38a4:	2e 0e 68 00 	00680e2e jmpc b,38b8 <_free_r+0x138>
    38a8:	58 08 00 c4 	c4000858 lda.l $r0,800858 <__malloc_top_pad>
    38ac:	00 40 10 44 	44104000 move.l $r1,$r0
    38b0:	d4 80 0e ac 	ac0e80d4 ldi.l $r0,$r29,212
    38b4:	34 0f 34 00 	00340f34 call 3cd0 <_malloc_trim_r>
    38b8:	d4 80 0e ac 	ac0e80d4 ldi.l $r0,$r29,212
    38bc:	23 08 34 00 	00340823 call 208c <__malloc_unlock>
    38c0:	32 0f 30 00 	00300f32 jmp 3cc8 <_free_r+0x548>
    38c4:	e4 80 0e ac 	ac0e80e4 ldi.l $r0,$r29,228
    38c8:	e0 80 1e ac 	ac1e80e0 ldi.l $r1,$r29,224
    38cc:	04 80 00 b4 	b4008004 sti.l $r0,4,$r1
    38d0:	00 00 00 64 	64000000 ldk.l $r0,0
    38d4:	ec 00 d0 b5 	b5d000ec sti.l $r29,236,$r0
    38d8:	e8 80 0e ac 	ac0e80e8 ldi.l $r0,$r29,232
    38dc:	14 40 00 44 	44004014 and.l $r0,$r0,1
    38e0:	02 40 e0 5d 	5de04002 cmp.l $r0,0
    38e4:	5b 0e 20 00 	00200e5b jmpc nz,396c <_free_r+0x1ec>
    38e8:	fc 80 0e ac 	ac0e80fc ldi.l $r0,$r29,252
    38ec:	00 00 00 ac 	ac000000 ldi.l $r0,$r0,0
    38f0:	dc 00 d0 b5 	b5d000dc sti.l $r29,220,$r0
    38f4:	00 00 10 64 	64100000 ldk.l $r1,0
    38f8:	dc 80 0e ac 	ac0e80dc ldi.l $r0,$r29,220
    38fc:	02 80 00 44 	44008002 sub.l $r0,$r1,$r0
    3900:	fc 80 1e ac 	ac1e80fc ldi.l $r1,$r29,252
    3904:	00 80 00 44 	44008000 add.l $r0,$r1,$r0
    3908:	fc 00 d0 b5 	b5d000fc sti.l $r29,252,$r0
    390c:	f8 80 1e ac 	ac1e80f8 ldi.l $r1,$r29,248
    3910:	dc 80 0e ac 	ac0e80dc ldi.l $r0,$r29,220
    3914:	00 80 00 44 	44008000 add.l $r0,$r1,$r0
    3918:	f8 00 d0 b5 	b5d000f8 sti.l $r29,248,$r0
    391c:	fc 80 0e ac 	ac0e80fc ldi.l $r0,$r29,252
    3920:	08 00 10 ac 	ac100008 ldi.l $r1,$r0,8
    3924:	30 04 00 64 	64000430 ldk.l $r0,1072
    3928:	02 80 e0 5d 	5de08002 cmp.l $r1,$r0
    392c:	4f 0e 20 00 	00200e4f jmpc nz,393c <_free_r+0x1bc>
    3930:	01 00 00 64 	64000001 ldk.l $r0,1
    3934:	ec 00 d0 b5 	b5d000ec sti.l $r29,236,$r0
    3938:	5b 0e 30 00 	00300e5b jmp 396c <_free_r+0x1ec>
    393c:	fc 80 0e ac 	ac0e80fc ldi.l $r0,$r29,252
    3940:	0c 00 00 ac 	ac00000c ldi.l $r0,$r0,12
    3944:	f4 00 d0 b5 	b5d000f4 sti.l $r29,244,$r0
    3948:	fc 80 0e ac 	ac0e80fc ldi.l $r0,$r29,252
    394c:	08 00 00 ac 	ac000008 ldi.l $r0,$r0,8
    3950:	f0 00 d0 b5 	b5d000f0 sti.l $r29,240,$r0
    3954:	f0 80 0e ac 	ac0e80f0 ldi.l $r0,$r29,240
    3958:	f4 80 1e ac 	ac1e80f4 ldi.l $r1,$r29,244
    395c:	0c 80 00 b4 	b400800c sti.l $r0,12,$r1
    3960:	f4 80 0e ac 	ac0e80f4 ldi.l $r0,$r29,244
    3964:	f0 80 1e ac 	ac1e80f0 ldi.l $r1,$r29,240
    3968:	08 80 00 b4 	b4008008 sti.l $r0,8,$r1
    396c:	e4 80 1e ac 	ac1e80e4 ldi.l $r1,$r29,228
    3970:	e0 80 0e ac 	ac0e80e0 ldi.l $r0,$r29,224
    3974:	00 80 00 44 	44008000 add.l $r0,$r1,$r0
    3978:	04 00 00 ac 	ac000004 ldi.l $r0,$r0,4
    397c:	14 40 00 44 	44004014 and.l $r0,$r0,1
    3980:	02 40 e0 5d 	5de04002 cmp.l $r0,0
    3984:	8a 0e 20 00 	00200e8a jmpc nz,3a28 <_free_r+0x2a8>
    3988:	f8 80 1e ac 	ac1e80f8 ldi.l $r1,$r29,248
    398c:	e0 80 0e ac 	ac0e80e0 ldi.l $r0,$r29,224
    3990:	00 80 00 44 	44008000 add.l $r0,$r1,$r0
    3994:	f8 00 d0 b5 	b5d000f8 sti.l $r29,248,$r0
    3998:	ec 80 0e ac 	ac0e80ec ldi.l $r0,$r29,236
    399c:	02 40 e0 5d 	5de04002 cmp.l $r0,0
    39a0:	7e 0e 20 00 	00200e7e jmpc nz,39f8 <_free_r+0x278>
    39a4:	e4 80 0e ac 	ac0e80e4 ldi.l $r0,$r29,228
    39a8:	08 00 10 ac 	ac100008 ldi.l $r1,$r0,8
    39ac:	30 04 00 64 	64000430 ldk.l $r0,1072
    39b0:	02 80 e0 5d 	5de08002 cmp.l $r1,$r0
    39b4:	7e 0e 20 00 	00200e7e jmpc nz,39f8 <_free_r+0x278>
    39b8:	01 00 00 64 	64000001 ldk.l $r0,1
    39bc:	ec 00 d0 b5 	b5d000ec sti.l $r29,236,$r0
    39c0:	30 04 00 64 	64000430 ldk.l $r0,1072
    39c4:	fc 80 1e ac 	ac1e80fc ldi.l $r1,$r29,252
    39c8:	0c 80 00 b4 	b400800c sti.l $r0,12,$r1
    39cc:	30 04 10 64 	64100430 ldk.l $r1,1072
    39d0:	0c 00 00 ac 	ac00000c ldi.l $r0,$r0,12
    39d4:	08 00 10 b4 	b4100008 sti.l $r1,8,$r0
    39d8:	30 04 10 64 	64100430 ldk.l $r1,1072
    39dc:	fc 80 0e ac 	ac0e80fc ldi.l $r0,$r29,252
    39e0:	0c 80 00 b4 	b400800c sti.l $r0,12,$r1
    39e4:	fc 80 0e ac 	ac0e80fc ldi.l $r0,$r29,252
    39e8:	0c 00 10 ac 	ac10000c ldi.l $r1,$r0,12
    39ec:	fc 80 0e ac 	ac0e80fc ldi.l $r0,$r29,252
    39f0:	08 80 00 b4 	b4008008 sti.l $r0,8,$r1
    39f4:	8a 0e 30 00 	00300e8a jmp 3a28 <_free_r+0x2a8>
    39f8:	e4 80 0e ac 	ac0e80e4 ldi.l $r0,$r29,228
    39fc:	0c 00 00 ac 	ac00000c ldi.l $r0,$r0,12
    3a00:	f4 00 d0 b5 	b5d000f4 sti.l $r29,244,$r0
    3a04:	e4 80 0e ac 	ac0e80e4 ldi.l $r0,$r29,228
    3a08:	08 00 00 ac 	ac000008 ldi.l $r0,$r0,8
    3a0c:	f0 00 d0 b5 	b5d000f0 sti.l $r29,240,$r0
    3a10:	f0 80 0e ac 	ac0e80f0 ldi.l $r0,$r29,240
    3a14:	f4 80 1e ac 	ac1e80f4 ldi.l $r1,$r29,244
    3a18:	0c 80 00 b4 	b400800c sti.l $r0,12,$r1
    3a1c:	f4 80 0e ac 	ac0e80f4 ldi.l $r0,$r29,244
    3a20:	f0 80 1e ac 	ac1e80f0 ldi.l $r1,$r29,240
    3a24:	08 80 00 b4 	b4008008 sti.l $r0,8,$r1
    3a28:	f8 80 0e ac 	ac0e80f8 ldi.l $r0,$r29,248
    3a2c:	0b 62 10 44 	4410620b bins.l $r1,$r0,-480
    3a30:	fc 80 0e ac 	ac0e80fc ldi.l $r0,$r29,252
    3a34:	04 80 00 b4 	b4008004 sti.l $r0,4,$r1
    3a38:	fc 80 1e ac 	ac1e80fc ldi.l $r1,$r29,252
    3a3c:	f8 80 0e ac 	ac0e80f8 ldi.l $r0,$r29,248
    3a40:	00 80 00 44 	44008000 add.l $r0,$r1,$r0
    3a44:	f8 80 1e ac 	ac1e80f8 ldi.l $r1,$r29,248
    3a48:	00 80 00 b4 	b4008000 sti.l $r0,0,$r1
    3a4c:	ec 80 0e ac 	ac0e80ec ldi.l $r0,$r29,236
    3a50:	02 40 e0 5d 	5de04002 cmp.l $r0,0
    3a54:	2e 0f 20 00 	00200f2e jmpc nz,3cb8 <_free_r+0x538>
    3a58:	f8 80 0e ac 	ac0e80f8 ldi.l $r0,$r29,248
    3a5c:	f2 5f e0 5d 	5de05ff2 cmp.l $r0,511
    3a60:	c2 0e a8 01 	01a80ec2 jmpc a,3b08 <_free_r+0x388>
    3a64:	f8 80 0e ac 	ac0e80f8 ldi.l $r0,$r29,248
    3a68:	39 40 00 44 	44004039 lshr.l $r0,$r0,3
    3a6c:	d8 00 d0 b5 	b5d000d8 sti.l $r29,216,$r0
    3a70:	28 04 00 64 	64000428 ldk.l $r0,1064
    3a74:	04 00 20 ac 	ac200004 ldi.l $r2,$r0,4
    3a78:	d8 80 0e ac 	ac0e80d8 ldi.l $r0,$r29,216
    3a7c:	fa 41 10 44 	441041fa ashr.l $r1,$r0,31
    3a80:	34 c0 10 44 	4410c034 and.l $r1,$r1,3
    3a84:	00 80 00 44 	44008000 add.l $r0,$r1,$r0
    3a88:	2a 40 00 44 	4400402a ashr.l $r0,$r0,2
    3a8c:	00 40 10 44 	44104000 move.l $r1,$r0
    3a90:	01 00 00 64 	64000001 ldk.l $r0,1
    3a94:	18 00 10 44 	44100018 ashl.l $r1,$r0,$r1
    3a98:	28 04 00 64 	64000428 ldk.l $r0,1064
    3a9c:	15 00 11 44 	44110015 or.l $r1,$r2,$r1
    3aa0:	04 80 00 b4 	b4008004 sti.l $r0,4,$r1
    3aa4:	d8 80 0e ac 	ac0e80d8 ldi.l $r0,$r29,216
    3aa8:	10 40 00 44 	44004010 add.l $r0,$r0,1
    3aac:	00 00 00 44 	44000000 add.l $r0,$r0,$r0
    3ab0:	28 40 10 44 	44104028 ashl.l $r1,$r0,2
    3ab4:	28 04 00 64 	64000428 ldk.l $r0,1064
    3ab8:	00 80 00 44 	44008000 add.l $r0,$r1,$r0
    3abc:	80 7f 00 44 	44007f80 add.l $r0,$r0,-8
    3ac0:	f4 00 d0 b5 	b5d000f4 sti.l $r29,244,$r0
    3ac4:	f4 80 0e ac 	ac0e80f4 ldi.l $r0,$r29,244
    3ac8:	08 00 00 ac 	ac000008 ldi.l $r0,$r0,8
    3acc:	f0 00 d0 b5 	b5d000f0 sti.l $r29,240,$r0
    3ad0:	fc 80 0e ac 	ac0e80fc ldi.l $r0,$r29,252
    3ad4:	f4 80 1e ac 	ac1e80f4 ldi.l $r1,$r29,244
    3ad8:	0c 80 00 b4 	b400800c sti.l $r0,12,$r1
    3adc:	fc 80 0e ac 	ac0e80fc ldi.l $r0,$r29,252
    3ae0:	f0 80 1e ac 	ac1e80f0 ldi.l $r1,$r29,240
    3ae4:	08 80 00 b4 	b4008008 sti.l $r0,8,$r1
    3ae8:	f4 80 0e ac 	ac0e80f4 ldi.l $r0,$r29,244
    3aec:	fc 80 1e ac 	ac1e80fc ldi.l $r1,$r29,252
    3af0:	08 80 00 b4 	b4008008 sti.l $r0,8,$r1
    3af4:	f4 80 0e ac 	ac0e80f4 ldi.l $r0,$r29,244
    3af8:	08 00 10 ac 	ac100008 ldi.l $r1,$r0,8
    3afc:	f0 80 0e ac 	ac0e80f0 ldi.l $r0,$r29,240
    3b00:	0c 80 00 b4 	b400800c sti.l $r0,12,$r1
    3b04:	2e 0f 30 00 	00300f2e jmp 3cb8 <_free_r+0x538>
    3b08:	f8 80 0e ac 	ac0e80f8 ldi.l $r0,$r29,248
    3b0c:	99 40 00 44 	44004099 lshr.l $r0,$r0,9
    3b10:	02 40 e0 5d 	5de04002 cmp.l $r0,0
    3b14:	c9 0e 20 00 	00200ec9 jmpc nz,3b24 <_free_r+0x3a4>
    3b18:	f8 80 0e ac 	ac0e80f8 ldi.l $r0,$r29,248
    3b1c:	39 40 00 44 	44004039 lshr.l $r0,$r0,3
    3b20:	f3 0e 30 00 	00300ef3 jmp 3bcc <_free_r+0x44c>
    3b24:	f8 80 0e ac 	ac0e80f8 ldi.l $r0,$r29,248
    3b28:	99 40 00 44 	44004099 lshr.l $r0,$r0,9
    3b2c:	42 40 e0 5d 	5de04042 cmp.l $r0,4
    3b30:	d1 0e a8 01 	01a80ed1 jmpc a,3b44 <_free_r+0x3c4>
    3b34:	f8 80 0e ac 	ac0e80f8 ldi.l $r0,$r29,248
    3b38:	69 40 00 44 	44004069 lshr.l $r0,$r0,6
    3b3c:	80 43 00 44 	44004380 add.l $r0,$r0,56
    3b40:	f3 0e 30 00 	00300ef3 jmp 3bcc <_free_r+0x44c>
    3b44:	f8 80 0e ac 	ac0e80f8 ldi.l $r0,$r29,248
    3b48:	99 40 00 44 	44004099 lshr.l $r0,$r0,9
    3b4c:	42 41 e0 5d 	5de04142 cmp.l $r0,20
    3b50:	d9 0e a8 01 	01a80ed9 jmpc a,3b64 <_free_r+0x3e4>
    3b54:	f8 80 0e ac 	ac0e80f8 ldi.l $r0,$r29,248
    3b58:	99 40 00 44 	44004099 lshr.l $r0,$r0,9
    3b5c:	b0 45 00 44 	440045b0 add.l $r0,$r0,91
    3b60:	f3 0e 30 00 	00300ef3 jmp 3bcc <_free_r+0x44c>
    3b64:	f8 80 0e ac 	ac0e80f8 ldi.l $r0,$r29,248
    3b68:	99 40 00 44 	44004099 lshr.l $r0,$r0,9
    3b6c:	42 45 e0 5d 	5de04542 cmp.l $r0,84
    3b70:	e1 0e a8 01 	01a80ee1 jmpc a,3b84 <_free_r+0x404>
    3b74:	f8 80 0e ac 	ac0e80f8 ldi.l $r0,$r29,248
    3b78:	c9 40 00 44 	440040c9 lshr.l $r0,$r0,12
    3b7c:	e0 46 00 44 	440046e0 add.l $r0,$r0,110
    3b80:	f3 0e 30 00 	00300ef3 jmp 3bcc <_free_r+0x44c>
    3b84:	f8 80 0e ac 	ac0e80f8 ldi.l $r0,$r29,248
    3b88:	99 40 00 44 	44004099 lshr.l $r0,$r0,9
    3b8c:	42 55 e0 5d 	5de05542 cmp.l $r0,340
    3b90:	e9 0e a8 01 	01a80ee9 jmpc a,3ba4 <_free_r+0x424>
    3b94:	f8 80 0e ac 	ac0e80f8 ldi.l $r0,$r29,248
    3b98:	f9 40 00 44 	440040f9 lshr.l $r0,$r0,15
    3b9c:	70 47 00 44 	44004770 add.l $r0,$r0,119
    3ba0:	f3 0e 30 00 	00300ef3 jmp 3bcc <_free_r+0x44c>
    3ba4:	f8 80 0e ac 	ac0e80f8 ldi.l $r0,$r29,248
    3ba8:	99 40 10 44 	44104099 lshr.l $r1,$r0,9
    3bac:	54 05 00 64 	64000554 ldk.l $r0,1364
    3bb0:	02 80 e0 5d 	5de08002 cmp.l $r1,$r0
    3bb4:	f2 0e a8 01 	01a80ef2 jmpc a,3bc8 <_free_r+0x448>
    3bb8:	f8 80 0e ac 	ac0e80f8 ldi.l $r0,$r29,248
    3bbc:	29 41 00 44 	44004129 lshr.l $r0,$r0,18
    3bc0:	c0 47 00 44 	440047c0 add.l $r0,$r0,124
    3bc4:	f3 0e 30 00 	00300ef3 jmp 3bcc <_free_r+0x44c>
    3bc8:	7e 00 00 64 	6400007e ldk.l $r0,126
    3bcc:	d8 00 d0 b5 	b5d000d8 sti.l $r29,216,$r0
    3bd0:	d8 80 0e ac 	ac0e80d8 ldi.l $r0,$r29,216
    3bd4:	10 40 00 44 	44004010 add.l $r0,$r0,1
    3bd8:	00 00 00 44 	44000000 add.l $r0,$r0,$r0
    3bdc:	28 40 10 44 	44104028 ashl.l $r1,$r0,2
    3be0:	28 04 00 64 	64000428 ldk.l $r0,1064
    3be4:	00 80 00 44 	44008000 add.l $r0,$r1,$r0
    3be8:	80 7f 00 44 	44007f80 add.l $r0,$r0,-8
    3bec:	f4 00 d0 b5 	b5d000f4 sti.l $r29,244,$r0
    3bf0:	f4 80 0e ac 	ac0e80f4 ldi.l $r0,$r29,244
    3bf4:	08 00 00 ac 	ac000008 ldi.l $r0,$r0,8
    3bf8:	f0 00 d0 b5 	b5d000f0 sti.l $r29,240,$r0
    3bfc:	f0 80 1e ac 	ac1e80f0 ldi.l $r1,$r29,240
    3c00:	f4 80 0e ac 	ac0e80f4 ldi.l $r0,$r29,244
    3c04:	02 80 e0 5d 	5de08002 cmp.l $r1,$r0
    3c08:	14 0f 20 00 	00200f14 jmpc nz,3c50 <_free_r+0x4d0>
    3c0c:	28 04 00 64 	64000428 ldk.l $r0,1064
    3c10:	04 00 20 ac 	ac200004 ldi.l $r2,$r0,4
    3c14:	d8 80 0e ac 	ac0e80d8 ldi.l $r0,$r29,216
    3c18:	fa 41 10 44 	441041fa ashr.l $r1,$r0,31
    3c1c:	34 c0 10 44 	4410c034 and.l $r1,$r1,3
    3c20:	00 80 00 44 	44008000 add.l $r0,$r1,$r0
    3c24:	2a 40 00 44 	4400402a ashr.l $r0,$r0,2
    3c28:	00 40 10 44 	44104000 move.l $r1,$r0
    3c2c:	01 00 00 64 	64000001 ldk.l $r0,1
    3c30:	18 00 10 44 	44100018 ashl.l $r1,$r0,$r1
    3c34:	28 04 00 64 	64000428 ldk.l $r0,1064
    3c38:	15 00 11 44 	44110015 or.l $r1,$r2,$r1
    3c3c:	04 80 00 b4 	b4008004 sti.l $r0,4,$r1
    3c40:	21 0f 30 00 	00300f21 jmp 3c84 <_free_r+0x504>
    3c44:	f0 80 0e ac 	ac0e80f0 ldi.l $r0,$r29,240
    3c48:	08 00 00 ac 	ac000008 ldi.l $r0,$r0,8
    3c4c:	f0 00 d0 b5 	b5d000f0 sti.l $r29,240,$r0
    3c50:	f0 80 1e ac 	ac1e80f0 ldi.l $r1,$r29,240
    3c54:	f4 80 0e ac 	ac0e80f4 ldi.l $r0,$r29,244
    3c58:	02 80 e0 5d 	5de08002 cmp.l $r1,$r0
    3c5c:	1e 0f 28 00 	00280f1e jmpc z,3c78 <_free_r+0x4f8>
    3c60:	f0 80 0e ac 	ac0e80f0 ldi.l $r0,$r29,240
    3c64:	04 00 00 ac 	ac000004 ldi.l $r0,$r0,4
    3c68:	0b 44 00 44 	4400440b bins.l $r0,$r0,64
    3c6c:	f8 80 1e ac 	ac1e80f8 ldi.l $r1,$r29,248
    3c70:	02 80 e0 5d 	5de08002 cmp.l $r1,$r0
    3c74:	11 0f 68 00 	00680f11 jmpc b,3c44 <_free_r+0x4c4>
    3c78:	f0 80 0e ac 	ac0e80f0 ldi.l $r0,$r29,240
    3c7c:	0c 00 00 ac 	ac00000c ldi.l $r0,$r0,12
    3c80:	f4 00 d0 b5 	b5d000f4 sti.l $r29,244,$r0
    3c84:	fc 80 0e ac 	ac0e80fc ldi.l $r0,$r29,252
    3c88:	f4 80 1e ac 	ac1e80f4 ldi.l $r1,$r29,244
    3c8c:	0c 80 00 b4 	b400800c sti.l $r0,12,$r1
    3c90:	fc 80 0e ac 	ac0e80fc ldi.l $r0,$r29,252
    3c94:	f0 80 1e ac 	ac1e80f0 ldi.l $r1,$r29,240
    3c98:	08 80 00 b4 	b4008008 sti.l $r0,8,$r1
    3c9c:	f4 80 0e ac 	ac0e80f4 ldi.l $r0,$r29,244
    3ca0:	fc 80 1e ac 	ac1e80fc ldi.l $r1,$r29,252
    3ca4:	08 80 00 b4 	b4008008 sti.l $r0,8,$r1
    3ca8:	f4 80 0e ac 	ac0e80f4 ldi.l $r0,$r29,244
    3cac:	08 00 10 ac 	ac100008 ldi.l $r1,$r0,8
    3cb0:	f0 80 0e ac 	ac0e80f0 ldi.l $r0,$r29,240
    3cb4:	0c 80 00 b4 	b400800c sti.l $r0,12,$r1
    3cb8:	d4 80 0e ac 	ac0e80d4 ldi.l $r0,$r29,212
    3cbc:	23 08 34 00 	00340823 call 208c <__malloc_unlock>
    3cc0:	32 0f 30 00 	00300f32 jmp 3cc8 <_free_r+0x548>
    3cc4:	00 40 00 40 	40004000 nop 
    3cc8:	00 00 d0 99 	99d00000 unlink $r29
    3ccc:	00 00 00 a0 	a0000000 return 

00003cd0 <_malloc_trim_r>:
    3cd0:	1c 00 d0 95 	95d0001c link $r29,28
    3cd4:	e8 00 d0 b5 	b5d000e8 sti.l $r29,232,$r0
    3cd8:	e4 80 d0 b5 	b5d080e4 sti.l $r29,228,$r1
    3cdc:	00 10 00 64 	64001000 ldk.l $r0,4096
    3ce0:	fc 00 d0 b5 	b5d000fc sti.l $r29,252,$r0
    3ce4:	e8 80 0e ac 	ac0e80e8 ldi.l $r0,$r29,232
    3ce8:	1e 08 34 00 	0034081e call 2078 <__malloc_lock>
    3cec:	28 04 00 64 	64000428 ldk.l $r0,1064
    3cf0:	08 00 00 ac 	ac000008 ldi.l $r0,$r0,8
    3cf4:	04 00 00 ac 	ac000004 ldi.l $r0,$r0,4
    3cf8:	0b 44 00 44 	4400440b bins.l $r0,$r0,64
    3cfc:	f8 00 d0 b5 	b5d000f8 sti.l $r29,248,$r0
    3d00:	f8 80 1e ac 	ac1e80f8 ldi.l $r1,$r29,248
    3d04:	e4 80 0e ac 	ac0e80e4 ldi.l $r0,$r29,228
    3d08:	02 80 10 44 	44108002 sub.l $r1,$r1,$r0
    3d0c:	fc 80 0e ac 	ac0e80fc ldi.l $r0,$r29,252
    3d10:	00 80 00 44 	44008000 add.l $r0,$r1,$r0
    3d14:	f0 7e 10 44 	44107ef0 add.l $r1,$r0,-17
    3d18:	fc 80 0e ac 	ac0e80fc ldi.l $r0,$r29,252
    3d1c:	00 80 00 f4 	f4008000 udiv.l $r0,$r1,$r0
    3d20:	f0 7f 10 44 	44107ff0 add.l $r1,$r0,-1
    3d24:	fc 80 0e ac 	ac0e80fc ldi.l $r0,$r29,252
    3d28:	08 80 00 f4 	f4008008 mul.l $r0,$r1,$r0
    3d2c:	f4 00 d0 b5 	b5d000f4 sti.l $r29,244,$r0
    3d30:	fc 80 0e ac 	ac0e80fc ldi.l $r0,$r29,252
    3d34:	f4 80 1e ac 	ac1e80f4 ldi.l $r1,$r29,244
    3d38:	02 80 e0 5d 	5de08002 cmp.l $r1,$r0
    3d3c:	54 0f 28 01 	01280f54 jmpc gte,3d50 <_malloc_trim_r+0x80>
    3d40:	e8 80 0e ac 	ac0e80e8 ldi.l $r0,$r29,232
    3d44:	23 08 34 00 	00340823 call 208c <__malloc_unlock>
    3d48:	00 00 00 64 	64000000 ldk.l $r0,0
    3d4c:	97 0f 30 00 	00300f97 jmp 3e5c <_malloc_trim_r+0x18c>
    3d50:	00 00 10 64 	64100000 ldk.l $r1,0
    3d54:	e8 80 0e ac 	ac0e80e8 ldi.l $r0,$r29,232
    3d58:	26 0b 34 00 	00340b26 call 2c98 <_sbrk_r>
    3d5c:	f0 00 d0 b5 	b5d000f0 sti.l $r29,240,$r0
    3d60:	28 04 00 64 	64000428 ldk.l $r0,1064
    3d64:	08 00 10 ac 	ac100008 ldi.l $r1,$r0,8
    3d68:	f8 80 0e ac 	ac0e80f8 ldi.l $r0,$r29,248
    3d6c:	00 80 00 44 	44008000 add.l $r0,$r1,$r0
    3d70:	f0 80 1e ac 	ac1e80f0 ldi.l $r1,$r29,240
    3d74:	02 80 e0 5d 	5de08002 cmp.l $r1,$r0
    3d78:	63 0f 28 00 	00280f63 jmpc z,3d8c <_malloc_trim_r+0xbc>
    3d7c:	e8 80 0e ac 	ac0e80e8 ldi.l $r0,$r29,232
    3d80:	23 08 34 00 	00340823 call 208c <__malloc_unlock>
    3d84:	00 00 00 64 	64000000 ldk.l $r0,0
    3d88:	97 0f 30 00 	00300f97 jmp 3e5c <_malloc_trim_r+0x18c>
    3d8c:	00 00 10 64 	64100000 ldk.l $r1,0
    3d90:	f4 80 0e ac 	ac0e80f4 ldi.l $r0,$r29,244
    3d94:	02 80 00 44 	44008002 sub.l $r0,$r1,$r0
    3d98:	00 40 10 44 	44104000 move.l $r1,$r0
    3d9c:	e8 80 0e ac 	ac0e80e8 ldi.l $r0,$r29,232
    3da0:	26 0b 34 00 	00340b26 call 2c98 <_sbrk_r>
    3da4:	ec 00 d0 b5 	b5d000ec sti.l $r29,236,$r0
    3da8:	ec 80 0e ac 	ac0e80ec ldi.l $r0,$r29,236
    3dac:	f2 7f e0 5d 	5de07ff2 cmp.l $r0,-1
    3db0:	87 0f 20 00 	00200f87 jmpc nz,3e1c <_malloc_trim_r+0x14c>
    3db4:	00 00 10 64 	64100000 ldk.l $r1,0
    3db8:	e8 80 0e ac 	ac0e80e8 ldi.l $r0,$r29,232
    3dbc:	26 0b 34 00 	00340b26 call 2c98 <_sbrk_r>
    3dc0:	f0 00 d0 b5 	b5d000f0 sti.l $r29,240,$r0
    3dc4:	28 04 00 64 	64000428 ldk.l $r0,1064
    3dc8:	08 00 00 ac 	ac000008 ldi.l $r0,$r0,8
    3dcc:	f0 80 1e ac 	ac1e80f0 ldi.l $r1,$r29,240
    3dd0:	02 80 00 44 	44008002 sub.l $r0,$r1,$r0
    3dd4:	f8 00 d0 b5 	b5d000f8 sti.l $r29,248,$r0
    3dd8:	f8 80 0e ac 	ac0e80f8 ldi.l $r0,$r29,248
    3ddc:	f2 40 e0 5d 	5de040f2 cmp.l $r0,15
    3de0:	83 0f 60 01 	01600f83 jmpc lte,3e0c <_malloc_trim_r+0x13c>
    3de4:	34 08 00 c4 	c4000834 lda.l $r0,800834 <__malloc_sbrk_base>
    3de8:	f0 80 1e ac 	ac1e80f0 ldi.l $r1,$r29,240
    3dec:	02 80 10 44 	44108002 sub.l $r1,$r1,$r0
    3df0:	64 08 00 64 	64000864 ldk.l $r0,2148
    3df4:	00 80 00 b4 	b4008000 sti.l $r0,0,$r1
    3df8:	f8 80 0e ac 	ac0e80f8 ldi.l $r0,$r29,248
    3dfc:	0b 62 10 44 	4410620b bins.l $r1,$r0,-480
    3e00:	28 04 00 64 	64000428 ldk.l $r0,1064
    3e04:	08 00 00 ac 	ac000008 ldi.l $r0,$r0,8
    3e08:	04 80 00 b4 	b4008004 sti.l $r0,4,$r1
    3e0c:	e8 80 0e ac 	ac0e80e8 ldi.l $r0,$r29,232
    3e10:	23 08 34 00 	00340823 call 208c <__malloc_unlock>
    3e14:	00 00 00 64 	64000000 ldk.l $r0,0
    3e18:	97 0f 30 00 	00300f97 jmp 3e5c <_malloc_trim_r+0x18c>
    3e1c:	f8 80 1e ac 	ac1e80f8 ldi.l $r1,$r29,248
    3e20:	f4 80 0e ac 	ac0e80f4 ldi.l $r0,$r29,244
    3e24:	02 80 00 44 	44008002 sub.l $r0,$r1,$r0
    3e28:	0b 62 10 44 	4410620b bins.l $r1,$r0,-480
    3e2c:	28 04 00 64 	64000428 ldk.l $r0,1064
    3e30:	08 00 00 ac 	ac000008 ldi.l $r0,$r0,8
    3e34:	04 80 00 b4 	b4008004 sti.l $r0,4,$r1
    3e38:	64 08 00 64 	64000864 ldk.l $r0,2148
    3e3c:	00 00 10 ac 	ac100000 ldi.l $r1,$r0,0
    3e40:	f4 80 0e ac 	ac0e80f4 ldi.l $r0,$r29,244
    3e44:	02 80 10 44 	44108002 sub.l $r1,$r1,$r0
    3e48:	64 08 00 64 	64000864 ldk.l $r0,2148
    3e4c:	00 80 00 b4 	b4008000 sti.l $r0,0,$r1
    3e50:	e8 80 0e ac 	ac0e80e8 ldi.l $r0,$r29,232
    3e54:	23 08 34 00 	00340823 call 208c <__malloc_unlock>
    3e58:	01 00 00 64 	64000001 ldk.l $r0,1
    3e5c:	00 00 d0 99 	99d00000 unlink $r29
    3e60:	00 00 00 a0 	a0000000 return 

00003e64 <_lseek_r>:
    3e64:	14 00 d0 95 	95d00014 link $r29,20
    3e68:	f8 00 d0 b5 	b5d000f8 sti.l $r29,248,$r0
    3e6c:	f4 80 d0 b5 	b5d080f4 sti.l $r29,244,$r1
    3e70:	f0 00 d1 b5 	b5d100f0 sti.l $r29,240,$r2
    3e74:	ec 80 d1 b5 	b5d180ec sti.l $r29,236,$r3
    3e78:	00 00 00 64 	64000000 ldk.l $r0,0
    3e7c:	90 08 00 bc 	bc000890 sta.l 800890 <errno>,$r0
    3e80:	ec 80 2e ac 	ac2e80ec ldi.l $r2,$r29,236
    3e84:	f0 80 1e ac 	ac1e80f0 ldi.l $r1,$r29,240
    3e88:	f4 80 0e ac 	ac0e80f4 ldi.l $r0,$r29,244
    3e8c:	45 11 34 00 	00341145 call 4514 <_lseek>
    3e90:	fc 00 d0 b5 	b5d000fc sti.l $r29,252,$r0
    3e94:	fc 80 0e ac 	ac0e80fc ldi.l $r0,$r29,252
    3e98:	f2 7f e0 5d 	5de07ff2 cmp.l $r0,-1
    3e9c:	ae 0f 20 00 	00200fae jmpc nz,3eb8 <_lseek_r+0x54>
    3ea0:	90 08 00 c4 	c4000890 lda.l $r0,800890 <errno>
    3ea4:	02 40 e0 5d 	5de04002 cmp.l $r0,0
    3ea8:	ae 0f 28 00 	00280fae jmpc z,3eb8 <_lseek_r+0x54>
    3eac:	90 08 10 c4 	c4100890 lda.l $r1,800890 <errno>
    3eb0:	f8 80 0e ac 	ac0e80f8 ldi.l $r0,$r29,248
    3eb4:	00 80 00 b4 	b4008000 sti.l $r0,0,$r1
    3eb8:	fc 80 0e ac 	ac0e80fc ldi.l $r0,$r29,252
    3ebc:	00 00 d0 99 	99d00000 unlink $r29
    3ec0:	00 00 00 a0 	a0000000 return 

00003ec4 <__smakebuf_r>:
    3ec4:	00 80 06 84 	84068000 push.l $r13
    3ec8:	00 00 07 84 	84070000 push.l $r14
    3ecc:	10 00 d0 95 	95d00010 link $r29,16
    3ed0:	f0 00 d0 b5 	b5d000f0 sti.l $r29,240,$r0
    3ed4:	00 c0 d0 44 	44d0c000 move.l $r13,$r1
    3ed8:	0c 80 16 aa 	aa16800c ldi.s $r1,$r13,12
    3edc:	0c c0 00 44 	4400c00c bexts.l $r0,$r1,0
    3ee0:	0d 40 00 44 	4400400d bextu.l $r0,$r0,0
    3ee4:	24 40 00 44 	44004024 and.l $r0,$r0,2
    3ee8:	02 40 e0 5d 	5de04002 cmp.l $r0,0
    3eec:	c3 0f 28 00 	00280fc3 jmpc z,3f0c <__smakebuf_r+0x48>
    3ef0:	30 c4 06 44 	4406c430 add.l $r0,$r13,67
    3ef4:	00 00 d0 b4 	b4d00000 sti.l $r13,0,$r0
    3ef8:	00 80 06 ac 	ac068000 ldi.l $r0,$r13,0
    3efc:	10 00 d0 b4 	b4d00010 sti.l $r13,16,$r0
    3f00:	01 00 00 64 	64000001 ldk.l $r0,1
    3f04:	14 00 d0 b4 	b4d00014 sti.l $r13,20,$r0
    3f08:	14 10 30 00 	00301014 jmp 4050 <__smakebuf_r+0x18c>
    3f0c:	40 ff 1e 44 	441eff40 add.l $r1,$r29,-12
    3f10:	80 ff 0e 44 	440eff80 add.l $r0,$r29,-8
    3f14:	00 c0 30 44 	4430c000 move.l $r3,$r1
    3f18:	00 40 20 44 	44204000 move.l $r2,$r0
    3f1c:	00 c0 16 44 	4416c000 move.l $r1,$r13
    3f20:	f0 80 0e ac 	ac0e80f0 ldi.l $r0,$r29,240
    3f24:	18 10 34 00 	00341018 call 4060 <__swhatbuf_r>
    3f28:	fc 00 d0 b5 	b5d000fc sti.l $r29,252,$r0
    3f2c:	f8 80 0e ac 	ac0e80f8 ldi.l $r0,$r29,248
    3f30:	00 40 10 44 	44104000 move.l $r1,$r0
    3f34:	f0 80 0e ac 	ac0e80f0 ldi.l $r0,$r29,240
    3f38:	c8 04 34 00 	003404c8 call 1320 <_malloc_r>
    3f3c:	00 40 e0 44 	44e04000 move.l $r14,$r0
    3f40:	02 40 e7 5d 	5de74002 cmp.l $r14,0
    3f44:	e9 0f 20 00 	00200fe9 jmpc nz,3fa4 <__smakebuf_r+0xe0>
    3f48:	0c 80 16 aa 	aa16800c ldi.s $r1,$r13,12
    3f4c:	0c c0 00 44 	4400c00c bexts.l $r0,$r1,0
    3f50:	0d 40 00 44 	4400400d bextu.l $r0,$r0,0
    3f54:	00 02 10 64 	64100200 ldk.l $r1,512
    3f58:	14 00 00 44 	44000014 and.l $r0,$r0,$r1
    3f5c:	02 40 e0 5d 	5de04002 cmp.l $r0,0
    3f60:	14 10 20 00 	00201014 jmpc nz,4050 <__smakebuf_r+0x18c>
    3f64:	0c 80 16 aa 	aa16800c ldi.s $r1,$r13,12
    3f68:	0c c0 00 44 	4400c00c bexts.l $r0,$r1,0
    3f6c:	0b 44 00 44 	4400440b bins.l $r0,$r0,64
    3f70:	0c 40 00 44 	4400400c bexts.l $r0,$r0,0
    3f74:	1b 62 00 44 	4400621b bins.l $r0,$r0,-479
    3f78:	0c 40 00 44 	4400400c bexts.l $r0,$r0,0
    3f7c:	00 40 10 42 	42104000 move.s $r1,$r0
    3f80:	c0 c0 06 44 	4406c0c0 add.l $r0,$r13,12
    3f84:	00 80 00 b2 	b2008000 sti.s $r0,0,$r1
    3f88:	30 c4 06 44 	4406c430 add.l $r0,$r13,67
    3f8c:	00 00 d0 b4 	b4d00000 sti.l $r13,0,$r0
    3f90:	00 80 06 ac 	ac068000 ldi.l $r0,$r13,0
    3f94:	10 00 d0 b4 	b4d00010 sti.l $r13,16,$r0
    3f98:	01 00 00 64 	64000001 ldk.l $r0,1
    3f9c:	14 00 d0 b4 	b4d00014 sti.l $r13,20,$r0
    3fa0:	14 10 30 00 	00301014 jmp 4050 <__smakebuf_r+0x18c>
    3fa4:	f0 80 0e ac 	ac0e80f0 ldi.l $r0,$r29,240
    3fa8:	b0 05 10 64 	641005b0 ldk.l $r1,1456
    3fac:	3c 80 00 b4 	b400803c sti.l $r0,60,$r1
    3fb0:	0c 80 16 aa 	aa16800c ldi.s $r1,$r13,12
    3fb4:	0c c0 00 44 	4400c00c bexts.l $r0,$r1,0
    3fb8:	7b 62 00 44 	4400627b bins.l $r0,$r0,-473
    3fbc:	0c 40 00 44 	4400400c bexts.l $r0,$r0,0
    3fc0:	00 40 10 42 	42104000 move.s $r1,$r0
    3fc4:	c0 c0 06 44 	4406c0c0 add.l $r0,$r13,12
    3fc8:	00 80 00 b2 	b2008000 sti.s $r0,0,$r1
    3fcc:	00 00 d7 b4 	b4d70000 sti.l $r13,0,$r14
    3fd0:	00 80 06 ac 	ac068000 ldi.l $r0,$r13,0
    3fd4:	10 00 d0 b4 	b4d00010 sti.l $r13,16,$r0
    3fd8:	f8 80 0e ac 	ac0e80f8 ldi.l $r0,$r29,248
    3fdc:	14 00 d0 b4 	b4d00014 sti.l $r13,20,$r0
    3fe0:	f4 80 0e ac 	ac0e80f4 ldi.l $r0,$r29,244
    3fe4:	02 40 e0 5d 	5de04002 cmp.l $r0,0
    3fe8:	0b 10 28 00 	0028100b jmpc z,402c <__smakebuf_r+0x168>
    3fec:	0e 80 16 aa 	aa16800e ldi.s $r1,$r13,14
    3ff0:	0c c0 00 44 	4400c00c bexts.l $r0,$r1,0
    3ff4:	00 40 10 44 	44104000 move.l $r1,$r0
    3ff8:	f0 80 0e ac 	ac0e80f0 ldi.l $r0,$r29,240
    3ffc:	06 11 34 00 	00341106 call 4418 <_isatty_r>
    4000:	02 40 e0 5d 	5de04002 cmp.l $r0,0
    4004:	0b 10 28 00 	0028100b jmpc z,402c <__smakebuf_r+0x168>
    4008:	0c 80 16 aa 	aa16800c ldi.s $r1,$r13,12
    400c:	0c c0 00 44 	4400c00c bexts.l $r0,$r1,0
    4010:	0b 44 00 44 	4400440b bins.l $r0,$r0,64
    4014:	0c 40 00 44 	4400400c bexts.l $r0,$r0,0
    4018:	0b 62 00 44 	4400620b bins.l $r0,$r0,-480
    401c:	0c 40 00 44 	4400400c bexts.l $r0,$r0,0
    4020:	00 40 10 42 	42104000 move.s $r1,$r0
    4024:	c0 c0 06 44 	4406c0c0 add.l $r0,$r13,12
    4028:	00 80 00 b2 	b2008000 sti.s $r0,0,$r1
    402c:	0c 80 06 aa 	aa06800c ldi.s $r0,$r13,12
    4030:	0c 40 10 44 	4410400c bexts.l $r1,$r0,0
    4034:	fc 80 0e ac 	ac0e80fc ldi.l $r0,$r29,252
    4038:	0c 40 00 44 	4400400c bexts.l $r0,$r0,0
    403c:	05 80 00 44 	44008005 or.l $r0,$r1,$r0
    4040:	0c 40 00 44 	4400400c bexts.l $r0,$r0,0
    4044:	00 40 10 42 	42104000 move.s $r1,$r0
    4048:	c0 c0 06 44 	4406c0c0 add.l $r0,$r13,12
    404c:	00 80 00 b2 	b2008000 sti.s $r0,0,$r1
    4050:	00 00 d0 99 	99d00000 unlink $r29
    4054:	00 00 e0 8c 	8ce00000 pop.l $r14
    4058:	00 00 d0 8c 	8cd00000 pop.l $r13
    405c:	00 00 00 a0 	a0000000 return 

00004060 <__swhatbuf_r>:
    4060:	5c 00 d0 95 	95d0005c link $r29,92
    4064:	b0 00 d0 b5 	b5d000b0 sti.l $r29,176,$r0
    4068:	ac 80 d0 b5 	b5d080ac sti.l $r29,172,$r1
    406c:	a8 00 d1 b5 	b5d100a8 sti.l $r29,168,$r2
    4070:	a4 80 d1 b5 	b5d180a4 sti.l $r29,164,$r3
    4074:	00 08 00 64 	64000800 ldk.l $r0,2048
    4078:	fc 00 d0 b5 	b5d000fc sti.l $r29,252,$r0
    407c:	ac 80 0e ac 	ac0e80ac ldi.l $r0,$r29,172
    4080:	0e 00 10 aa 	aa10000e ldi.s $r1,$r0,14
    4084:	0c c0 00 44 	4400c00c bexts.l $r0,$r1,0
    4088:	02 40 e0 5d 	5de04002 cmp.l $r0,0
    408c:	2e 10 20 01 	0120102e jmpc lt,40b8 <__swhatbuf_r+0x58>
    4090:	ac 80 0e ac 	ac0e80ac ldi.l $r0,$r29,172
    4094:	0e 00 20 aa 	aa20000e ldi.s $r2,$r0,14
    4098:	0c 40 01 44 	4401400c bexts.l $r0,$r2,0
    409c:	00 40 10 44 	44104000 move.l $r1,$r0
    40a0:	40 fb 0e 44 	440efb40 add.l $r0,$r29,-76
    40a4:	00 40 20 44 	44204000 move.l $r2,$r0
    40a8:	b0 80 0e ac 	ac0e80b0 ldi.l $r0,$r29,176
    40ac:	f0 10 34 00 	003410f0 call 43c0 <_fstat_r>
    40b0:	02 40 e0 5d 	5de04002 cmp.l $r0,0
    40b4:	41 10 28 01 	01281041 jmpc gte,4104 <__swhatbuf_r+0xa4>
    40b8:	a4 80 0e ac 	ac0e80a4 ldi.l $r0,$r29,164
    40bc:	00 00 10 64 	64100000 ldk.l $r1,0
    40c0:	00 80 00 b4 	b4008000 sti.l $r0,0,$r1
    40c4:	ac 80 0e ac 	ac0e80ac ldi.l $r0,$r29,172
    40c8:	0c 00 10 aa 	aa10000c ldi.s $r1,$r0,12
    40cc:	0c c0 00 44 	4400c00c bexts.l $r0,$r1,0
    40d0:	0d 40 00 44 	4400400d bextu.l $r0,$r0,0
    40d4:	04 48 00 44 	44004804 and.l $r0,$r0,128
    40d8:	02 40 e0 5d 	5de04002 cmp.l $r0,0
    40dc:	3c 10 28 00 	0028103c jmpc z,40f0 <__swhatbuf_r+0x90>
    40e0:	a8 80 0e ac 	ac0e80a8 ldi.l $r0,$r29,168
    40e4:	40 00 10 64 	64100040 ldk.l $r1,64
    40e8:	00 80 00 b4 	b4008000 sti.l $r0,0,$r1
    40ec:	3f 10 30 00 	0030103f jmp 40fc <__swhatbuf_r+0x9c>
    40f0:	a8 80 0e ac 	ac0e80a8 ldi.l $r0,$r29,168
    40f4:	00 04 10 64 	64100400 ldk.l $r1,1024
    40f8:	00 80 00 b4 	b4008000 sti.l $r0,0,$r1
    40fc:	00 00 00 64 	64000000 ldk.l $r0,0
    4100:	51 10 30 00 	00301051 jmp 4144 <__swhatbuf_r+0xe4>
    4104:	40 fb 0e 44 	440efb40 add.l $r0,$r29,-76
    4108:	04 00 00 ac 	ac000004 ldi.l $r0,$r0,4
    410c:	00 f0 20 64 	6420f000 ldk.l $r2,61440
    4110:	24 00 10 44 	44100024 and.l $r1,$r0,$r2
    4114:	00 20 00 64 	64002000 ldk.l $r0,8192
    4118:	02 80 e0 5d 	5de08002 cmp.l $r1,$r0
    411c:	0d 42 0f 44 	440f420d bextu.l $r0,$r30,32
    4120:	00 40 00 40 	40004000 nop 
    4124:	f4 4f 00 44 	44004ff4 and.l $r0,$r0,255
    4128:	00 40 10 44 	44104000 move.l $r1,$r0
    412c:	a4 80 0e ac 	ac0e80a4 ldi.l $r0,$r29,164
    4130:	00 80 00 b4 	b4008000 sti.l $r0,0,$r1
    4134:	a8 80 0e ac 	ac0e80a8 ldi.l $r0,$r29,168
    4138:	00 04 10 64 	64100400 ldk.l $r1,1024
    413c:	00 80 00 b4 	b4008000 sti.l $r0,0,$r1
    4140:	fc 80 0e ac 	ac0e80fc ldi.l $r0,$r29,252
    4144:	00 00 d0 99 	99d00000 unlink $r29
    4148:	00 00 00 a0 	a0000000 return 

0000414c <_read_r>:
    414c:	14 00 d0 95 	95d00014 link $r29,20
    4150:	f8 00 d0 b5 	b5d000f8 sti.l $r29,248,$r0
    4154:	f4 80 d0 b5 	b5d080f4 sti.l $r29,244,$r1
    4158:	f0 00 d1 b5 	b5d100f0 sti.l $r29,240,$r2
    415c:	ec 80 d1 b5 	b5d180ec sti.l $r29,236,$r3
    4160:	00 00 00 64 	64000000 ldk.l $r0,0
    4164:	90 08 00 bc 	bc000890 sta.l 800890 <errno>,$r0
    4168:	ec 80 2e ac 	ac2e80ec ldi.l $r2,$r29,236
    416c:	f0 80 1e ac 	ac1e80f0 ldi.l $r1,$r29,240
    4170:	f4 80 0e ac 	ac0e80f4 ldi.l $r0,$r29,244
    4174:	4c 11 34 00 	0034114c call 4530 <_read>
    4178:	fc 00 d0 b5 	b5d000fc sti.l $r29,252,$r0
    417c:	fc 80 0e ac 	ac0e80fc ldi.l $r0,$r29,252
    4180:	f2 7f e0 5d 	5de07ff2 cmp.l $r0,-1
    4184:	68 10 20 00 	00201068 jmpc nz,41a0 <_read_r+0x54>
    4188:	90 08 00 c4 	c4000890 lda.l $r0,800890 <errno>
    418c:	02 40 e0 5d 	5de04002 cmp.l $r0,0
    4190:	68 10 28 00 	00281068 jmpc z,41a0 <_read_r+0x54>
    4194:	90 08 10 c4 	c4100890 lda.l $r1,800890 <errno>
    4198:	f8 80 0e ac 	ac0e80f8 ldi.l $r0,$r29,248
    419c:	00 80 00 b4 	b4008000 sti.l $r0,0,$r1
    41a0:	fc 80 0e ac 	ac0e80fc ldi.l $r0,$r29,252
    41a4:	00 00 d0 99 	99d00000 unlink $r29
    41a8:	00 00 00 a0 	a0000000 return 

000041ac <cleanup_glue>:
    41ac:	08 00 d0 95 	95d00008 link $r29,8
    41b0:	fc 00 d0 b5 	b5d000fc sti.l $r29,252,$r0
    41b4:	f8 80 d0 b5 	b5d080f8 sti.l $r29,248,$r1
    41b8:	f8 80 0e ac 	ac0e80f8 ldi.l $r0,$r29,248
    41bc:	00 00 00 ac 	ac000000 ldi.l $r0,$r0,0
    41c0:	02 40 e0 5d 	5de04002 cmp.l $r0,0
    41c4:	77 10 28 00 	00281077 jmpc z,41dc <cleanup_glue+0x30>
    41c8:	f8 80 0e ac 	ac0e80f8 ldi.l $r0,$r29,248
    41cc:	00 00 00 ac 	ac000000 ldi.l $r0,$r0,0
    41d0:	00 40 10 44 	44104000 move.l $r1,$r0
    41d4:	fc 80 0e ac 	ac0e80fc ldi.l $r0,$r29,252
    41d8:	6b 10 34 00 	0034106b call 41ac <cleanup_glue>
    41dc:	f8 80 1e ac 	ac1e80f8 ldi.l $r1,$r29,248
    41e0:	fc 80 0e ac 	ac0e80fc ldi.l $r0,$r29,252
    41e4:	e0 0d 34 00 	00340de0 call 3780 <_free_r>
    41e8:	00 40 00 40 	40004000 nop 
    41ec:	00 00 d0 99 	99d00000 unlink $r29
    41f0:	00 00 00 a0 	a0000000 return 

000041f4 <_reclaim_reent>:
    41f4:	18 00 d0 95 	95d00018 link $r29,24
    41f8:	e8 00 d0 b5 	b5d000e8 sti.l $r29,232,$r0
    41fc:	24 04 00 c4 	c4000424 lda.l $r0,800424 <_impure_ptr>
    4200:	e8 80 1e ac 	ac1e80e8 ldi.l $r1,$r29,232
    4204:	02 80 e0 5d 	5de08002 cmp.l $r1,$r0
    4208:	ed 10 28 00 	002810ed jmpc z,43b4 <_reclaim_reent+0x1c0>
    420c:	e8 80 0e ac 	ac0e80e8 ldi.l $r0,$r29,232
    4210:	4c 00 00 ac 	ac00004c ldi.l $r0,$r0,76
    4214:	02 40 e0 5d 	5de04002 cmp.l $r0,0
    4218:	a8 10 28 00 	002810a8 jmpc z,42a0 <_reclaim_reent+0xac>
    421c:	00 00 00 64 	64000000 ldk.l $r0,0
    4220:	fc 00 d0 b5 	b5d000fc sti.l $r29,252,$r0
    4224:	a0 10 30 00 	003010a0 jmp 4280 <_reclaim_reent+0x8c>
    4228:	e8 80 0e ac 	ac0e80e8 ldi.l $r0,$r29,232
    422c:	4c 00 10 ac 	ac10004c ldi.l $r1,$r0,76
    4230:	fc 80 0e ac 	ac0e80fc ldi.l $r0,$r29,252
    4234:	28 40 00 44 	44004028 ashl.l $r0,$r0,2
    4238:	00 80 00 44 	44008000 add.l $r0,$r1,$r0
    423c:	00 00 00 ac 	ac000000 ldi.l $r0,$r0,0
    4240:	f8 00 d0 b5 	b5d000f8 sti.l $r29,248,$r0
    4244:	9a 10 30 00 	0030109a jmp 4268 <_reclaim_reent+0x74>
    4248:	f8 80 0e ac 	ac0e80f8 ldi.l $r0,$r29,248
    424c:	f0 00 d0 b5 	b5d000f0 sti.l $r29,240,$r0
    4250:	f8 80 0e ac 	ac0e80f8 ldi.l $r0,$r29,248
    4254:	00 00 00 ac 	ac000000 ldi.l $r0,$r0,0
    4258:	f8 00 d0 b5 	b5d000f8 sti.l $r29,248,$r0
    425c:	f0 80 1e ac 	ac1e80f0 ldi.l $r1,$r29,240
    4260:	e8 80 0e ac 	ac0e80e8 ldi.l $r0,$r29,232
    4264:	e0 0d 34 00 	00340de0 call 3780 <_free_r>
    4268:	f8 80 0e ac 	ac0e80f8 ldi.l $r0,$r29,248
    426c:	02 40 e0 5d 	5de04002 cmp.l $r0,0
    4270:	92 10 20 00 	00201092 jmpc nz,4248 <_reclaim_reent+0x54>
    4274:	fc 80 0e ac 	ac0e80fc ldi.l $r0,$r29,252
    4278:	10 40 00 44 	44004010 add.l $r0,$r0,1
    427c:	fc 00 d0 b5 	b5d000fc sti.l $r29,252,$r0
    4280:	fc 80 0e ac 	ac0e80fc ldi.l $r0,$r29,252
    4284:	f2 41 e0 5d 	5de041f2 cmp.l $r0,31
    4288:	8a 10 a0 01 	01a0108a jmpc be,4228 <_reclaim_reent+0x34>
    428c:	e8 80 0e ac 	ac0e80e8 ldi.l $r0,$r29,232
    4290:	4c 00 00 ac 	ac00004c ldi.l $r0,$r0,76
    4294:	00 40 10 44 	44104000 move.l $r1,$r0
    4298:	e8 80 0e ac 	ac0e80e8 ldi.l $r0,$r29,232
    429c:	e0 0d 34 00 	00340de0 call 3780 <_free_r>
    42a0:	e8 80 0e ac 	ac0e80e8 ldi.l $r0,$r29,232
    42a4:	40 00 00 ac 	ac000040 ldi.l $r0,$r0,64
    42a8:	02 40 e0 5d 	5de04002 cmp.l $r0,0
    42ac:	b1 10 28 00 	002810b1 jmpc z,42c4 <_reclaim_reent+0xd0>
    42b0:	e8 80 0e ac 	ac0e80e8 ldi.l $r0,$r29,232
    42b4:	40 00 00 ac 	ac000040 ldi.l $r0,$r0,64
    42b8:	00 40 10 44 	44104000 move.l $r1,$r0
    42bc:	e8 80 0e ac 	ac0e80e8 ldi.l $r0,$r29,232
    42c0:	e0 0d 34 00 	00340de0 call 3780 <_free_r>
    42c4:	e8 80 0e ac 	ac0e80e8 ldi.l $r0,$r29,232
    42c8:	80 54 00 44 	44005480 add.l $r0,$r0,328
    42cc:	00 00 00 ac 	ac000000 ldi.l $r0,$r0,0
    42d0:	02 40 e0 5d 	5de04002 cmp.l $r0,0
    42d4:	cf 10 28 00 	002810cf jmpc z,433c <_reclaim_reent+0x148>
    42d8:	e8 80 0e ac 	ac0e80e8 ldi.l $r0,$r29,232
    42dc:	80 54 00 44 	44005480 add.l $r0,$r0,328
    42e0:	00 00 10 ac 	ac100000 ldi.l $r1,$r0,0
    42e4:	e8 80 0e ac 	ac0e80e8 ldi.l $r0,$r29,232
    42e8:	c0 54 00 44 	440054c0 add.l $r0,$r0,332
    42ec:	02 80 e0 5d 	5de08002 cmp.l $r1,$r0
    42f0:	cf 10 28 00 	002810cf jmpc z,433c <_reclaim_reent+0x148>
    42f4:	e8 80 0e ac 	ac0e80e8 ldi.l $r0,$r29,232
    42f8:	80 54 00 44 	44005480 add.l $r0,$r0,328
    42fc:	00 00 00 ac 	ac000000 ldi.l $r0,$r0,0
    4300:	f4 00 d0 b5 	b5d000f4 sti.l $r29,244,$r0
    4304:	ca 10 30 00 	003010ca jmp 4328 <_reclaim_reent+0x134>
    4308:	f4 80 0e ac 	ac0e80f4 ldi.l $r0,$r29,244
    430c:	ec 00 d0 b5 	b5d000ec sti.l $r29,236,$r0
    4310:	f4 80 0e ac 	ac0e80f4 ldi.l $r0,$r29,244
    4314:	00 00 00 ac 	ac000000 ldi.l $r0,$r0,0
    4318:	f4 00 d0 b5 	b5d000f4 sti.l $r29,244,$r0
    431c:	ec 80 1e ac 	ac1e80ec ldi.l $r1,$r29,236
    4320:	e8 80 0e ac 	ac0e80e8 ldi.l $r0,$r29,232
    4324:	e0 0d 34 00 	00340de0 call 3780 <_free_r>
    4328:	e8 80 0e ac 	ac0e80e8 ldi.l $r0,$r29,232
    432c:	c0 54 00 44 	440054c0 add.l $r0,$r0,332
    4330:	f4 80 1e ac 	ac1e80f4 ldi.l $r1,$r29,244
    4334:	02 80 e0 5d 	5de08002 cmp.l $r1,$r0
    4338:	c2 10 20 00 	002010c2 jmpc nz,4308 <_reclaim_reent+0x114>
    433c:	e8 80 0e ac 	ac0e80e8 ldi.l $r0,$r29,232
    4340:	54 00 00 ac 	ac000054 ldi.l $r0,$r0,84
    4344:	02 40 e0 5d 	5de04002 cmp.l $r0,0
    4348:	d8 10 28 00 	002810d8 jmpc z,4360 <_reclaim_reent+0x16c>
    434c:	e8 80 0e ac 	ac0e80e8 ldi.l $r0,$r29,232
    4350:	54 00 00 ac 	ac000054 ldi.l $r0,$r0,84
    4354:	00 40 10 44 	44104000 move.l $r1,$r0
    4358:	e8 80 0e ac 	ac0e80e8 ldi.l $r0,$r29,232
    435c:	e0 0d 34 00 	00340de0 call 3780 <_free_r>
    4360:	e8 80 0e ac 	ac0e80e8 ldi.l $r0,$r29,232
    4364:	38 00 00 ac 	ac000038 ldi.l $r0,$r0,56
    4368:	02 40 e0 5d 	5de04002 cmp.l $r0,0
    436c:	ed 10 28 00 	002810ed jmpc z,43b4 <_reclaim_reent+0x1c0>
    4370:	e8 80 0e ac 	ac0e80e8 ldi.l $r0,$r29,232
    4374:	3c 00 10 ac 	ac10003c ldi.l $r1,$r0,60
    4378:	e8 80 0e ac 	ac0e80e8 ldi.l $r0,$r29,232
    437c:	10 00 34 08 	08340010 calli $r1
    4380:	e8 80 1e ac 	ac1e80e8 ldi.l $r1,$r29,232
    4384:	e0 02 00 64 	640002e0 ldk.l $r0,736
    4388:	00 80 00 44 	44008000 add.l $r0,$r1,$r0
    438c:	00 00 00 ac 	ac000000 ldi.l $r0,$r0,0
    4390:	02 40 e0 5d 	5de04002 cmp.l $r0,0
    4394:	ed 10 28 00 	002810ed jmpc z,43b4 <_reclaim_reent+0x1c0>
    4398:	e8 80 1e ac 	ac1e80e8 ldi.l $r1,$r29,232
    439c:	e0 02 00 64 	640002e0 ldk.l $r0,736
    43a0:	00 80 00 44 	44008000 add.l $r0,$r1,$r0
    43a4:	00 00 00 ac 	ac000000 ldi.l $r0,$r0,0
    43a8:	00 40 10 44 	44104000 move.l $r1,$r0
    43ac:	e8 80 0e ac 	ac0e80e8 ldi.l $r0,$r29,232
    43b0:	6b 10 34 00 	0034106b call 41ac <cleanup_glue>
    43b4:	00 40 00 40 	40004000 nop 
    43b8:	00 00 d0 99 	99d00000 unlink $r29
    43bc:	00 00 00 a0 	a0000000 return 

000043c0 <_fstat_r>:
    43c0:	10 00 d0 95 	95d00010 link $r29,16
    43c4:	f8 00 d0 b5 	b5d000f8 sti.l $r29,248,$r0
    43c8:	f4 80 d0 b5 	b5d080f4 sti.l $r29,244,$r1
    43cc:	f0 00 d1 b5 	b5d100f0 sti.l $r29,240,$r2
    43d0:	00 00 00 64 	64000000 ldk.l $r0,0
    43d4:	90 08 00 bc 	bc000890 sta.l 800890 <errno>,$r0
    43d8:	f0 80 1e ac 	ac1e80f0 ldi.l $r1,$r29,240
    43dc:	f4 80 0e ac 	ac0e80f4 ldi.l $r0,$r29,244
    43e0:	1a 11 34 00 	0034111a call 4468 <_fstat>
    43e4:	fc 00 d0 b5 	b5d000fc sti.l $r29,252,$r0
    43e8:	fc 80 0e ac 	ac0e80fc ldi.l $r0,$r29,252
    43ec:	f2 7f e0 5d 	5de07ff2 cmp.l $r0,-1
    43f0:	03 11 20 00 	00201103 jmpc nz,440c <_fstat_r+0x4c>
    43f4:	90 08 00 c4 	c4000890 lda.l $r0,800890 <errno>
    43f8:	02 40 e0 5d 	5de04002 cmp.l $r0,0
    43fc:	03 11 28 00 	00281103 jmpc z,440c <_fstat_r+0x4c>
    4400:	90 08 10 c4 	c4100890 lda.l $r1,800890 <errno>
    4404:	f8 80 0e ac 	ac0e80f8 ldi.l $r0,$r29,248
    4408:	00 80 00 b4 	b4008000 sti.l $r0,0,$r1
    440c:	fc 80 0e ac 	ac0e80fc ldi.l $r0,$r29,252
    4410:	00 00 d0 99 	99d00000 unlink $r29
    4414:	00 00 00 a0 	a0000000 return 

00004418 <_isatty_r>:
    4418:	0c 00 d0 95 	95d0000c link $r29,12
    441c:	f8 00 d0 b5 	b5d000f8 sti.l $r29,248,$r0
    4420:	f4 80 d0 b5 	b5d080f4 sti.l $r29,244,$r1
    4424:	00 00 00 64 	64000000 ldk.l $r0,0
    4428:	90 08 00 bc 	bc000890 sta.l 800890 <errno>,$r0
    442c:	f4 80 0e ac 	ac0e80f4 ldi.l $r0,$r29,244
    4430:	26 11 34 00 	00341126 call 4498 <_isatty>
    4434:	fc 00 d0 b5 	b5d000fc sti.l $r29,252,$r0
    4438:	fc 80 0e ac 	ac0e80fc ldi.l $r0,$r29,252
    443c:	f2 7f e0 5d 	5de07ff2 cmp.l $r0,-1
    4440:	17 11 20 00 	00201117 jmpc nz,445c <_isatty_r+0x44>
    4444:	90 08 00 c4 	c4000890 lda.l $r0,800890 <errno>
    4448:	02 40 e0 5d 	5de04002 cmp.l $r0,0
    444c:	17 11 28 00 	00281117 jmpc z,445c <_isatty_r+0x44>
    4450:	90 08 10 c4 	c4100890 lda.l $r1,800890 <errno>
    4454:	f8 80 0e ac 	ac0e80f8 ldi.l $r0,$r29,248
    4458:	00 80 00 b4 	b4008000 sti.l $r0,0,$r1
    445c:	fc 80 0e ac 	ac0e80fc ldi.l $r0,$r29,252
    4460:	00 00 d0 99 	99d00000 unlink $r29
    4464:	00 00 00 a0 	a0000000 return 

00004468 <_fstat>:
    4468:	08 00 d0 95 	95d00008 link $r29,8
    446c:	fc 00 d0 b5 	b5d000fc sti.l $r29,252,$r0
    4470:	f8 80 d0 b5 	b5d080f8 sti.l $r29,248,$r1
    4474:	f8 80 0e ac 	ac0e80f8 ldi.l $r0,$r29,248
    4478:	00 20 10 64 	64102000 ldk.l $r1,8192
    447c:	04 80 00 b4 	b4008004 sti.l $r0,4,$r1
    4480:	f8 80 0e ac 	ac0e80f8 ldi.l $r0,$r29,248
    4484:	00 00 10 64 	64100000 ldk.l $r1,0
    4488:	38 80 00 b4 	b4008038 sti.l $r0,56,$r1
    448c:	00 00 00 64 	64000000 ldk.l $r0,0
    4490:	00 00 d0 99 	99d00000 unlink $r29
    4494:	00 00 00 a0 	a0000000 return 

00004498 <_isatty>:
    4498:	04 00 d0 95 	95d00004 link $r29,4
    449c:	fc 00 d0 b5 	b5d000fc sti.l $r29,252,$r0
    44a0:	01 00 00 64 	64000001 ldk.l $r0,1
    44a4:	00 00 d0 99 	99d00000 unlink $r29
    44a8:	00 00 00 a0 	a0000000 return 

000044ac <_sbrk>:
    44ac:	0c 00 d0 95 	95d0000c link $r29,12
    44b0:	f4 00 d0 b5 	b5d000f4 sti.l $r29,244,$r0
    44b4:	38 08 10 c4 	c4100838 lda.l $r1,800838 <__heap_ptr>
    44b8:	f4 80 0e ac 	ac0e80f4 ldi.l $r0,$r29,244
    44bc:	00 80 10 44 	44108000 add.l $r1,$r1,$r0
    44c0:	b0 ff 0e 44 	440effb0 add.l $r0,$r29,-5
    44c4:	30 f8 2f 64 	642ff830 ldk.l $r2,-2000
    44c8:	20 00 00 44 	44000020 add.l $r0,$r0,$r2
    44cc:	02 80 e0 5d 	5de08002 cmp.l $r1,$r0
    44d0:	3d 11 60 00 	0060113d jmpc ae,44f4 <_sbrk+0x48>
    44d4:	38 08 00 c4 	c4000838 lda.l $r0,800838 <__heap_ptr>
    44d8:	fc 00 d0 b5 	b5d000fc sti.l $r29,252,$r0
    44dc:	38 08 10 c4 	c4100838 lda.l $r1,800838 <__heap_ptr>
    44e0:	f4 80 0e ac 	ac0e80f4 ldi.l $r0,$r29,244
    44e4:	00 80 00 44 	44008000 add.l $r0,$r1,$r0
    44e8:	38 08 00 bc 	bc000838 sta.l 800838 <__heap_ptr>,$r0
    44ec:	fc 80 0e ac 	ac0e80fc ldi.l $r0,$r29,252
    44f0:	42 11 30 00 	00301142 jmp 4508 <_sbrk+0x5c>
    44f4:	51 11 34 00 	00341151 call 4544 <__errno>
    44f8:	00 40 10 44 	44104000 move.l $r1,$r0
    44fc:	0c 00 00 64 	6400000c ldk.l $r0,12
    4500:	00 00 10 b4 	b4100000 sti.l $r1,0,$r0
    4504:	ff ff 0f 64 	640fffff ldk.l $r0,-1
    4508:	00 00 d0 99 	99d00000 unlink $r29
    450c:	00 00 00 a0 	a0000000 return 

00004510 <_close>:
    4510:	00 00 00 a0 	a0000000 return 

00004514 <_lseek>:
    4514:	0c 00 d0 95 	95d0000c link $r29,12
    4518:	fc 00 d0 b5 	b5d000fc sti.l $r29,252,$r0
    451c:	f8 80 d0 b5 	b5d080f8 sti.l $r29,248,$r1
    4520:	f4 00 d1 b5 	b5d100f4 sti.l $r29,244,$r2
    4524:	ff ff 0f 64 	640fffff ldk.l $r0,-1
    4528:	00 00 d0 99 	99d00000 unlink $r29
    452c:	00 00 00 a0 	a0000000 return 

00004530 <_read>:
    4530:	00 00 00 a0 	a0000000 return 

00004534 <_write>:
    4534:	00 00 31 64 	64310000 ldk.l $r3,65536
    4538:	2e 80 30 f0 	f030802e streamout.b $r3,$r1,$r2
    453c:	00 40 01 44 	44014000 move.l $r0,$r2
    4540:	00 00 00 a0 	a0000000 return 

00004544 <__errno>:
    4544:	00 00 d0 95 	95d00000 link $r29,0
    4548:	24 04 00 c4 	c4000424 lda.l $r0,800424 <_impure_ptr>
    454c:	00 00 d0 99 	99d00000 unlink $r29
    4550:	00 00 00 a0 	a0000000 return 
Raw dump of debug contents of section .debug_line (loaded from hello.elf):

  Offset:                      0x0
  Length:                      70
  DWARF Version:               3
  Prologue Length:             30
  Minimum Instruction Length:  1
  Initial value of 'is_stmt':  1
  Line Base:                   -5
  Line Range:                  14
  Opcode Base:                 13

 Opcodes:
  Opcode 1 has 0 args
  Opcode 2 has 1 arg
  Opcode 3 has 1 arg
  Opcode 4 has 1 arg
  Opcode 5 has 1 arg
  Opcode 6 has 0 args
  Opcode 7 has 0 args
  Opcode 8 has 0 args
  Opcode 9 has 1 arg
  Opcode 10 has 0 args
  Opcode 11 has 0 args
  Opcode 12 has 1 arg

 The Directory Table is empty.

 The File Name Table (offset 0x1c):
  Entry	Dir	Time	Size	Name
  1	0	0	0	start.S

 Line Number Statements:
  [0x00000028]  Extended opcode 2: set Address to 0x0
  [0x0000002f]  Special opcode 7: advance Address by 0 to 0x0 and Line by 2 to 3
  [0x00000030]  Special opcode 62: advance Address by 4 to 0x4 and Line by 1 to 4
  [0x00000031]  Special opcode 62: advance Address by 4 to 0x8 and Line by 1 to 5
  [0x00000032]  Special opcode 64: advance Address by 4 to 0xc and Line by 3 to 8
  [0x00000033]  Special opcode 62: advance Address by 4 to 0x10 and Line by 1 to 9
  [0x00000034]  Special opcode 62: advance Address by 4 to 0x14 and Line by 1 to 10
  [0x00000035]  Special opcode 62: advance Address by 4 to 0x18 and Line by 1 to 11
  [0x00000036]  Special opcode 62: advance Address by 4 to 0x1c and Line by 1 to 12
  [0x00000037]  Special opcode 62: advance Address by 4 to 0x20 and Line by 1 to 13
  [0x00000038]  Special opcode 62: advance Address by 4 to 0x24 and Line by 1 to 14
  [0x00000039]  Special opcode 63: advance Address by 4 to 0x28 and Line by 2 to 16
  [0x0000003a]  Special opcode 62: advance Address by 4 to 0x2c and Line by 1 to 17
  [0x0000003b]  Special opcode 62: advance Address by 4 to 0x30 and Line by 1 to 18
  [0x0000003c]  Special opcode 64: advance Address by 4 to 0x34 and Line by 3 to 21
  [0x0000003d]  Special opcode 62: advance Address by 4 to 0x38 and Line by 1 to 22
  [0x0000003e]  Special opcode 62: advance Address by 4 to 0x3c and Line by 1 to 23
  [0x0000003f]  Special opcode 62: advance Address by 4 to 0x40 and Line by 1 to 24
  [0x00000040]  Special opcode 62: advance Address by 4 to 0x44 and Line by 1 to 25
  [0x00000041]  Special opcode 63: advance Address by 4 to 0x48 and Line by 2 to 27
  [0x00000042]  Special opcode 62: advance Address by 4 to 0x4c and Line by 1 to 28
  [0x00000043]  Special opcode 62: advance Address by 4 to 0x50 and Line by 1 to 29
  [0x00000044]  Special opcode 63: advance Address by 4 to 0x54 and Line by 2 to 31
  [0x00000045]  Advance PC by 4 to 0x58
  [0x00000047]  Extended opcode 1: End of Sequence


  Offset:                      0x4a
  Length:                      87
  DWARF Version:               4
  Prologue Length:             31
  Minimum Instruction Length:  1
  Maximum Ops per Instruction: 1
  Initial value of 'is_stmt':  1
  Line Base:                   -10
  Line Range:                  242
  Opcode Base:                 13

 Opcodes:
  Opcode 1 has 0 args
  Opcode 2 has 1 arg
  Opcode 3 has 1 arg
  Opcode 4 has 1 arg
  Opcode 5 has 1 arg
  Opcode 6 has 0 args
  Opcode 7 has 0 args
  Opcode 8 has 0 args
  Opcode 9 has 1 arg
  Opcode 10 has 0 args
  Opcode 11 has 0 args
  Opcode 12 has 1 arg

 The Directory Table is empty.

 The File Name Table (offset 0x67):
  Entry	Dir	Time	Size	Name
  1	0	0	0	hello.c

 Line Number Statements:
  [0x00000073]  Extended opcode 2: set Address to 0x58
  [0x0000007a]  Special opcode 13: advance Address by 0 to 0x58 and Line by 3 to 4
  [0x0000007b]  Set column to 1
  [0x0000007d]  Extended opcode 2: set Address to 0x5c
  [0x00000084]  Special opcode 11: advance Address by 0 to 0x5c and Line by 1 to 5
  [0x00000085]  Set column to 3
  [0x00000087]  Extended opcode 2: set Address to 0x64
  [0x0000008e]  Special opcode 11: advance Address by 0 to 0x64 and Line by 1 to 6
  [0x0000008f]  Set column to 10
  [0x00000091]  Extended opcode 2: set Address to 0x68
  [0x00000098]  Special opcode 11: advance Address by 0 to 0x68 and Line by 1 to 7
  [0x00000099]  Set column to 1
  [0x0000009b]  Extended opcode 2: set Address to 0x70
  [0x000000a2]  Extended opcode 1: End of Sequence


  Offset:                      0xa5
  Length:                      743
  DWARF Version:               4
  Prologue Length:             425
  Minimum Instruction Length:  1
  Maximum Ops per Instruction: 1
  Initial value of 'is_stmt':  1
  Line Base:                   -10
  Line Range:                  242
  Opcode Base:                 13

 Opcodes:
  Opcode 1 has 0 args
  Opcode 2 has 1 arg
  Opcode 3 has 1 arg
  Opcode 4 has 1 arg
  Opcode 5 has 1 arg
  Opcode 6 has 0 args
  Opcode 7 has 0 args
  Opcode 8 has 0 args
  Opcode 9 has 1 arg
  Opcode 10 has 0 args
  Opcode 11 has 0 args
  Opcode 12 has 1 arg

 The Directory Table (offset 0xc1):
  1	../../../.././newlib/libc/stdio
  2	/media/ca850f52-0605-42a7-9fd4-899de9edf461/work/GNU_LANG/lib/gcc/ft32-elf/10.2.0/include
  3	/media/ca850f52-0605-42a7-9fd4-899de9edf461/work/GNU_LANG/newlib-4.1.0.ft32-elf/newlib/libc/include/sys
  4	/media/ca850f52-0605-42a7-9fd4-899de9edf461/work/GNU_LANG/newlib-4.1.0.ft32-elf/newlib/libc/include

 The File Name Table (offset 0x208):
  Entry	Dir	Time	Size	Name
  1	1	0	0	puts.c
  2	2	0	0	stddef.h
  3	3	0	0	_types.h
  4	3	0	0	reent.h
  5	3	0	0	lock.h
  6	4	0	0	stdio.h
  7	1	0	0	fvwrite.h

 Line Number Statements:
  [0x00000258]  Extended opcode 2: set Address to 0x70
  [0x0000025f]  Special opcode 79: advance Address by 0 to 0x70 and Line by 69 to 70
  [0x00000260]  Set column to 1
  [0x00000262]  Extended opcode 2: set Address to 0x7c
  [0x00000269]  Special opcode 13: advance Address by 0 to 0x7c and Line by 3 to 73
  [0x0000026a]  Set column to 14
  [0x0000026c]  Extended opcode 2: set Address to 0x88
  [0x00000273]  Special opcode 15: advance Address by 0 to 0x88 and Line by 5 to 78
  [0x00000274]  Set column to 19
  [0x00000276]  Extended opcode 2: set Address to 0x94
  [0x0000027d]  Special opcode 11: advance Address by 0 to 0x94 and Line by 1 to 79
  [0x0000027e]  Set column to 18
  [0x00000280]  Extended opcode 2: set Address to 0xa0
  [0x00000287]  Special opcode 11: advance Address by 0 to 0xa0 and Line by 1 to 80
  [0x00000288]  Set column to 19
  [0x0000028a]  Extended opcode 2: set Address to 0xac
  [0x00000291]  Special opcode 11: advance Address by 0 to 0xac and Line by 1 to 81
  [0x00000292]  Set column to 18
  [0x00000294]  Extended opcode 2: set Address to 0xb8
  [0x0000029b]  Special opcode 11: advance Address by 0 to 0xb8 and Line by 1 to 82
  [0x0000029c]  Set column to 21
  [0x0000029e]  Extended opcode 2: set Address to 0xc0
  [0x000002a5]  Copy
  [0x000002a6]  Set column to 17
  [0x000002a8]  Extended opcode 2: set Address to 0xc8
  [0x000002af]  Special opcode 11: advance Address by 0 to 0xc8 and Line by 1 to 83
  [0x000002b0]  Set column to 15
  [0x000002b2]  Extended opcode 2: set Address to 0xd4
  [0x000002b9]  Special opcode 11: advance Address by 0 to 0xd4 and Line by 1 to 84
  [0x000002ba]  Set column to 18
  [0x000002bc]  Extended opcode 2: set Address to 0xe0
  [0x000002c3]  Special opcode 13: advance Address by 0 to 0xe0 and Line by 3 to 87
  [0x000002c4]  Set column to 6
  [0x000002c6]  Extended opcode 2: set Address to 0xec
  [0x000002cd]  Special opcode 11: advance Address by 0 to 0xec and Line by 1 to 88
  [0x000002ce]  Set column to 3
  [0x000002d0]  Extended opcode 2: set Address to 0x100
  [0x000002d7]  Extended opcode 4: set Discriminator to 1
  [0x000002db]  Set is_stmt to 0
  [0x000002dc]  Copy
  [0x000002dd]  Set column to 3
  [0x000002df]  Extended opcode 2: set Address to 0x110
  [0x000002e6]  Extended opcode 4: set Discriminator to 2
  [0x000002ea]  Copy
  [0x000002eb]  Set column to 3
  [0x000002ed]  Extended opcode 2: set Address to 0x118
  [0x000002f4]  Extended opcode 4: set Discriminator to 0
  [0x000002f8]  Set is_stmt to 1
  [0x000002f9]  Special opcode 12: advance Address by 0 to 0x118 and Line by 2 to 90
  [0x000002fa]  Set column to 3
  [0x000002fc]  Extended opcode 2: set Address to 0x138
  [0x00000303]  Extended opcode 4: set Discriminator to 1
  [0x00000307]  Set is_stmt to 0
  [0x00000308]  Copy
  [0x00000309]  Set column to 3
  [0x0000030b]  Extended opcode 2: set Address to 0x170
  [0x00000312]  Extended opcode 4: set Discriminator to 0
  [0x00000316]  Set is_stmt to 1
  [0x00000317]  Special opcode 11: advance Address by 0 to 0x170 and Line by 1 to 91
  [0x00000318]  Set column to 13
  [0x0000031a]  Extended opcode 2: set Address to 0x184
  [0x00000321]  Copy
  [0x00000322]  Set column to 48
  [0x00000324]  Extended opcode 2: set Address to 0x18c
  [0x0000032b]  Extended opcode 4: set Discriminator to 1
  [0x0000032f]  Set is_stmt to 0
  [0x00000330]  Copy
  [0x00000331]  Set column to 48
  [0x00000333]  Extended opcode 2: set Address to 0x194
  [0x0000033a]  Extended opcode 4: set Discriminator to 2
  [0x0000033e]  Copy
  [0x0000033f]  Set column to 48
  [0x00000341]  Extended opcode 2: set Address to 0x198
  [0x00000348]  Extended opcode 4: set Discriminator to 4
  [0x0000034c]  Set is_stmt to 1
  [0x0000034d]  Copy
  [0x0000034e]  Set column to 10
  [0x00000350]  Extended opcode 2: set Address to 0x19c
  [0x00000357]  Special opcode 12: advance Address by 0 to 0x19c and Line by 2 to 93
  [0x00000358]  Set column to 10
  [0x0000035a]  Extended opcode 2: set Address to 0x1a0
  [0x00000361]  Special opcode 39: advance Address by 0 to 0x1a0 and Line by 29 to 122
  [0x00000362]  Set column to 1
  [0x00000364]  Extended opcode 2: set Address to 0x1a8
  [0x0000036b]  Extended opcode 4: set Discriminator to 0
  [0x0000036f]  Special opcode 16: advance Address by 0 to 0x1a8 and Line by 6 to 128
  [0x00000370]  Set column to 1
  [0x00000372]  Extended opcode 2: set Address to 0x1b0
  [0x00000379]  Special opcode 11: advance Address by 0 to 0x1b0 and Line by 1 to 129
  [0x0000037a]  Set column to 10
  [0x0000037c]  Extended opcode 2: set Address to 0x1bc
  [0x00000383]  Special opcode 11: advance Address by 0 to 0x1bc and Line by 1 to 130
  [0x00000384]  Set column to 1
  [0x00000386]  Extended opcode 2: set Address to 0x1c4
  [0x0000038d]  Extended opcode 1: End of Sequence


  Offset:                      0x390
  Length:                      375
  DWARF Version:               4
  Prologue Length:             279
  Minimum Instruction Length:  1
  Maximum Ops per Instruction: 1
  Initial value of 'is_stmt':  1
  Line Base:                   -10
  Line Range:                  242
  Opcode Base:                 13

 Opcodes:
  Opcode 1 has 0 args
  Opcode 2 has 1 arg
  Opcode 3 has 1 arg
  Opcode 4 has 1 arg
  Opcode 5 has 1 arg
  Opcode 6 has 0 args
  Opcode 7 has 0 args
  Opcode 8 has 0 args
  Opcode 9 has 1 arg
  Opcode 10 has 0 args
  Opcode 11 has 0 args
  Opcode 12 has 1 arg

 The Directory Table (offset 0x3ac):
  1	../../../.././newlib/libc/string
  2	/media/ca850f52-0605-42a7-9fd4-899de9edf461/work/GNU_LANG/lib/gcc/ft32-elf/10.2.0/include
  3	/media/ca850f52-0605-42a7-9fd4-899de9edf461/work/GNU_LANG/newlib-4.1.0.ft32-elf/newlib/libc/include

 The File Name Table (offset 0x48c):
  Entry	Dir	Time	Size	Name
  1	1	0	0	strlen.c
  2	2	0	0	stddef.h
  3	3	0	0	string.h

 Line Number Statements:
  [0x000004b1]  Extended opcode 2: set Address to 0x1c4
  [0x000004b8]  Special opcode 62: advance Address by 0 to 0x1c4 and Line by 52 to 53
  [0x000004b9]  Set column to 1
  [0x000004bb]  Extended opcode 2: set Address to 0x1cc
  [0x000004c2]  Special opcode 11: advance Address by 0 to 0x1cc and Line by 1 to 54
  [0x000004c3]  Set column to 15
  [0x000004c5]  Extended opcode 2: set Address to 0x1d4
  [0x000004cc]  Special opcode 35: advance Address by 0 to 0x1d4 and Line by 25 to 79
  [0x000004cd]  Set column to 9
  [0x000004cf]  Extended opcode 2: set Address to 0x1d8
  [0x000004d6]  Special opcode 11: advance Address by 0 to 0x1d8 and Line by 1 to 80
  [0x000004d7]  Set column to 8
  [0x000004d9]  Extended opcode 2: set Address to 0x1e4
  [0x000004e0]  Special opcode 9: advance Address by 0 to 0x1e4 and Line by -1 to 79
  [0x000004e1]  Set column to 10
  [0x000004e3]  Extended opcode 2: set Address to 0x1f0
  [0x000004ea]  Copy
  [0x000004eb]  Set column to 9
  [0x000004ed]  Extended opcode 2: set Address to 0x1f8
  [0x000004f4]  Special opcode 12: advance Address by 0 to 0x1f8 and Line by 2 to 81
  [0x000004f5]  Set column to 14
  [0x000004f7]  Extended opcode 2: set Address to 0x204
  [0x000004fe]  Special opcode 11: advance Address by 0 to 0x204 and Line by 1 to 82
  [0x000004ff]  Set column to 1
  [0x00000501]  Extended opcode 2: set Address to 0x20c
  [0x00000508]  Extended opcode 1: End of Sequence


  Offset:                      0x50b
  Length:                      1831
  DWARF Version:               4
  Prologue Length:             425
  Minimum Instruction Length:  1
  Maximum Ops per Instruction: 1
  Initial value of 'is_stmt':  1
  Line Base:                   -10
  Line Range:                  242
  Opcode Base:                 13

 Opcodes:
  Opcode 1 has 0 args
  Opcode 2 has 1 arg
  Opcode 3 has 1 arg
  Opcode 4 has 1 arg
  Opcode 5 has 1 arg
  Opcode 6 has 0 args
  Opcode 7 has 0 args
  Opcode 8 has 0 args
  Opcode 9 has 1 arg
  Opcode 10 has 0 args
  Opcode 11 has 0 args
  Opcode 12 has 1 arg

 The Directory Table (offset 0x527):
  1	../../../.././newlib/libc/stdio
  2	/media/ca850f52-0605-42a7-9fd4-899de9edf461/work/GNU_LANG/lib/gcc/ft32-elf/10.2.0/include
  3	/media/ca850f52-0605-42a7-9fd4-899de9edf461/work/GNU_LANG/newlib-4.1.0.ft32-elf/newlib/libc/include/sys
  4	/media/ca850f52-0605-42a7-9fd4-899de9edf461/work/GNU_LANG/newlib-4.1.0.ft32-elf/newlib/libc/include

 The File Name Table (offset 0x66e):
  Entry	Dir	Time	Size	Name
  1	1	0	0	findfp.c
  2	2	0	0	stddef.h
  3	3	0	0	_types.h
  4	3	0	0	reent.h
  5	3	0	0	lock.h
  6	4	0	0	stdio.h
  7	1	0	0	local.h

 Line Number Statements:
  [0x000006be]  Extended opcode 2: set Address to 0x20c
  [0x000006c5]  Special opcode 59: advance Address by 0 to 0x20c and Line by 49 to 50
  [0x000006c6]  Set column to 1
  [0x000006c8]  Extended opcode 2: set Address to 0x21c
  [0x000006cf]  Special opcode 11: advance Address by 0 to 0x21c and Line by 1 to 51
  [0x000006d0]  Set column to 11
  [0x000006d2]  Extended opcode 2: set Address to 0x228
  [0x000006d9]  Special opcode 11: advance Address by 0 to 0x228 and Line by 1 to 52
  [0x000006da]  Set column to 11
  [0x000006dc]  Extended opcode 2: set Address to 0x234
  [0x000006e3]  Special opcode 11: advance Address by 0 to 0x234 and Line by 1 to 53
  [0x000006e4]  Set column to 11
  [0x000006e6]  Extended opcode 2: set Address to 0x240
  [0x000006ed]  Special opcode 11: advance Address by 0 to 0x240 and Line by 1 to 54
  [0x000006ee]  Set column to 15
  [0x000006f0]  Extended opcode 2: set Address to 0x258
  [0x000006f7]  Special opcode 11: advance Address by 0 to 0x258 and Line by 1 to 55
  [0x000006f8]  Set column to 16
  [0x000006fa]  Extended opcode 2: set Address to 0x264
  [0x00000701]  Special opcode 11: advance Address by 0 to 0x264 and Line by 1 to 56
  [0x00000702]  Set column to 14
  [0x00000704]  Extended opcode 2: set Address to 0x27c
  [0x0000070b]  Special opcode 11: advance Address by 0 to 0x27c and Line by 1 to 57
  [0x0000070c]  Set column to 18
  [0x0000070e]  Extended opcode 2: set Address to 0x288
  [0x00000715]  Special opcode 11: advance Address by 0 to 0x288 and Line by 1 to 58
  [0x00000716]  Set column to 18
  [0x00000718]  Extended opcode 2: set Address to 0x294
  [0x0000071f]  Special opcode 11: advance Address by 0 to 0x294 and Line by 1 to 59
  [0x00000720]  Set column to 17
  [0x00000722]  Extended opcode 2: set Address to 0x2a0
  [0x00000729]  Special opcode 11: advance Address by 0 to 0x2a0 and Line by 1 to 60
  [0x0000072a]  Set column to 11
  [0x0000072c]  Extended opcode 2: set Address to 0x2a8
  [0x00000733]  Copy
  [0x00000734]  Set column to 3
  [0x00000736]  Extended opcode 2: set Address to 0x2b4
  [0x0000073d]  Special opcode 11: advance Address by 0 to 0x2b4 and Line by 1 to 61
  [0x0000073e]  Set column to 16
  [0x00000740]  Extended opcode 2: set Address to 0x2c0
  [0x00000747]  Special opcode 11: advance Address by 0 to 0x2c0 and Line by 1 to 62
  [0x00000748]  Set column to 14
  [0x0000074a]  Extended opcode 2: set Address to 0x2cc
  [0x00000751]  Special opcode 12: advance Address by 0 to 0x2cc and Line by 2 to 64
  [0x00000752]  Set column to 15
  [0x00000754]  Extended opcode 2: set Address to 0x2d8
  [0x0000075b]  Special opcode 16: advance Address by 0 to 0x2d8 and Line by 6 to 70
  [0x0000075c]  Set column to 14
  [0x0000075e]  Extended opcode 2: set Address to 0x2e4
  [0x00000765]  Special opcode 12: advance Address by 0 to 0x2e4 and Line by 2 to 72
  [0x00000766]  Set column to 15
  [0x00000768]  Extended opcode 2: set Address to 0x2f0
  [0x0000076f]  Special opcode 26: advance Address by 0 to 0x2f0 and Line by 16 to 88
  [0x00000770]  Set column to 1
  [0x00000772]  Extended opcode 2: set Address to 0x2fc
  [0x00000779]  Special opcode 14: advance Address by 0 to 0x2fc and Line by 4 to 92
  [0x0000077a]  Set column to 1
  [0x0000077c]  Extended opcode 2: set Address to 0x304
  [0x00000783]  Special opcode 11: advance Address by 0 to 0x304 and Line by 1 to 93
  [0x00000784]  Set column to 3
  [0x00000786]  Extended opcode 2: set Address to 0x314
  [0x0000078d]  Special opcode 11: advance Address by 0 to 0x314 and Line by 1 to 94
  [0x0000078e]  Set column to 1
  [0x00000790]  Extended opcode 2: set Address to 0x320
